0736:0100 741E              JZ      0120
0736:0102 741D              JZ      0121
0736:0104 7CFA              JL      0100
0736:0106 7E48              JLE     0150
0736:0108 72F6              JB      0100
0736:010A 7614              JBE     0120
0736:010C 7A14              JPE     0122
0736:010E 70F0              JO      0100
0736:0110 78F0              JS      0102
0736:0112 75F0              JNZ     0104
0736:0114 75EC              JNZ     0102
0736:0116 7D08              JGE     0120
0736:0118 7F09              JG      0123
0736:011A 73E6              JAE     0102
0736:011C 77E2              JA      0100
0736:011E 7BF0              JPO     0110
0736:0120 71DE              JNO     0100
0736:0122 792C              JNS     0150
0736:0124 E22C              LOOPW   0152
0736:0126 E1D8              LOOPZW  0100
0736:0128 E1D7              LOOPZW  0101
0736:012A E0D6              LOOPNZW 0102
0736:012C E0D5              LOOPNZW 0103
0736:012E E3F5              JCXZ    0125
0736:0130 E82333            CALL    3456
0736:0133 FF17              CALL    WORD PTR [BX]
0736:0135 FF5778            CALL    WORD PTR [BX+78]
0736:0138 FF975634          CALL    WORD PTR [BX+3456]
0736:013C FF10              CALL    WORD PTR [BX+SI]
0736:013E FF5079            CALL    WORD PTR [BX+SI+79]
0736:0141 FF907856          CALL    WORD PTR [BX+SI+5678]
0736:0145 FF11              CALL    WORD PTR [BX+DI]
0736:0147 FF5129            CALL    WORD PTR [BX+DI+29]
0736:014A FF917856          CALL    WORD PTR [BX+DI+5678]
0736:014E FF14              CALL    WORD PTR [SI]
0736:0150 FF5428            CALL    WORD PTR [SI+28]
0736:0153 FF945634          CALL    WORD PTR [SI+3456]
0736:0157 FF15              CALL    WORD PTR [DI]
0736:0159 FFD0              CALL    AX
0736:015B FFD3              CALL    BX
0736:015D FFD1              CALL    CX
0736:015F FFD2              CALL    DX
0736:0161 FFD4              CALL    SP
0736:0163 FFD7              CALL    DI
0736:0165 FFD5              CALL    BP
0736:0167 FFD6              CALL    SI
0736:0169 FFD5              CALL    BP
0736:016B 9A45225634        CALL    3456:2245
0736:0170 FF1F              CALL    FAR [BX]
0736:0172 FF5F78            CALL    FAR [BX+78]
0736:0175 FF9F5634          CALL    FAR [BX+3456]
0736:0179 FF18              CALL    FAR [BX+SI]
0736:017B FF5879            CALL    FAR [BX+SI+79]
0736:017E FF987856          CALL    FAR [BX+SI+5678]
0736:0182 FF19              CALL    FAR [BX+DI]
0736:0184 FF5929            CALL    FAR [BX+DI+29]
0736:0187 FF997856          CALL    FAR [BX+DI+5678]
0736:018B FF1C              CALL    FAR [SI]
0736:018D FF5C28            CALL    FAR [SI+28]
0736:0190 FF9C5634          CALL    FAR [SI+3456]
0736:0194 FF1D              CALL    FAR [DI]
0736:0196 E9BD32            JMP     3456
0736:0199 EB15              JMP     01B0
0736:019B FF27              JMP     WORD PTR [BX]
0736:019D FF6778            JMP     WORD PTR [BX+78]
0736:01A0 FFA75634          JMP     WORD PTR [BX+3456]
0736:01A4 FF20              JMP     WORD PTR [BX+SI]
0736:01A6 FF6079            JMP     WORD PTR [BX+SI+79]
0736:01A9 FFA07856          JMP     WORD PTR [BX+SI+5678]
0736:01AD FF21              JMP     WORD PTR [BX+DI]
0736:01AF FF6129            JMP     WORD PTR [BX+DI+29]
0736:01B2 FFA17856          JMP     WORD PTR [BX+DI+5678]
0736:01B6 FF24              JMP     WORD PTR [SI]
0736:01B8 FF6428            JMP     WORD PTR [SI+28]
0736:01BB FFA45634          JMP     WORD PTR [SI+3456]
0736:01BF FF25              JMP     WORD PTR [DI]
0736:01C1 FFE0              JMP     AX
0736:01C3 FFE3              JMP     BX
0736:01C5 FFE1              JMP     CX
0736:01C7 FFE2              JMP     DX
0736:01C9 FFE4              JMP     SP
0736:01CB FFE7              JMP     DI
0736:01CD FFE5              JMP     BP
0736:01CF FFE6              JMP     SI
0736:01D1 FFE5              JMP     BP
0736:01D3 EA45225634        JMP     3456:2245
0736:01D8 FF2F              JMP     FAR [BX]
0736:01DA FF6F78            JMP     FAR [BX+78]
0736:01DD FFAF5634          JMP     FAR [BX+3456]
0736:01E1 FF28              JMP     FAR [BX+SI]
0736:01E3 FF6879            JMP     FAR [BX+SI+79]
0736:01E6 FFA87856          JMP     FAR [BX+SI+5678]
0736:01EA FF29              JMP     FAR [BX+DI]
0736:01EC FF6929            JMP     FAR [BX+DI+29]
0736:01EF FFA97856          JMP     FAR [BX+DI+5678]
0736:01F3 FF2C              JMP     FAR [SI]
0736:01F5 FF6C28            JMP     FAR [SI+28]
0736:01F8 FFAC5634          JMP     FAR [SI+3456]
0736:01FC FF2D              JMP     FAR [DI]
0736:01FE C3                RET
0736:01FF C22301            RET     0123
0736:0202 CB                RETF
0736:0203 CA4523            RETF    2345
0736:0206 CC                INT     3
0736:0207 CE                INTO
0736:0208 CD21              INT     21
0736:020A CD80              INT     80
0736:020C 8B0F              MOV     CX,[BX]
0736:020E 8B5778            MOV     DX,[BX+78]
0736:0211 8B9F5634          MOV     BX,[BX+3456]
0736:0215 8B30              MOV     SI,[BX+SI]
0736:0217 8B7879            MOV     DI,[BX+SI+79]
0736:021A 8BA87856          MOV     BP,[BX+SI+5678]
0736:021E 8B31              MOV     SI,[BX+DI]
0736:0220 8B7929            MOV     DI,[BX+DI+29]
0736:0223 8BA97856          MOV     BP,[BX+DI+5678]
0736:0227 8B24              MOV     SP,[SI]
0736:0229 8B5428            MOV     DX,[SI+28]
0736:022C 8B9C5634          MOV     BX,[SI+3456]
0736:0230 8B05              MOV     AX,[DI]
0736:0232 8B5558            MOV     DX,[DI+58]
0736:0235 8B9D5634          MOV     BX,[DI+3456]
0736:0239 8B4E00            MOV     CX,[BP+00]
0736:023C 8B5658            MOV     DX,[BP+58]
0736:023F 8B9E5634          MOV     BX,[BP+3456]
0736:0243 8B32              MOV     SI,[BP+SI]
0736:0245 8B7A39            MOV     DI,[BP+SI+39]
0736:0248 8BAA7856          MOV     BP,[BP+SI+5678]
0736:024C 8B33              MOV     SI,[BP+DI]
0736:024E 8B7B49            MOV     DI,[BP+DI+49]
0736:0251 8BAB7856          MOV     BP,[BP+DI+5678]
0736:0255 890F              MOV     [BX],CX
0736:0257 895778            MOV     [BX+78],DX
0736:025A 899F5634          MOV     [BX+3456],BX
0736:025E 8900              MOV     [BX+SI],AX
0736:0260 896069            MOV     [BX+SI+69],SP
0736:0263 89B87856          MOV     [BX+SI+5678],DI
0736:0267 8929              MOV     [BX+DI],BP
0736:0269 897149            MOV     [BX+DI+49],SI
0736:026C 89B97856          MOV     [BX+DI+5678],DI
0736:0270 8904              MOV     [SI],AX
0736:0272 894C78            MOV     [SI+78],CX
0736:0275 89945634          MOV     [SI+3456],DX
0736:0279 892D              MOV     [DI],BP
0736:027B 896578            MOV     [DI+78],SP
0736:027E 89B55634          MOV     [DI+3456],SI
0736:0282 897E00            MOV     [BP+00],DI
0736:0285 894E78            MOV     [BP+78],CX
0736:0288 89965634          MOV     [BP+3456],DX
0736:028C 8932              MOV     [BP+SI],SI
0736:028E 897A59            MOV     [BP+SI+59],DI
0736:0291 89827856          MOV     [BP+SI+5678],AX
0736:0295 893B              MOV     [BP+DI],DI
0736:0297 895B19            MOV     [BP+DI+19],BX
0736:029A 89937856          MOV     [BP+DI+5678],DX
0736:029E 8A05              MOV     AL,[DI]
0736:02A0 8A6578            MOV     AH,[DI+78]
0736:02A3 8ABD5634          MOV     BH,[DI+3456]
0736:02A7 8A4E00            MOV     CL,[BP+00]
0736:02AA 8A5678            MOV     DL,[BP+78]
0736:02AD 8A9E5634          MOV     BL,[BP+3456]
0736:02B1 8A2A              MOV     CH,[BP+SI]
0736:02B3 887578            MOV     [DI+78],DH
0736:02B6 88955634          MOV     [DI+3456],DL
0736:02BA 886E00            MOV     [BP+00],CH
0736:02BD 884E56            MOV     [BP+56],CL
0736:02C0 88BE5634          MOV     [BP+3456],BH
0736:02C4 881A              MOV     [BP+SI],BL
0736:02C6 886245            MOV     [BP+SI+45],AH
0736:02C9 88827856          MOV     [BP+SI+5678],AL
0736:02CD C6457815          MOV     BYTE PTR [DI+78],15
0736:02D1 C685563416        MOV     BYTE PTR [DI+3456],16
0736:02D6 C6460028          MOV     BYTE PTR [BP+00],28
0736:02DA C6465688          MOV     BYTE PTR [BP+56],88
0736:02DE C78656343412      MOV     WORD PTR [BP+3456],1234
0736:02E4 C7021534          MOV     WORD PTR [BP+SI],3415
0736:02E8 C742458547        MOV     WORD PTR [BP+SI+45],4785
0736:02ED C78278563615      MOV     WORD PTR [BP+SI+5678],1536
0736:02F3 B015              MOV     AL,15
0736:02F5 B416              MOV     AH,16
0736:02F7 B128              MOV     CL,28
0736:02F9 B688              MOV     DH,88
0736:02FB BB3412            MOV     BX,1234
0736:02FE BE1534            MOV     SI,3415
0736:0301 BC8547            MOV     SP,4785
0736:0304 BD3615            MOV     BP,1536
0736:0307 C7C51254          MOV     BP,5412
0736:030B A13412            MOV     AX,[1234]
0736:030E A03412            MOV     AL,[1234]
0736:0311 A31234            MOV     [3412],AX
0736:0314 A21234            MOV     [3412],AL
0736:0317 8C0F              MOV     WORD PTR [BX],CS
0736:0319 8C5778            MOV     WORD PTR [BX+78],SS
0736:031C 8C9F5634          MOV     WORD PTR [BX+3456],DS
0736:0320 8C00              MOV     WORD PTR [BX+SI],ES
0736:0322 8C4869            MOV     WORD PTR [BX+SI+69],CS
0736:0325 8E1F              MOV     DS,WORD PTR [BX]
0736:0327 8E4F78            MOV     CS,WORD PTR [BX+78]
0736:032A 8E975634          MOV     SS,WORD PTR [BX+3456]
0736:032E 8E00              MOV     ES,WORD PTR [BX+SI]
0736:0330 8E5869            MOV     DS,WORD PTR [BX+SI+69]
0736:0333 D127              SHL     WORD PTR [BX],1
0736:0335 D26778            SHL     BYTE PTR [BX+78],CL
0736:0338 D1A75634          SHL     WORD PTR [BX+3456],1
0736:033C D3E7              SHL     DI,CL
0736:033E D06069            SHL     BYTE PTR [BX+SI+69],1
0736:0341 D3A07856          SHL     WORD PTR [BX+SI+5678],CL
0736:0345 D121              SHL     WORD PTR [BX+DI],1
0736:0347 D36149            SHL     WORD PTR [BX+DI+49],CL
0736:034A D1E6              SHL     SI,1
0736:034C D224              SHL     BYTE PTR [SI],CL
0736:034E D16478            SHL     WORD PTR [SI+78],1
0736:0351 D2A45634          SHL     BYTE PTR [SI+3456],CL
0736:0355 D125              SHL     WORD PTR [DI],1
0736:0357 D26578            SHL     BYTE PTR [DI+78],CL
0736:035A D1A55634          SHL     WORD PTR [DI+3456],1
0736:035E D36600            SHL     WORD PTR [BP+00],CL
0736:0361 D16678            SHL     WORD PTR [BP+78],1
0736:0364 D2E6              SHL     DH,CL
0736:0366 D022              SHL     BYTE PTR [BP+SI],1
0736:0368 D36259            SHL     WORD PTR [BP+SI+59],CL
0736:036B D1A27856          SHL     WORD PTR [BP+SI+5678],1
0736:036F D223              SHL     BYTE PTR [BP+DI],CL
0736:0371 D16319            SHL     WORD PTR [BP+DI+19],1
0736:0374 D3A37856          SHL     WORD PTR [BP+DI+5678],CL
0736:0378 D12F              SHR     WORD PTR [BX],1
0736:037A D26F78            SHR     BYTE PTR [BX+78],CL
0736:037D D1AF5634          SHR     WORD PTR [BX+3456],1
0736:0381 D328              SHR     WORD PTR [BX+SI],CL
0736:0383 D06869            SHR     BYTE PTR [BX+SI+69],1
0736:0386 D3A87856          SHR     WORD PTR [BX+SI+5678],CL
0736:038A D129              SHR     WORD PTR [BX+DI],1
0736:038C D36949            SHR     WORD PTR [BX+DI+49],CL
0736:038F D1A97856          SHR     WORD PTR [BX+DI+5678],1
0736:0393 D22C              SHR     BYTE PTR [SI],CL
0736:0395 D16C78            SHR     WORD PTR [SI+78],1
0736:0398 D2AC5634          SHR     BYTE PTR [SI+3456],CL
0736:039C D12D              SHR     WORD PTR [DI],1
0736:039E D2E8              SHR     AL,CL
0736:03A0 D1AD5634          SHR     WORD PTR [DI+3456],1
0736:03A4 D36E00            SHR     WORD PTR [BP+00],CL
0736:03A7 D16E78            SHR     WORD PTR [BP+78],1
0736:03AA D3E9              SHR     CX,CL
0736:03AC D02A              SHR     BYTE PTR [BP+SI],1
0736:03AE D36A59            SHR     WORD PTR [BP+SI+59],CL
0736:03B1 D1AA7856          SHR     WORD PTR [BP+SI+5678],1
0736:03B5 D22B              SHR     BYTE PTR [BP+DI],CL
0736:03B7 D1ED              SHR     BP,1
0736:03B9 D3AB7856          SHR     WORD PTR [BP+DI+5678],CL
0736:03BD D107              ROL     WORD PTR [BX],1
0736:03BF D24778            ROL     BYTE PTR [BX+78],CL
0736:03C2 D1875634          ROL     WORD PTR [BX+3456],1
0736:03C6 D3C7              ROL     DI,CL
0736:03C8 D04069            ROL     BYTE PTR [BX+SI+69],1
0736:03CB D3807856          ROL     WORD PTR [BX+SI+5678],CL
0736:03CF D101              ROL     WORD PTR [BX+DI],1
0736:03D1 D34149            ROL     WORD PTR [BX+DI+49],CL
0736:03D4 D1C6              ROL     SI,1
0736:03D6 D204              ROL     BYTE PTR [SI],CL
0736:03D8 D14478            ROL     WORD PTR [SI+78],1
0736:03DB D2845634          ROL     BYTE PTR [SI+3456],CL
0736:03DF D105              ROL     WORD PTR [DI],1
0736:03E1 D24578            ROL     BYTE PTR [DI+78],CL
0736:03E4 D1855634          ROL     WORD PTR [DI+3456],1
0736:03E8 D34600            ROL     WORD PTR [BP+00],CL
0736:03EB D14678            ROL     WORD PTR [BP+78],1
0736:03EE D2C6              ROL     DH,CL
0736:03F0 D002              ROL     BYTE PTR [BP+SI],1
0736:03F2 D34259            ROL     WORD PTR [BP+SI+59],CL
0736:03F5 D1827856          ROL     WORD PTR [BP+SI+5678],1
0736:03F9 D203              ROL     BYTE PTR [BP+DI],CL
0736:03FB D14319            ROL     WORD PTR [BP+DI+19],1
0736:03FE D3837856          ROL     WORD PTR [BP+DI+5678],CL
0736:0402 D10F              ROR     WORD PTR [BX],1
0736:0404 D24F78            ROR     BYTE PTR [BX+78],CL
0736:0407 D18F5634          ROR     WORD PTR [BX+3456],1
0736:040B D3CF              ROR     DI,CL
0736:040D D04869            ROR     BYTE PTR [BX+SI+69],1
0736:0410 D3887856          ROR     WORD PTR [BX+SI+5678],CL
0736:0414 D109              ROR     WORD PTR [BX+DI],1
0736:0416 D34949            ROR     WORD PTR [BX+DI+49],CL
0736:0419 D1CE              ROR     SI,1
0736:041B D20C              ROR     BYTE PTR [SI],CL
0736:041D D14C78            ROR     WORD PTR [SI+78],1
0736:0420 D28C5634          ROR     BYTE PTR [SI+3456],CL
0736:0424 D10D              ROR     WORD PTR [DI],1
0736:0426 D24D78            ROR     BYTE PTR [DI+78],CL
0736:0429 D18D5634          ROR     WORD PTR [DI+3456],1
0736:042D D34E00            ROR     WORD PTR [BP+00],CL
0736:0430 D14E78            ROR     WORD PTR [BP+78],1
0736:0433 D2CE              ROR     DH,CL
0736:0435 D00A              ROR     BYTE PTR [BP+SI],1
0736:0437 D34A59            ROR     WORD PTR [BP+SI+59],CL
0736:043A D18A7856          ROR     WORD PTR [BP+SI+5678],1
0736:043E D20B              ROR     BYTE PTR [BP+DI],CL
0736:0440 D14B19            ROR     WORD PTR [BP+DI+19],1
0736:0443 D38B7856          ROR     WORD PTR [BP+DI+5678],CL
0736:0447 D11F              RCR     WORD PTR [BX],1
0736:0449 D25F78            RCR     BYTE PTR [BX+78],CL
0736:044C D19F5634          RCR     WORD PTR [BX+3456],1
0736:0450 D3DF              RCR     DI,CL
0736:0452 D05869            RCR     BYTE PTR [BX+SI+69],1
0736:0455 D3987856          RCR     WORD PTR [BX+SI+5678],CL
0736:0459 D119              RCR     WORD PTR [BX+DI],1
0736:045B D35949            RCR     WORD PTR [BX+DI+49],CL
0736:045E D1DE              RCR     SI,1
0736:0460 D21C              RCR     BYTE PTR [SI],CL
0736:0462 D15C78            RCR     WORD PTR [SI+78],1
0736:0465 D29C5634          RCR     BYTE PTR [SI+3456],CL
0736:0469 D11D              RCR     WORD PTR [DI],1
0736:046B D25D78            RCR     BYTE PTR [DI+78],CL
0736:046E D19D5634          RCR     WORD PTR [DI+3456],1
0736:0472 D35E00            RCR     WORD PTR [BP+00],CL
0736:0475 D15E78            RCR     WORD PTR [BP+78],1
0736:0478 D2DE              RCR     DH,CL
0736:047A D01A              RCR     BYTE PTR [BP+SI],1
0736:047C D35A59            RCR     WORD PTR [BP+SI+59],CL
0736:047F D19A7856          RCR     WORD PTR [BP+SI+5678],1
0736:0483 D21B              RCR     BYTE PTR [BP+DI],CL
0736:0485 D15B19            RCR     WORD PTR [BP+DI+19],1
0736:0488 D39B7856          RCR     WORD PTR [BP+DI+5678],CL
0736:048C D117              RCL     WORD PTR [BX],1
0736:048E D25778            RCL     BYTE PTR [BX+78],CL
0736:0491 D1975634          RCL     WORD PTR [BX+3456],1
0736:0495 D3D7              RCL     DI,CL
0736:0497 D05069            RCL     BYTE PTR [BX+SI+69],1
0736:049A D3907856          RCL     WORD PTR [BX+SI+5678],CL
0736:049E D111              RCL     WORD PTR [BX+DI],1
0736:04A0 D35149            RCL     WORD PTR [BX+DI+49],CL
0736:04A3 D1D6              RCL     SI,1
0736:04A5 D214              RCL     BYTE PTR [SI],CL
0736:04A7 D15478            RCL     WORD PTR [SI+78],1
0736:04AA D2945634          RCL     BYTE PTR [SI+3456],CL
0736:04AE D115              RCL     WORD PTR [DI],1
0736:04B0 D25578            RCL     BYTE PTR [DI+78],CL
0736:04B3 D1955634          RCL     WORD PTR [DI+3456],1
0736:04B7 D35600            RCL     WORD PTR [BP+00],CL
0736:04BA D15678            RCL     WORD PTR [BP+78],1
0736:04BD D2D6              RCL     DH,CL
0736:04BF D012              RCL     BYTE PTR [BP+SI],1
0736:04C1 D35259            RCL     WORD PTR [BP+SI+59],CL
0736:04C4 D1927856          RCL     WORD PTR [BP+SI+5678],1
0736:04C8 D213              RCL     BYTE PTR [BP+DI],CL
0736:04CA D15319            RCL     WORD PTR [BP+DI+19],1
0736:04CD D3937856          RCL     WORD PTR [BP+DI+5678],CL
0736:04D1 F7D5              NOT     BP
0736:04D3 F75658            NOT     WORD PTR [BP+58]
0736:04D6 F7965634          NOT     WORD PTR [BP+3456]
0736:04DA F7D1              NOT     CX
0736:04DC F75239            NOT     WORD PTR [BP+SI+39]
0736:04DF F7927856          NOT     WORD PTR [BP+SI+5678]
0736:04E3 F7D2              NOT     DX
0736:04E5 F75349            NOT     WORD PTR [BP+DI+49]
0736:04E8 F7D6              NOT     SI
0736:04EA F65578            NOT     BYTE PTR [DI+78]
0736:04ED F6955634          NOT     BYTE PTR [DI+3456]
0736:04F1 F6D6              NOT     DH
0736:04F3 F65678            NOT     BYTE PTR [BP+78]
0736:04F6 F6965634          NOT     BYTE PTR [BP+3456]
0736:04FA F6D4              NOT     AH
0736:04FC F6D3              NOT     BL
0736:04FE F6955634          NOT     BYTE PTR [DI+3456]
0736:0502 230F              AND     CX,[BX]
0736:0504 235778            AND     DX,[BX+78]
0736:0507 239F5634          AND     BX,[BX+3456]
0736:050B 2330              AND     SI,[BX+SI]
0736:050D 237879            AND     DI,[BX+SI+79]
0736:0510 23A87856          AND     BP,[BX+SI+5678]
0736:0514 2331              AND     SI,[BX+DI]
0736:0516 237929            AND     DI,[BX+DI+29]
0736:0519 23A97856          AND     BP,[BX+DI+5678]
0736:051D 2324              AND     SP,[SI]
0736:051F 235428            AND     DX,[SI+28]
0736:0522 239C5634          AND     BX,[SI+3456]
0736:0526 2305              AND     AX,[DI]
0736:0528 235558            AND     DX,[DI+58]
0736:052B 239D5634          AND     BX,[DI+3456]
0736:052F 234E00            AND     CX,[BP+00]
0736:0532 235658            AND     DX,[BP+58]
0736:0535 239E5634          AND     BX,[BP+3456]
0736:0539 2332              AND     SI,[BP+SI]
0736:053B 237A39            AND     DI,[BP+SI+39]
0736:053E 23AA7856          AND     BP,[BP+SI+5678]
0736:0542 2333              AND     SI,[BP+DI]
0736:0544 237B49            AND     DI,[BP+DI+49]
0736:0547 23AB7856          AND     BP,[BP+DI+5678]
0736:054B 210F              AND     [BX],CX
0736:054D 215778            AND     [BX+78],DX
0736:0550 219F5634          AND     [BX+3456],BX
0736:0554 2100              AND     [BX+SI],AX
0736:0556 216069            AND     [BX+SI+69],SP
0736:0559 21B87856          AND     [BX+SI+5678],DI
0736:055D 2129              AND     [BX+DI],BP
0736:055F 217149            AND     [BX+DI+49],SI
0736:0562 21B97856          AND     [BX+DI+5678],DI
0736:0566 2104              AND     [SI],AX
0736:0568 214C78            AND     [SI+78],CX
0736:056B 21945634          AND     [SI+3456],DX
0736:056F 212D              AND     [DI],BP
0736:0571 216578            AND     [DI+78],SP
0736:0574 21B55634          AND     [DI+3456],SI
0736:0578 217E00            AND     [BP+00],DI
0736:057B 214E78            AND     [BP+78],CX
0736:057E 21965634          AND     [BP+3456],DX
0736:0582 2132              AND     [BP+SI],SI
0736:0584 217A59            AND     [BP+SI+59],DI
0736:0587 21827856          AND     [BP+SI+5678],AX
0736:058B 213B              AND     [BP+DI],DI
0736:058D 215B19            AND     [BP+DI+19],BX
0736:0590 21937856          AND     [BP+DI+5678],DX
0736:0594 2205              AND     AL,[DI]
0736:0596 226578            AND     AH,[DI+78]
0736:0599 22BD5634          AND     BH,[DI+3456]
0736:059D 224E00            AND     CL,[BP+00]
0736:05A0 225678            AND     DL,[BP+78]
0736:05A3 229E5634          AND     BL,[BP+3456]
0736:05A7 222A              AND     CH,[BP+SI]
0736:05A9 207578            AND     [DI+78],DH
0736:05AC 20955634          AND     [DI+3456],DL
0736:05B0 206E00            AND     [BP+00],CH
0736:05B3 204E56            AND     [BP+56],CL
0736:05B6 20BE5634          AND     [BP+3456],BH
0736:05BA 201A              AND     [BP+SI],BL
0736:05BC 206245            AND     [BP+SI+45],AH
0736:05BF 20827856          AND     [BP+SI+5678],AL
0736:05C3 80657815          AND     BYTE PTR [DI+78],15
0736:05C7 80A5563416        AND     BYTE PTR [DI+3456],16
0736:05CC 80660028          AND     BYTE PTR [BP+00],28
0736:05D0 80665688          AND     BYTE PTR [BP+56],88
0736:05D4 81A656343412      AND     WORD PTR [BP+3456],1234
0736:05DA 81221534          AND     WORD PTR [BP+SI],3415
0736:05DE 8162458547        AND     WORD PTR [BP+SI+45],4785
0736:05E3 81A278563615      AND     WORD PTR [BP+SI+5678],1536
0736:05E9 80E115            AND     CL,15
0736:05EC 80E516            AND     CH,16
0736:05EF 80E228            AND     DL,28
0736:05F2 80E488            AND     AH,88
0736:05F5 81E33412          AND     BX,1234
0736:05F9 81E71534          AND     DI,3415
0736:05FD 81E48547          AND     SP,4785
0736:0601 81E53615          AND     BP,1536
0736:0605 2415              AND     AL,15
0736:0607 251516            AND     AX,1615
0736:060A 850F              TEST    [BX],CX
0736:060C 855778            TEST    [BX+78],DX
0736:060F 859F5634          TEST    [BX+3456],BX
0736:0613 8530              TEST    [BX+SI],SI
0736:0615 857879            TEST    [BX+SI+79],DI
0736:0618 85A87856          TEST    [BX+SI+5678],BP
0736:061C 8531              TEST    [BX+DI],SI
0736:061E 857929            TEST    [BX+DI+29],DI
0736:0621 85A97856          TEST    [BX+DI+5678],BP
0736:0625 8524              TEST    [SI],SP
0736:0627 855428            TEST    [SI+28],DX
0736:062A 859C5634          TEST    [SI+3456],BX
0736:062E 8505              TEST    [DI],AX
0736:0630 855558            TEST    [DI+58],DX
0736:0633 859D5634          TEST    [DI+3456],BX
0736:0637 854E00            TEST    [BP+00],CX
0736:063A 855658            TEST    [BP+58],DX
0736:063D 859E5634          TEST    [BP+3456],BX
0736:0641 8532              TEST    [BP+SI],SI
0736:0643 857A39            TEST    [BP+SI+39],DI
0736:0646 85AA7856          TEST    [BP+SI+5678],BP
0736:064A 8533              TEST    [BP+DI],SI
0736:064C 857B49            TEST    [BP+DI+49],DI
0736:064F 85AB7856          TEST    [BP+DI+5678],BP
0736:0653 850F              TEST    [BX],CX
0736:0655 855778            TEST    [BX+78],DX
0736:0658 859F5634          TEST    [BX+3456],BX
0736:065C 8500              TEST    [BX+SI],AX
0736:065E 856069            TEST    [BX+SI+69],SP
0736:0661 85B87856          TEST    [BX+SI+5678],DI
0736:0665 8529              TEST    [BX+DI],BP
0736:0667 857149            TEST    [BX+DI+49],SI
0736:066A 85B97856          TEST    [BX+DI+5678],DI
0736:066E 8504              TEST    [SI],AX
0736:0670 854C78            TEST    [SI+78],CX
0736:0673 85945634          TEST    [SI+3456],DX
0736:0677 852D              TEST    [DI],BP
0736:0679 856578            TEST    [DI+78],SP
0736:067C 85B55634          TEST    [DI+3456],SI
0736:0680 857E00            TEST    [BP+00],DI
0736:0683 854E78            TEST    [BP+78],CX
0736:0686 85965634          TEST    [BP+3456],DX
0736:068A 8532              TEST    [BP+SI],SI
0736:068C 857A59            TEST    [BP+SI+59],DI
0736:068F 85827856          TEST    [BP+SI+5678],AX
0736:0693 853B              TEST    [BP+DI],DI
0736:0695 855B19            TEST    [BP+DI+19],BX
0736:0698 85937856          TEST    [BP+DI+5678],DX
0736:069C 8405              TEST    [DI],AL
0736:069E 846578            TEST    [DI+78],AH
0736:06A1 84BD5634          TEST    [DI+3456],BH
0736:06A5 844E00            TEST    [BP+00],CL
0736:06A8 845678            TEST    [BP+78],DL
0736:06AB 849E5634          TEST    [BP+3456],BL
0736:06AF 842A              TEST    [BP+SI],CH
0736:06B1 847578            TEST    [DI+78],DH
0736:06B4 84955634          TEST    [DI+3456],DL
0736:06B8 846E00            TEST    [BP+00],CH
0736:06BB 844E56            TEST    [BP+56],CL
0736:06BE 84BE5634          TEST    [BP+3456],BH
0736:06C2 841A              TEST    [BP+SI],BL
0736:06C4 846245            TEST    [BP+SI+45],AH
0736:06C7 84827856          TEST    [BP+SI+5678],AL
0736:06CB F6457815          TEST    BYTE PTR [DI+78],15
0736:06CF F685563416        TEST    BYTE PTR [DI+3456],16
0736:06D4 F6460028          TEST    BYTE PTR [BP+00],28
0736:06D8 F6465688          TEST    BYTE PTR [BP+56],88
0736:06DC F78656343412      TEST    WORD PTR [BP+3456],1234
0736:06E2 F7021534          TEST    WORD PTR [BP+SI],3415
0736:06E6 F742458547        TEST    WORD PTR [BP+SI+45],4785
0736:06EB F78278563615      TEST    WORD PTR [BP+SI+5678],1536
0736:06F1 F6C115            TEST    CL,15
0736:06F4 F6C516            TEST    CH,16
0736:06F7 F6C228            TEST    DL,28
0736:06FA F6C488            TEST    AH,88
0736:06FD F7C33412          TEST    BX,1234
0736:0701 F7C71534          TEST    DI,3415
0736:0705 F7C48547          TEST    SP,4785
0736:0709 F7C53615          TEST    BP,1536
0736:070D A815              TEST    AL,15
0736:070F A91516            TEST    AX,1615
0736:0712 0B0F              OR      CX,[BX]
0736:0714 0B5778            OR      DX,[BX+78]
0736:0717 0B9F5634          OR      BX,[BX+3456]
0736:071B 0B30              OR      SI,[BX+SI]
0736:071D 0B7879            OR      DI,[BX+SI+79]
0736:0720 0BA87856          OR      BP,[BX+SI+5678]
0736:0724 0B31              OR      SI,[BX+DI]
0736:0726 0B7929            OR      DI,[BX+DI+29]
0736:0729 0BA97856          OR      BP,[BX+DI+5678]
0736:072D 0B24              OR      SP,[SI]
0736:072F 0B5428            OR      DX,[SI+28]
0736:0732 0B9C5634          OR      BX,[SI+3456]
0736:0736 0B05              OR      AX,[DI]
0736:0738 0B5558            OR      DX,[DI+58]
0736:073B 0B9D5634          OR      BX,[DI+3456]
0736:073F 0B4E00            OR      CX,[BP+00]
0736:0742 0B5658            OR      DX,[BP+58]
0736:0745 0B9E5634          OR      BX,[BP+3456]
0736:0749 0B32              OR      SI,[BP+SI]
0736:074B 0B7A39            OR      DI,[BP+SI+39]
0736:074E 0BAA7856          OR      BP,[BP+SI+5678]
0736:0752 0B33              OR      SI,[BP+DI]
0736:0754 0B7B49            OR      DI,[BP+DI+49]
0736:0757 0BAB7856          OR      BP,[BP+DI+5678]
0736:075B 090F              OR      [BX],CX
0736:075D 095778            OR      [BX+78],DX
0736:0760 099F5634          OR      [BX+3456],BX
0736:0764 0900              OR      [BX+SI],AX
0736:0766 096069            OR      [BX+SI+69],SP
0736:0769 09B87856          OR      [BX+SI+5678],DI
0736:076D 0929              OR      [BX+DI],BP
0736:076F 097149            OR      [BX+DI+49],SI
0736:0772 09B97856          OR      [BX+DI+5678],DI
0736:0776 0904              OR      [SI],AX
0736:0778 094C78            OR      [SI+78],CX
0736:077B 09945634          OR      [SI+3456],DX
0736:077F 092D              OR      [DI],BP
0736:0781 096578            OR      [DI+78],SP
0736:0784 09B55634          OR      [DI+3456],SI
0736:0788 097E00            OR      [BP+00],DI
0736:078B 094E78            OR      [BP+78],CX
0736:078E 09965634          OR      [BP+3456],DX
0736:0792 0932              OR      [BP+SI],SI
0736:0794 097A59            OR      [BP+SI+59],DI
0736:0797 09827856          OR      [BP+SI+5678],AX
0736:079B 093B              OR      [BP+DI],DI
0736:079D 095B19            OR      [BP+DI+19],BX
0736:07A0 09937856          OR      [BP+DI+5678],DX
0736:07A4 0A05              OR      AL,[DI]
0736:07A6 0A6578            OR      AH,[DI+78]
0736:07A9 0ABD5634          OR      BH,[DI+3456]
0736:07AD 0A4E00            OR      CL,[BP+00]
0736:07B0 0A5678            OR      DL,[BP+78]
0736:07B3 0A9E5634          OR      BL,[BP+3456]
0736:07B7 0A2A              OR      CH,[BP+SI]
0736:07B9 087578            OR      [DI+78],DH
0736:07BC 08955634          OR      [DI+3456],DL
0736:07C0 086E00            OR      [BP+00],CH
0736:07C3 084E56            OR      [BP+56],CL
0736:07C6 08BE5634          OR      [BP+3456],BH
0736:07CA 081A              OR      [BP+SI],BL
0736:07CC 086245            OR      [BP+SI+45],AH
0736:07CF 08827856          OR      [BP+SI+5678],AL
0736:07D3 804D7815          OR      BYTE PTR [DI+78],15
0736:07D7 808D563416        OR      BYTE PTR [DI+3456],16
0736:07DC 804E0028          OR      BYTE PTR [BP+00],28
0736:07E0 804E5688          OR      BYTE PTR [BP+56],88
0736:07E4 818E56343412      OR      WORD PTR [BP+3456],1234
0736:07EA 810A1534          OR      WORD PTR [BP+SI],3415
0736:07EE 814A458547        OR      WORD PTR [BP+SI+45],4785
0736:07F3 818A78563615      OR      WORD PTR [BP+SI+5678],1536
0736:07F9 80C915            OR      CL,15
0736:07FC 80CD16            OR      CH,16
0736:07FF 80CA28            OR      DL,28
0736:0802 80CC88            OR      AH,88
0736:0805 81CB3412          OR      BX,1234
0736:0809 81CF1534          OR      DI,3415
0736:080D 81CC8547          OR      SP,4785
0736:0811 81CD3615          OR      BP,1536
0736:0815 0C15              OR      AL,15
0736:0817 0D1716            OR      AX,1617
0736:081A 330F              XOR     CX,[BX]
0736:081C 335778            XOR     DX,[BX+78]
0736:081F 339F5634          XOR     BX,[BX+3456]
0736:0823 3330              XOR     SI,[BX+SI]
0736:0825 337879            XOR     DI,[BX+SI+79]
0736:0828 33A87856          XOR     BP,[BX+SI+5678]
0736:082C 3331              XOR     SI,[BX+DI]
0736:082E 337929            XOR     DI,[BX+DI+29]
0736:0831 33A97856          XOR     BP,[BX+DI+5678]
0736:0835 3324              XOR     SP,[SI]
0736:0837 335428            XOR     DX,[SI+28]
0736:083A 339C5634          XOR     BX,[SI+3456]
0736:083E 3305              XOR     AX,[DI]
0736:0840 335558            XOR     DX,[DI+58]
0736:0843 339D5634          XOR     BX,[DI+3456]
0736:0847 334E00            XOR     CX,[BP+00]
0736:084A 335658            XOR     DX,[BP+58]
0736:084D 339E5634          XOR     BX,[BP+3456]
0736:0851 3332              XOR     SI,[BP+SI]
0736:0853 337A39            XOR     DI,[BP+SI+39]
0736:0856 33AA7856          XOR     BP,[BP+SI+5678]
0736:085A 3333              XOR     SI,[BP+DI]
0736:085C 337B49            XOR     DI,[BP+DI+49]
0736:085F 33AB7856          XOR     BP,[BP+DI+5678]
0736:0863 310F              XOR     [BX],CX
0736:0865 315778            XOR     [BX+78],DX
0736:0868 319F5634          XOR     [BX+3456],BX
0736:086C 3100              XOR     [BX+SI],AX
0736:086E 316069            XOR     [BX+SI+69],SP
0736:0871 31B87856          XOR     [BX+SI+5678],DI
0736:0875 3129              XOR     [BX+DI],BP
0736:0877 317149            XOR     [BX+DI+49],SI
0736:087A 31B97856          XOR     [BX+DI+5678],DI
0736:087E 3104              XOR     [SI],AX
0736:0880 314C78            XOR     [SI+78],CX
0736:0883 31945634          XOR     [SI+3456],DX
0736:0887 312D              XOR     [DI],BP
0736:0889 316578            XOR     [DI+78],SP
0736:088C 31B55634          XOR     [DI+3456],SI
0736:0890 317E00            XOR     [BP+00],DI
0736:0893 314E78            XOR     [BP+78],CX
0736:0896 31965634          XOR     [BP+3456],DX
0736:089A 3132              XOR     [BP+SI],SI
0736:089C 317A59            XOR     [BP+SI+59],DI
0736:089F 31827856          XOR     [BP+SI+5678],AX
0736:08A3 313B              XOR     [BP+DI],DI
0736:08A5 315B19            XOR     [BP+DI+19],BX
0736:08A8 31937856          XOR     [BP+DI+5678],DX
0736:08AC 3205              XOR     AL,[DI]
0736:08AE 326578            XOR     AH,[DI+78]
0736:08B1 32BD5634          XOR     BH,[DI+3456]
0736:08B5 324E00            XOR     CL,[BP+00]
0736:08B8 325678            XOR     DL,[BP+78]
0736:08BB 329E5634          XOR     BL,[BP+3456]
0736:08BF 322A              XOR     CH,[BP+SI]
0736:08C1 307578            XOR     [DI+78],DH
0736:08C4 30955634          XOR     [DI+3456],DL
0736:08C8 306E00            XOR     [BP+00],CH
0736:08CB 304E56            XOR     [BP+56],CL
0736:08CE 30BE5634          XOR     [BP+3456],BH
0736:08D2 301A              XOR     [BP+SI],BL
0736:08D4 306245            XOR     [BP+SI+45],AH
0736:08D7 30827856          XOR     [BP+SI+5678],AL
0736:08DB 80757815          XOR     BYTE PTR [DI+78],15
0736:08DF 80B5563416        XOR     BYTE PTR [DI+3456],16
0736:08E4 80760028          XOR     BYTE PTR [BP+00],28
0736:08E8 80765688          XOR     BYTE PTR [BP+56],88
0736:08EC 81B656343412      XOR     WORD PTR [BP+3456],1234
0736:08F2 81321534          XOR     WORD PTR [BP+SI],3415
0736:08F6 8172458547        XOR     WORD PTR [BP+SI+45],4785
0736:08FB 81B278563615      XOR     WORD PTR [BP+SI+5678],1536
0736:0901 80F115            XOR     CL,15
0736:0904 80F516            XOR     CH,16
0736:0907 80F228            XOR     DL,28
0736:090A 80F488            XOR     AH,88
0736:090D 81F33412          XOR     BX,1234
0736:0911 81F71534          XOR     DI,3415
0736:0915 81F48547          XOR     SP,4785
0736:0919 81F53615          XOR     BP,1536
0736:091D 3418              XOR     AL,18
0736:091F 357756            XOR     AX,5677
0736:0922 AC                LODSB
0736:0923 AD                LODSW
0736:0924 A4                MOVSB
0736:0925 A5                MOVSW
0736:0926 A6                CMPSB
0736:0927 A7                CMPSW
0736:0928 AE                SCASB
0736:0929 AF                SCASW
0736:092A AA                STOSB
0736:092B AB                STOSW
0736:092C F3A6              REPE    CMPSB
0736:092E F2A6              REPNE   CMPSB
0736:0930 F8                CLC
0736:0931 F5                CMC
0736:0932 F9                STC
0736:0933 FC                CLD
0736:0934 FD                STD
0736:0935 FA                CLI
0736:0936 FB                STI
0736:0937 F4                HLT
0736:0938 9B                WAIT    (unused)
0736:0939 F0                LOCK    (unused)
0736:093A D9D0              FNOP
0736:093C D904              FLD     FLOAT PTR [SI]
0736:093E DD00              FLD     DOUBLE PTR [BX+SI]
0736:0940 DF05              FILD    WORD PTR [DI]
0736:0942 DF6712            FBLD    TBYTE PTR [BX+12]
0736:0945 D9CB              FXCH    ST(3)
0736:0947 D9E4              FTST
0736:0949 DF1E6745          FISTP   WORD PTR [4567]
0736:094D D9FA              FSQRT
0736:094F D9F3              FPATAN
0736:0951 9BD92F            FLDCW   WORD PTR [BX]
0736:0954 FF37              PUSH    WORD PTR [BX]
0736:0956 FF7778            PUSH    WORD PTR [BX+78]
0736:0959 FFB75634          PUSH    WORD PTR [BX+3456]
0736:095D FF30              PUSH    WORD PTR [BX+SI]
0736:095F FF7079            PUSH    WORD PTR [BX+SI+79]
0736:0962 FFB07856          PUSH    WORD PTR [BX+SI+5678]
0736:0966 FF31              PUSH    WORD PTR [BX+DI]
0736:0968 FF35              PUSH    WORD PTR [DI]
0736:096A FF7558            PUSH    WORD PTR [DI+58]
0736:096D FFB55634          PUSH    WORD PTR [DI+3456]
0736:0971 FF7600            PUSH    WORD PTR [BP+00]
0736:0974 FF7658            PUSH    WORD PTR [BP+58]
0736:0977 FFB65634          PUSH    WORD PTR [BP+3456]
0736:097B FFB37856          PUSH    WORD PTR [BP+DI+5678]
0736:097F 1E                PUSH    DS
0736:0980 0E                PUSH    CS
0736:0981 16                PUSH    SS
0736:0982 06                PUSH    ES
0736:0983 8F07              POP     WORD PTR [BX]
0736:0985 8F4778            POP     WORD PTR [BX+78]
0736:0988 8F875634          POP     WORD PTR [BX+3456]
0736:098C 8F00              POP     WORD PTR [BX+SI]
0736:098E 8F4079            POP     WORD PTR [BX+SI+79]
0736:0991 8F807856          POP     WORD PTR [BX+SI+5678]
0736:0995 8F01              POP     WORD PTR [BX+DI]
0736:0997 8F05              POP     WORD PTR [DI]
0736:0999 8F4558            POP     WORD PTR [DI+58]
0736:099C 8F855634          POP     WORD PTR [DI+3456]
0736:09A0 8F4600            POP     WORD PTR [BP+00]
0736:09A3 8F4658            POP     WORD PTR [BP+58]
0736:09A6 8F865634          POP     WORD PTR [BP+3456]
0736:09AA 8F837856          POP     WORD PTR [BP+DI+5678]
0736:09AE 1F                POP     DS
0736:09AF 0F                DB      0F
0736:09B0 17                POP     SS
0736:09B1 07                POP     ES
0736:09B2 50                PUSH    AX
0736:09B3 51                PUSH    CX
0736:09B4 52                PUSH    DX
0736:09B5 53                PUSH    BX
0736:09B6 54                PUSH    SP
0736:09B7 55                PUSH    BP
0736:09B8 56                PUSH    SI
0736:09B9 57                PUSH    DI
0736:09BA 58                POP     AX
0736:09BB 59                POP     CX
0736:09BC 5A                POP     DX
0736:09BD 5B                POP     BX
0736:09BE 5C                POP     SP
0736:09BF 5D                POP     BP
0736:09C0 5E                POP     SI
0736:09C1 5F                POP     DI
0736:09C2 86E0              XCHG    AH,AL
0736:09C4 86E1              XCHG    AH,CL
0736:09C6 86D8              XCHG    BL,AL
0736:09C8 86EA              XCHG    CH,DL
0736:09CA 86FE              XCHG    BH,DH
0736:09CC 87CB              XCHG    CX,BX
0736:09CE 87DB              XCHG    BX,BX
0736:09D0 87CA              XCHG    CX,DX
0736:09D2 87D9              XCHG    BX,CX
0736:09D4 87EC              XCHG    BP,SP
0736:09D6 87FE              XCHG    DI,SI
0736:09D8 87F9              XCHG    DI,CX
0736:09DA 87F7              XCHG    SI,DI
0736:09DC 87CD              XCHG    CX,BP
0736:09DE 87EA              XCHG    BP,DX
0736:09E0 8607              XCHG    AL,[BX]
0736:09E2 864E00            XCHG    CL,[BP+00]
0736:09E5 8600              XCHG    AL,[BX+SI]
0736:09E7 86964523          XCHG    DL,[BP+2345]
0736:09EB 86B45423          XCHG    DH,[SI+2354]
0736:09EF 8737              XCHG    SI,[BX]
0736:09F1 870B              XCHG    CX,[BP+DI]
0736:09F3 874015            XCHG    AX,[BX+SI+15]
0736:09F6 87AB4523          XCHG    BP,[BP+DI+2345]
0736:09FA 87945423          XCHG    DX,[SI+2354]
0736:09FE 90                NOP
0736:09FF 91                XCHG    AX,CX
0736:0A00 92                XCHG    AX,DX
0736:0A01 93                XCHG    AX,BX
0736:0A02 94                XCHG    AX,SP
0736:0A03 95                XCHG    AX,BP
0736:0A04 96                XCHG    AX,SI
0736:0A05 97                XCHG    AX,DI
0736:0A06 E412              IN      AL,12
0736:0A08 E515              IN      AX,15
0736:0A0A EC                IN      AL,DX
0736:0A0B ED                IN      AX,DX
0736:0A0C E617              OUT     17,AL
0736:0A0E E745              OUT     45,AX
0736:0A10 EE                OUT     DX,AL
0736:0A11 EF                OUT     DX,AX
0736:0A12 D7                XLATB
0736:0A13 8D985423          LEA     BX,[BX+SI+2354]
0736:0A17 8D4A54            LEA     CX,[BP+SI+54]
0736:0A1A 8D5600            LEA     DX,[BP+00]
0736:0A1D 8D3E1200          LEA     DI,[0012]
0736:0A21 C4985423          LES     BX,[BX+SI+2354]
0736:0A25 C54A54            LDS     CX,[BP+SI+54]
0736:0A28 C45600            LES     DX,[BP+00]
0736:0A2B 9F                LAHF
0736:0A2C 9E                SAHF
0736:0A2D 9C                PUSHF
0736:0A2E 9D                POPF
0736:0A2F 030F              ADD     CX,[BX]
0736:0A31 035778            ADD     DX,[BX+78]
0736:0A34 039F5634          ADD     BX,[BX+3456]
0736:0A38 0330              ADD     SI,[BX+SI]
0736:0A3A 037879            ADD     DI,[BX+SI+79]
0736:0A3D 03A87856          ADD     BP,[BX+SI+5678]
0736:0A41 0331              ADD     SI,[BX+DI]
0736:0A43 037929            ADD     DI,[BX+DI+29]
0736:0A46 03A97856          ADD     BP,[BX+DI+5678]
0736:0A4A 0324              ADD     SP,[SI]
0736:0A4C 035428            ADD     DX,[SI+28]
0736:0A4F 039C5634          ADD     BX,[SI+3456]
0736:0A53 0305              ADD     AX,[DI]
0736:0A55 035558            ADD     DX,[DI+58]
0736:0A58 039D5634          ADD     BX,[DI+3456]
0736:0A5C 034E00            ADD     CX,[BP+00]
0736:0A5F 035658            ADD     DX,[BP+58]
0736:0A62 039E5634          ADD     BX,[BP+3456]
0736:0A66 0332              ADD     SI,[BP+SI]
0736:0A68 037A39            ADD     DI,[BP+SI+39]
0736:0A6B 03AA7856          ADD     BP,[BP+SI+5678]
0736:0A6F 0333              ADD     SI,[BP+DI]
0736:0A71 037B49            ADD     DI,[BP+DI+49]
0736:0A74 03AB7856          ADD     BP,[BP+DI+5678]
0736:0A78 010F              ADD     [BX],CX
0736:0A7A 015778            ADD     [BX+78],DX
0736:0A7D 019F5634          ADD     [BX+3456],BX
0736:0A81 0100              ADD     [BX+SI],AX
0736:0A83 016069            ADD     [BX+SI+69],SP
0736:0A86 01B87856          ADD     [BX+SI+5678],DI
0736:0A8A 0129              ADD     [BX+DI],BP
0736:0A8C 017149            ADD     [BX+DI+49],SI
0736:0A8F 01B97856          ADD     [BX+DI+5678],DI
0736:0A93 0104              ADD     [SI],AX
0736:0A95 014C78            ADD     [SI+78],CX
0736:0A98 01945634          ADD     [SI+3456],DX
0736:0A9C 012D              ADD     [DI],BP
0736:0A9E 016578            ADD     [DI+78],SP
0736:0AA1 01B55634          ADD     [DI+3456],SI
0736:0AA5 017E00            ADD     [BP+00],DI
0736:0AA8 014E78            ADD     [BP+78],CX
0736:0AAB 01965634          ADD     [BP+3456],DX
0736:0AAF 0132              ADD     [BP+SI],SI
0736:0AB1 017A59            ADD     [BP+SI+59],DI
0736:0AB4 01827856          ADD     [BP+SI+5678],AX
0736:0AB8 013B              ADD     [BP+DI],DI
0736:0ABA 015B19            ADD     [BP+DI+19],BX
0736:0ABD 01937856          ADD     [BP+DI+5678],DX
0736:0AC1 0205              ADD     AL,[DI]
0736:0AC3 026578            ADD     AH,[DI+78]
0736:0AC6 02BD5634          ADD     BH,[DI+3456]
0736:0ACA 024E00            ADD     CL,[BP+00]
0736:0ACD 025678            ADD     DL,[BP+78]
0736:0AD0 029E5634          ADD     BL,[BP+3456]
0736:0AD4 022A              ADD     CH,[BP+SI]
0736:0AD6 007578            ADD     [DI+78],DH
0736:0AD9 00955634          ADD     [DI+3456],DL
0736:0ADD 006E00            ADD     [BP+00],CH
0736:0AE0 004E56            ADD     [BP+56],CL
0736:0AE3 00BE5634          ADD     [BP+3456],BH
0736:0AE7 001A              ADD     [BP+SI],BL
0736:0AE9 006245            ADD     [BP+SI+45],AH
0736:0AEC 00827856          ADD     [BP+SI+5678],AL
0736:0AF0 80457815          ADD     BYTE PTR [DI+78],15
0736:0AF4 8085563416        ADD     BYTE PTR [DI+3456],16
0736:0AF9 80460028          ADD     BYTE PTR [BP+00],28
0736:0AFD 80465688          ADD     BYTE PTR [BP+56],88
0736:0B01 818656343412      ADD     WORD PTR [BP+3456],1234
0736:0B07 81021534          ADD     WORD PTR [BP+SI],3415
0736:0B0B 8142458547        ADD     WORD PTR [BP+SI+45],4785
0736:0B10 818278563615      ADD     WORD PTR [BP+SI+5678],1536
0736:0B16 8386563412        ADD     WORD PTR [BP+3456],+12
0736:0B1B 830235            ADD     WORD PTR [BP+SI],+35
0736:0B1E 83424545          ADD     WORD PTR [BP+SI+45],+45
0736:0B22 8382785616        ADD     WORD PTR [BP+SI+5678],+16
0736:0B27 80C115            ADD     CL,15
0736:0B2A 80C516            ADD     CH,16
0736:0B2D 80C228            ADD     DL,28
0736:0B30 80C488            ADD     AH,88
0736:0B33 81C33412          ADD     BX,1234
0736:0B37 81C71534          ADD     DI,3415
0736:0B3B 81C48547          ADD     SP,4785
0736:0B3F 81C53615          ADD     BP,1536
0736:0B43 83C314            ADD     BX,+14
0736:0B46 83C635            ADD     SI,+35
0736:0B49 83C465            ADD     SP,+65
0736:0B4C 83C516            ADD     BP,+16
0736:0B4F 0417              ADD     AL,17
0736:0B51 051752            ADD     AX,5217
0736:0B54 130F              ADC     CX,[BX]
0736:0B56 135778            ADC     DX,[BX+78]
0736:0B59 139F5634          ADC     BX,[BX+3456]
0736:0B5D 1330              ADC     SI,[BX+SI]
0736:0B5F 137879            ADC     DI,[BX+SI+79]
0736:0B62 13A87856          ADC     BP,[BX+SI+5678]
0736:0B66 1331              ADC     SI,[BX+DI]
0736:0B68 137929            ADC     DI,[BX+DI+29]
0736:0B6B 13A97856          ADC     BP,[BX+DI+5678]
0736:0B6F 1324              ADC     SP,[SI]
0736:0B71 135428            ADC     DX,[SI+28]
0736:0B74 139C5634          ADC     BX,[SI+3456]
0736:0B78 1305              ADC     AX,[DI]
0736:0B7A 135558            ADC     DX,[DI+58]
0736:0B7D 139D5634          ADC     BX,[DI+3456]
0736:0B81 134E00            ADC     CX,[BP+00]
0736:0B84 135658            ADC     DX,[BP+58]
0736:0B87 139E5634          ADC     BX,[BP+3456]
0736:0B8B 1332              ADC     SI,[BP+SI]
0736:0B8D 137A39            ADC     DI,[BP+SI+39]
0736:0B90 13AA7856          ADC     BP,[BP+SI+5678]
0736:0B94 1333              ADC     SI,[BP+DI]
0736:0B96 137B49            ADC     DI,[BP+DI+49]
0736:0B99 13AB7856          ADC     BP,[BP+DI+5678]
0736:0B9D 110F              ADC     [BX],CX
0736:0B9F 115778            ADC     [BX+78],DX
0736:0BA2 119F5634          ADC     [BX+3456],BX
0736:0BA6 1100              ADC     [BX+SI],AX
0736:0BA8 116069            ADC     [BX+SI+69],SP
0736:0BAB 11B87856          ADC     [BX+SI+5678],DI
0736:0BAF 1129              ADC     [BX+DI],BP
0736:0BB1 117149            ADC     [BX+DI+49],SI
0736:0BB4 11B97856          ADC     [BX+DI+5678],DI
0736:0BB8 1104              ADC     [SI],AX
0736:0BBA 114C78            ADC     [SI+78],CX
0736:0BBD 11945634          ADC     [SI+3456],DX
0736:0BC1 112D              ADC     [DI],BP
0736:0BC3 116578            ADC     [DI+78],SP
0736:0BC6 11B55634          ADC     [DI+3456],SI
0736:0BCA 117E00            ADC     [BP+00],DI
0736:0BCD 114E78            ADC     [BP+78],CX
0736:0BD0 11965634          ADC     [BP+3456],DX
0736:0BD4 1132              ADC     [BP+SI],SI
0736:0BD6 117A59            ADC     [BP+SI+59],DI
0736:0BD9 11827856          ADC     [BP+SI+5678],AX
0736:0BDD 113B              ADC     [BP+DI],DI
0736:0BDF 115B19            ADC     [BP+DI+19],BX
0736:0BE2 11937856          ADC     [BP+DI+5678],DX
0736:0BE6 1205              ADC     AL,[DI]
0736:0BE8 126578            ADC     AH,[DI+78]
0736:0BEB 12BD5634          ADC     BH,[DI+3456]
0736:0BEF 124E00            ADC     CL,[BP+00]
0736:0BF2 125678            ADC     DL,[BP+78]
0736:0BF5 129E5634          ADC     BL,[BP+3456]
0736:0BF9 122A              ADC     CH,[BP+SI]
0736:0BFB 107578            ADC     [DI+78],DH
0736:0BFE 10955634          ADC     [DI+3456],DL
0736:0C02 106E00            ADC     [BP+00],CH
0736:0C05 104E56            ADC     [BP+56],CL
0736:0C08 10BE5634          ADC     [BP+3456],BH
0736:0C0C 101A              ADC     [BP+SI],BL
0736:0C0E 106245            ADC     [BP+SI+45],AH
0736:0C11 10827856          ADC     [BP+SI+5678],AL
0736:0C15 80557815          ADC     BYTE PTR [DI+78],15
0736:0C19 8095563416        ADC     BYTE PTR [DI+3456],16
0736:0C1E 80560028          ADC     BYTE PTR [BP+00],28
0736:0C22 80565688          ADC     BYTE PTR [BP+56],88
0736:0C26 819656343412      ADC     WORD PTR [BP+3456],1234
0736:0C2C 81121534          ADC     WORD PTR [BP+SI],3415
0736:0C30 8152458547        ADC     WORD PTR [BP+SI+45],4785
0736:0C35 819278563615      ADC     WORD PTR [BP+SI+5678],1536
0736:0C3B 8396563412        ADC     WORD PTR [BP+3456],+12
0736:0C40 831235            ADC     WORD PTR [BP+SI],+35
0736:0C43 83524545          ADC     WORD PTR [BP+SI+45],+45
0736:0C47 8392785616        ADC     WORD PTR [BP+SI+5678],+16
0736:0C4C 80D115            ADC     CL,15
0736:0C4F 80D516            ADC     CH,16
0736:0C52 80D228            ADC     DL,28
0736:0C55 80D488            ADC     AH,88
0736:0C58 81D33412          ADC     BX,1234
0736:0C5C 81D71534          ADC     DI,3415
0736:0C60 81D48547          ADC     SP,4785
0736:0C64 81D53615          ADC     BP,1536
0736:0C68 83D314            ADC     BX,+14
0736:0C6B 83D635            ADC     SI,+35
0736:0C6E 83D465            ADC     SP,+65
0736:0C71 83D516            ADC     BP,+16
0736:0C74 0417              ADD     AL,17
0736:0C76 051752            ADD     AX,5217
0736:0C79 741E              JZ      0C99
0736:0C7B 741D              JZ      0C9A
0736:0C7D 7CFA              JL      0C79
0736:0C7F 7E48              JLE     0CC9
0736:0C81 72F6              JB      0C79
0736:0C83 7614              JBE     0C99
0736:0C85 7A14              JPE     0C9B
0736:0C87 70F0              JO      0C79
0736:0C89 78F0              JS      0C7B
0736:0C8B 75F0              JNZ     0C7D
0736:0C8D 75EC              JNZ     0C7B
0736:0C8F 7D08              JGE     0C99
0736:0C91 7F09              JG      0C9C
0736:0C93 73E6              JAE     0C7B
0736:0C95 77E2              JA      0C79
0736:0C97 7BF0              JPO     0C89
0736:0C99 71DE              JNO     0C79
0736:0C9B 792C              JNS     0CC9
0736:0C9D E22C              LOOPW   0CCB
0736:0C9F E1D8              LOOPZW  0C79
0736:0CA1 E1D7              LOOPZW  0C7A
0736:0CA3 E0D6              LOOPNZW 0C7B
0736:0CA5 E0D5              LOOPNZW 0C7C
0736:0CA7 E3F5              JCXZ    0C9E
0736:0CA9 E82333            CALL    3FCF
0736:0CAC FF17              CALL    WORD PTR [BX]
0736:0CAE FF5778            CALL    WORD PTR [BX+78]
0736:0CB1 FF975634          CALL    WORD PTR [BX+3456]
0736:0CB5 FF10              CALL    WORD PTR [BX+SI]
0736:0CB7 FF5079            CALL    WORD PTR [BX+SI+79]
0736:0CBA FF907856          CALL    WORD PTR [BX+SI+5678]
0736:0CBE FF11              CALL    WORD PTR [BX+DI]
0736:0CC0 FF5129            CALL    WORD PTR [BX+DI+29]
0736:0CC3 FF917856          CALL    WORD PTR [BX+DI+5678]
0736:0CC7 FF14              CALL    WORD PTR [SI]
0736:0CC9 FF5428            CALL    WORD PTR [SI+28]
0736:0CCC FF945634          CALL    WORD PTR [SI+3456]
0736:0CD0 FF15              CALL    WORD PTR [DI]
0736:0CD2 FFD0              CALL    AX
0736:0CD4 FFD3              CALL    BX
0736:0CD6 FFD1              CALL    CX
0736:0CD8 FFD2              CALL    DX
0736:0CDA FFD4              CALL    SP
0736:0CDC FFD7              CALL    DI
0736:0CDE FFD5              CALL    BP
0736:0CE0 FFD6              CALL    SI
0736:0CE2 FFD5              CALL    BP
0736:0CE4 9A45225634        CALL    3456:2245
0736:0CE9 FF1F              CALL    FAR [BX]
0736:0CEB FF5F78            CALL    FAR [BX+78]
0736:0CEE FF9F5634          CALL    FAR [BX+3456]
0736:0CF2 FF18              CALL    FAR [BX+SI]
0736:0CF4 FF5879            CALL    FAR [BX+SI+79]
0736:0CF7 FF987856          CALL    FAR [BX+SI+5678]
0736:0CFB FF19              CALL    FAR [BX+DI]
0736:0CFD FF5929            CALL    FAR [BX+DI+29]
0736:0D00 FF997856          CALL    FAR [BX+DI+5678]
0736:0D04 FF1C              CALL    FAR [SI]
0736:0D06 FF5C28            CALL    FAR [SI+28]
0736:0D09 FF9C5634          CALL    FAR [SI+3456]
0736:0D0D FF1D              CALL    FAR [DI]
0736:0D0F E9BD32            JMP     3FCF
0736:0D12 EB15              JMP     0D29
0736:0D14 FF27              JMP     WORD PTR [BX]
0736:0D16 FF6778            JMP     WORD PTR [BX+78]
0736:0D19 FFA75634          JMP     WORD PTR [BX+3456]
0736:0D1D FF20              JMP     WORD PTR [BX+SI]
0736:0D1F FF6079            JMP     WORD PTR [BX+SI+79]
0736:0D22 FFA07856          JMP     WORD PTR [BX+SI+5678]
0736:0D26 FF21              JMP     WORD PTR [BX+DI]
0736:0D28 FF6129            JMP     WORD PTR [BX+DI+29]
0736:0D2B FFA17856          JMP     WORD PTR [BX+DI+5678]
0736:0D2F FF24              JMP     WORD PTR [SI]
0736:0D31 FF6428            JMP     WORD PTR [SI+28]
0736:0D34 FFA45634          JMP     WORD PTR [SI+3456]
0736:0D38 FF25              JMP     WORD PTR [DI]
0736:0D3A FFE0              JMP     AX
0736:0D3C FFE3              JMP     BX
0736:0D3E FFE1              JMP     CX
0736:0D40 FFE2              JMP     DX
0736:0D42 FFE4              JMP     SP
0736:0D44 FFE7              JMP     DI
0736:0D46 FFE5              JMP     BP
0736:0D48 FFE6              JMP     SI
0736:0D4A FFE5              JMP     BP
0736:0D4C EA45225634        JMP     3456:2245
0736:0D51 FF2F              JMP     FAR [BX]
0736:0D53 FF6F78            JMP     FAR [BX+78]
0736:0D56 FFAF5634          JMP     FAR [BX+3456]
0736:0D5A FF28              JMP     FAR [BX+SI]
0736:0D5C FF6879            JMP     FAR [BX+SI+79]
0736:0D5F FFA87856          JMP     FAR [BX+SI+5678]
0736:0D63 FF29              JMP     FAR [BX+DI]
0736:0D65 FF6929            JMP     FAR [BX+DI+29]
0736:0D68 FFA97856          JMP     FAR [BX+DI+5678]
0736:0D6C FF2C              JMP     FAR [SI]
0736:0D6E FF6C28            JMP     FAR [SI+28]
0736:0D71 FFAC5634          JMP     FAR [SI+3456]
0736:0D75 FF2D              JMP     FAR [DI]
0736:0D77 C3                RET
0736:0D78 C22301            RET     0123
0736:0D7B CB                RETF
0736:0D7C CA4523            RETF    2345
0736:0D7F CC                INT     3
0736:0D80 CE                INTO
0736:0D81 CD21              INT     21
0736:0D83 CD80              INT     80
0736:0D85 8B0F              MOV     CX,[BX]
0736:0D87 8B5778            MOV     DX,[BX+78]
0736:0D8A 8B9F5634          MOV     BX,[BX+3456]
0736:0D8E 8B30              MOV     SI,[BX+SI]
0736:0D90 8B7879            MOV     DI,[BX+SI+79]
0736:0D93 8BA87856          MOV     BP,[BX+SI+5678]
0736:0D97 8B31              MOV     SI,[BX+DI]
0736:0D99 8B7929            MOV     DI,[BX+DI+29]
0736:0D9C 8BA97856          MOV     BP,[BX+DI+5678]
0736:0DA0 8B24              MOV     SP,[SI]
0736:0DA2 8B5428            MOV     DX,[SI+28]
0736:0DA5 8B9C5634          MOV     BX,[SI+3456]
0736:0DA9 8B05              MOV     AX,[DI]
0736:0DAB 8B5558            MOV     DX,[DI+58]
0736:0DAE 8B9D5634          MOV     BX,[DI+3456]
0736:0DB2 8B4E00            MOV     CX,[BP+00]
0736:0DB5 8B5658            MOV     DX,[BP+58]
0736:0DB8 8B9E5634          MOV     BX,[BP+3456]
0736:0DBC 8B32              MOV     SI,[BP+SI]
0736:0DBE 8B7A39            MOV     DI,[BP+SI+39]
0736:0DC1 8BAA7856          MOV     BP,[BP+SI+5678]
0736:0DC5 8B33              MOV     SI,[BP+DI]
0736:0DC7 8B7B49            MOV     DI,[BP+DI+49]
0736:0DCA 8BAB7856          MOV     BP,[BP+DI+5678]
0736:0DCE 890F              MOV     [BX],CX
0736:0DD0 895778            MOV     [BX+78],DX
0736:0DD3 899F5634          MOV     [BX+3456],BX
0736:0DD7 8900              MOV     [BX+SI],AX
0736:0DD9 896069            MOV     [BX+SI+69],SP
0736:0DDC 89B87856          MOV     [BX+SI+5678],DI
0736:0DE0 8929              MOV     [BX+DI],BP
0736:0DE2 897149            MOV     [BX+DI+49],SI
0736:0DE5 89B97856          MOV     [BX+DI+5678],DI
0736:0DE9 8904              MOV     [SI],AX
0736:0DEB 894C78            MOV     [SI+78],CX
0736:0DEE 89945634          MOV     [SI+3456],DX
0736:0DF2 892D              MOV     [DI],BP
0736:0DF4 896578            MOV     [DI+78],SP
0736:0DF7 89B55634          MOV     [DI+3456],SI
0736:0DFB 897E00            MOV     [BP+00],DI
0736:0DFE 894E78            MOV     [BP+78],CX
0736:0E01 89965634          MOV     [BP+3456],DX
0736:0E05 8932              MOV     [BP+SI],SI
0736:0E07 897A59            MOV     [BP+SI+59],DI
0736:0E0A 89827856          MOV     [BP+SI+5678],AX
0736:0E0E 893B              MOV     [BP+DI],DI
0736:0E10 895B19            MOV     [BP+DI+19],BX
0736:0E13 89937856          MOV     [BP+DI+5678],DX
0736:0E17 8A05              MOV     AL,[DI]
0736:0E19 8A6578            MOV     AH,[DI+78]
0736:0E1C 8ABD5634          MOV     BH,[DI+3456]
0736:0E20 8A4E00            MOV     CL,[BP+00]
0736:0E23 8A5678            MOV     DL,[BP+78]
0736:0E26 8A9E5634          MOV     BL,[BP+3456]
0736:0E2A 8A2A              MOV     CH,[BP+SI]
0736:0E2C 887578            MOV     [DI+78],DH
0736:0E2F 88955634          MOV     [DI+3456],DL
0736:0E33 886E00            MOV     [BP+00],CH
0736:0E36 884E56            MOV     [BP+56],CL
0736:0E39 88BE5634          MOV     [BP+3456],BH
0736:0E3D 881A              MOV     [BP+SI],BL
0736:0E3F 886245            MOV     [BP+SI+45],AH
0736:0E42 88827856          MOV     [BP+SI+5678],AL
0736:0E46 C6457815          MOV     BYTE PTR [DI+78],15
0736:0E4A C685563416        MOV     BYTE PTR [DI+3456],16
0736:0E4F C6460028          MOV     BYTE PTR [BP+00],28
0736:0E53 C6465688          MOV     BYTE PTR [BP+56],88
0736:0E57 C78656343412      MOV     WORD PTR [BP+3456],1234
0736:0E5D C7021534          MOV     WORD PTR [BP+SI],3415
0736:0E61 C742458547        MOV     WORD PTR [BP+SI+45],4785
0736:0E66 C78278563615      MOV     WORD PTR [BP+SI+5678],1536
0736:0E6C B015              MOV     AL,15
0736:0E6E B416              MOV     AH,16
0736:0E70 B128              MOV     CL,28
0736:0E72 B688              MOV     DH,88
0736:0E74 BB3412            MOV     BX,1234
0736:0E77 BE1534            MOV     SI,3415
0736:0E7A BC8547            MOV     SP,4785
0736:0E7D BD3615            MOV     BP,1536
0736:0E80 C7C51254          MOV     BP,5412
0736:0E84 A13412            MOV     AX,[1234]
0736:0E87 A03412            MOV     AL,[1234]
0736:0E8A A31234            MOV     [3412],AX
0736:0E8D A21234            MOV     [3412],AL
0736:0E90 8C0F              MOV     WORD PTR [BX],CS
0736:0E92 8C5778            MOV     WORD PTR [BX+78],SS
0736:0E95 8C9F5634          MOV     WORD PTR [BX+3456],DS
0736:0E99 8C00              MOV     WORD PTR [BX+SI],ES
0736:0E9B 8C4869            MOV     WORD PTR [BX+SI+69],CS
0736:0E9E 8E1F              MOV     DS,WORD PTR [BX]
0736:0EA0 8E4F78            MOV     CS,WORD PTR [BX+78]
0736:0EA3 8E975634          MOV     SS,WORD PTR [BX+3456]
0736:0EA7 8E00              MOV     ES,WORD PTR [BX+SI]
0736:0EA9 8E5869            MOV     DS,WORD PTR [BX+SI+69]
0736:0EAC D127              SHL     WORD PTR [BX],1
0736:0EAE D26778            SHL     BYTE PTR [BX+78],CL
0736:0EB1 D1A75634          SHL     WORD PTR [BX+3456],1
0736:0EB5 D3E7              SHL     DI,CL
0736:0EB7 D06069            SHL     BYTE PTR [BX+SI+69],1
0736:0EBA D3A07856          SHL     WORD PTR [BX+SI+5678],CL
0736:0EBE D121              SHL     WORD PTR [BX+DI],1
0736:0EC0 D36149            SHL     WORD PTR [BX+DI+49],CL
0736:0EC3 D1E6              SHL     SI,1
0736:0EC5 D224              SHL     BYTE PTR [SI],CL
0736:0EC7 D16478            SHL     WORD PTR [SI+78],1
0736:0ECA D2A45634          SHL     BYTE PTR [SI+3456],CL
0736:0ECE D125              SHL     WORD PTR [DI],1
0736:0ED0 D26578            SHL     BYTE PTR [DI+78],CL
0736:0ED3 D1A55634          SHL     WORD PTR [DI+3456],1
0736:0ED7 D36600            SHL     WORD PTR [BP+00],CL
0736:0EDA D16678            SHL     WORD PTR [BP+78],1
0736:0EDD D2E6              SHL     DH,CL
0736:0EDF D022              SHL     BYTE PTR [BP+SI],1
0736:0EE1 D36259            SHL     WORD PTR [BP+SI+59],CL
0736:0EE4 D1A27856          SHL     WORD PTR [BP+SI+5678],1
0736:0EE8 D223              SHL     BYTE PTR [BP+DI],CL
0736:0EEA D16319            SHL     WORD PTR [BP+DI+19],1
0736:0EED D3A37856          SHL     WORD PTR [BP+DI+5678],CL
0736:0EF1 D12F              SHR     WORD PTR [BX],1
0736:0EF3 D26F78            SHR     BYTE PTR [BX+78],CL
0736:0EF6 D1AF5634          SHR     WORD PTR [BX+3456],1
0736:0EFA D328              SHR     WORD PTR [BX+SI],CL
0736:0EFC D06869            SHR     BYTE PTR [BX+SI+69],1
0736:0EFF D3A87856          SHR     WORD PTR [BX+SI+5678],CL
0736:0F03 D129              SHR     WORD PTR [BX+DI],1
0736:0F05 D36949            SHR     WORD PTR [BX+DI+49],CL
0736:0F08 D1A97856          SHR     WORD PTR [BX+DI+5678],1
0736:0F0C D22C              SHR     BYTE PTR [SI],CL
0736:0F0E D16C78            SHR     WORD PTR [SI+78],1
0736:0F11 D2AC5634          SHR     BYTE PTR [SI+3456],CL
0736:0F15 D12D              SHR     WORD PTR [DI],1
0736:0F17 D2E8              SHR     AL,CL
0736:0F19 D1AD5634          SHR     WORD PTR [DI+3456],1
0736:0F1D D36E00            SHR     WORD PTR [BP+00],CL
0736:0F20 D16E78            SHR     WORD PTR [BP+78],1
0736:0F23 D3E9              SHR     CX,CL
0736:0F25 D02A              SHR     BYTE PTR [BP+SI],1
0736:0F27 D36A59            SHR     WORD PTR [BP+SI+59],CL
0736:0F2A D1AA7856          SHR     WORD PTR [BP+SI+5678],1
0736:0F2E D22B              SHR     BYTE PTR [BP+DI],CL
0736:0F30 D1ED              SHR     BP,1
0736:0F32 D3AB7856          SHR     WORD PTR [BP+DI+5678],CL
0736:0F36 D107              ROL     WORD PTR [BX],1
0736:0F38 D24778            ROL     BYTE PTR [BX+78],CL
0736:0F3B D1875634          ROL     WORD PTR [BX+3456],1
0736:0F3F D3C7              ROL     DI,CL
0736:0F41 D04069            ROL     BYTE PTR [BX+SI+69],1
0736:0F44 D3807856          ROL     WORD PTR [BX+SI+5678],CL
0736:0F48 D101              ROL     WORD PTR [BX+DI],1
0736:0F4A D34149            ROL     WORD PTR [BX+DI+49],CL
0736:0F4D D1C6              ROL     SI,1
0736:0F4F D204              ROL     BYTE PTR [SI],CL
0736:0F51 D14478            ROL     WORD PTR [SI+78],1
0736:0F54 D2845634          ROL     BYTE PTR [SI+3456],CL
0736:0F58 D105              ROL     WORD PTR [DI],1
0736:0F5A D24578            ROL     BYTE PTR [DI+78],CL
0736:0F5D D1855634          ROL     WORD PTR [DI+3456],1
0736:0F61 D34600            ROL     WORD PTR [BP+00],CL
0736:0F64 D14678            ROL     WORD PTR [BP+78],1
0736:0F67 D2C6              ROL     DH,CL
0736:0F69 D002              ROL     BYTE PTR [BP+SI],1
0736:0F6B D34259            ROL     WORD PTR [BP+SI+59],CL
0736:0F6E D1827856          ROL     WORD PTR [BP+SI+5678],1
0736:0F72 D203              ROL     BYTE PTR [BP+DI],CL
0736:0F74 D14319            ROL     WORD PTR [BP+DI+19],1
0736:0F77 D3837856          ROL     WORD PTR [BP+DI+5678],CL
0736:0F7B D10F              ROR     WORD PTR [BX],1
0736:0F7D D24F78            ROR     BYTE PTR [BX+78],CL
0736:0F80 D18F5634          ROR     WORD PTR [BX+3456],1
0736:0F84 D3CF              ROR     DI,CL
0736:0F86 D04869            ROR     BYTE PTR [BX+SI+69],1
0736:0F89 D3887856          ROR     WORD PTR [BX+SI+5678],CL
0736:0F8D D109              ROR     WORD PTR [BX+DI],1
0736:0F8F D34949            ROR     WORD PTR [BX+DI+49],CL
0736:0F92 D1CE              ROR     SI,1
0736:0F94 D20C              ROR     BYTE PTR [SI],CL
0736:0F96 D14C78            ROR     WORD PTR [SI+78],1
0736:0F99 D28C5634          ROR     BYTE PTR [SI+3456],CL
0736:0F9D D10D              ROR     WORD PTR [DI],1
0736:0F9F D24D78            ROR     BYTE PTR [DI+78],CL
0736:0FA2 D18D5634          ROR     WORD PTR [DI+3456],1
0736:0FA6 D34E00            ROR     WORD PTR [BP+00],CL
0736:0FA9 D14E78            ROR     WORD PTR [BP+78],1
0736:0FAC D2CE              ROR     DH,CL
0736:0FAE D00A              ROR     BYTE PTR [BP+SI],1
0736:0FB0 D34A59            ROR     WORD PTR [BP+SI+59],CL
0736:0FB3 D18A7856          ROR     WORD PTR [BP+SI+5678],1
0736:0FB7 D20B              ROR     BYTE PTR [BP+DI],CL
0736:0FB9 D14B19            ROR     WORD PTR [BP+DI+19],1
0736:0FBC D38B7856          ROR     WORD PTR [BP+DI+5678],CL
0736:0FC0 D11F              RCR     WORD PTR [BX],1
0736:0FC2 D25F78            RCR     BYTE PTR [BX+78],CL
0736:0FC5 D19F5634          RCR     WORD PTR [BX+3456],1
0736:0FC9 D3DF              RCR     DI,CL
0736:0FCB D05869            RCR     BYTE PTR [BX+SI+69],1
0736:0FCE D3987856          RCR     WORD PTR [BX+SI+5678],CL
0736:0FD2 D119              RCR     WORD PTR [BX+DI],1
0736:0FD4 D35949            RCR     WORD PTR [BX+DI+49],CL
0736:0FD7 D1DE              RCR     SI,1
0736:0FD9 D21C              RCR     BYTE PTR [SI],CL
0736:0FDB D15C78            RCR     WORD PTR [SI+78],1
0736:0FDE D29C5634          RCR     BYTE PTR [SI+3456],CL
0736:0FE2 D11D              RCR     WORD PTR [DI],1
0736:0FE4 D25D78            RCR     BYTE PTR [DI+78],CL
0736:0FE7 D19D5634          RCR     WORD PTR [DI+3456],1
0736:0FEB D35E00            RCR     WORD PTR [BP+00],CL
0736:0FEE D15E78            RCR     WORD PTR [BP+78],1
0736:0FF1 D2DE              RCR     DH,CL
0736:0FF3 D01A              RCR     BYTE PTR [BP+SI],1
0736:0FF5 D35A59            RCR     WORD PTR [BP+SI+59],CL
0736:0FF8 D19A7856          RCR     WORD PTR [BP+SI+5678],1
0736:0FFC D21B              RCR     BYTE PTR [BP+DI],CL
0736:0FFE D15B19            RCR     WORD PTR [BP+DI+19],1
0736:1001 D39B7856          RCR     WORD PTR [BP+DI+5678],CL
0736:1005 D117              RCL     WORD PTR [BX],1
0736:1007 D25778            RCL     BYTE PTR [BX+78],CL
0736:100A D1975634          RCL     WORD PTR [BX+3456],1
0736:100E D3D7              RCL     DI,CL
0736:1010 D05069            RCL     BYTE PTR [BX+SI+69],1
0736:1013 D3907856          RCL     WORD PTR [BX+SI+5678],CL
0736:1017 D111              RCL     WORD PTR [BX+DI],1
0736:1019 D35149            RCL     WORD PTR [BX+DI+49],CL
0736:101C D1D6              RCL     SI,1
0736:101E D214              RCL     BYTE PTR [SI],CL
0736:1020 D15478            RCL     WORD PTR [SI+78],1
0736:1023 D2945634          RCL     BYTE PTR [SI+3456],CL
0736:1027 D115              RCL     WORD PTR [DI],1
0736:1029 D25578            RCL     BYTE PTR [DI+78],CL
0736:102C D1955634          RCL     WORD PTR [DI+3456],1
0736:1030 D35600            RCL     WORD PTR [BP+00],CL
0736:1033 D15678            RCL     WORD PTR [BP+78],1
0736:1036 D2D6              RCL     DH,CL
0736:1038 D012              RCL     BYTE PTR [BP+SI],1
0736:103A D35259            RCL     WORD PTR [BP+SI+59],CL
0736:103D D1927856          RCL     WORD PTR [BP+SI+5678],1
0736:1041 D213              RCL     BYTE PTR [BP+DI],CL
0736:1043 D15319            RCL     WORD PTR [BP+DI+19],1
0736:1046 D3937856          RCL     WORD PTR [BP+DI+5678],CL
0736:104A F7D5              NOT     BP
0736:104C F75658            NOT     WORD PTR [BP+58]
0736:104F F7965634          NOT     WORD PTR [BP+3456]
0736:1053 F7D1              NOT     CX
0736:1055 F75239            NOT     WORD PTR [BP+SI+39]
0736:1058 F7927856          NOT     WORD PTR [BP+SI+5678]
0736:105C F7D2              NOT     DX
0736:105E F75349            NOT     WORD PTR [BP+DI+49]
0736:1061 F7D6              NOT     SI
0736:1063 F65578            NOT     BYTE PTR [DI+78]
0736:1066 F6955634          NOT     BYTE PTR [DI+3456]
0736:106A F6D6              NOT     DH
0736:106C F65678            NOT     BYTE PTR [BP+78]
0736:106F F6965634          NOT     BYTE PTR [BP+3456]
0736:1073 F6D4              NOT     AH
0736:1075 F6D3              NOT     BL
0736:1077 F6955634          NOT     BYTE PTR [DI+3456]
0736:107B 230F              AND     CX,[BX]
0736:107D 235778            AND     DX,[BX+78]
0736:1080 239F5634          AND     BX,[BX+3456]
0736:1084 2330              AND     SI,[BX+SI]
0736:1086 237879            AND     DI,[BX+SI+79]
0736:1089 23A87856          AND     BP,[BX+SI+5678]
0736:108D 2331              AND     SI,[BX+DI]
0736:108F 237929            AND     DI,[BX+DI+29]
0736:1092 23A97856          AND     BP,[BX+DI+5678]
0736:1096 2324              AND     SP,[SI]
0736:1098 235428            AND     DX,[SI+28]
0736:109B 239C5634          AND     BX,[SI+3456]
0736:109F 2305              AND     AX,[DI]
0736:10A1 235558            AND     DX,[DI+58]
0736:10A4 239D5634          AND     BX,[DI+3456]
0736:10A8 234E00            AND     CX,[BP+00]
0736:10AB 235658            AND     DX,[BP+58]
0736:10AE 239E5634          AND     BX,[BP+3456]
0736:10B2 2332              AND     SI,[BP+SI]
0736:10B4 237A39            AND     DI,[BP+SI+39]
0736:10B7 23AA7856          AND     BP,[BP+SI+5678]
0736:10BB 2333              AND     SI,[BP+DI]
0736:10BD 237B49            AND     DI,[BP+DI+49]
0736:10C0 23AB7856          AND     BP,[BP+DI+5678]
0736:10C4 210F              AND     [BX],CX
0736:10C6 215778            AND     [BX+78],DX
0736:10C9 219F5634          AND     [BX+3456],BX
0736:10CD 2100              AND     [BX+SI],AX
0736:10CF 216069            AND     [BX+SI+69],SP
0736:10D2 21B87856          AND     [BX+SI+5678],DI
0736:10D6 2129              AND     [BX+DI],BP
0736:10D8 217149            AND     [BX+DI+49],SI
0736:10DB 21B97856          AND     [BX+DI+5678],DI
0736:10DF 2104              AND     [SI],AX
0736:10E1 214C78            AND     [SI+78],CX
0736:10E4 21945634          AND     [SI+3456],DX
0736:10E8 212D              AND     [DI],BP
0736:10EA 216578            AND     [DI+78],SP
0736:10ED 21B55634          AND     [DI+3456],SI
0736:10F1 217E00            AND     [BP+00],DI
0736:10F4 214E78            AND     [BP+78],CX
0736:10F7 21965634          AND     [BP+3456],DX
0736:10FB 2132              AND     [BP+SI],SI
0736:10FD 217A59            AND     [BP+SI+59],DI
0736:1100 21827856          AND     [BP+SI+5678],AX
0736:1104 213B              AND     [BP+DI],DI
0736:1106 215B19            AND     [BP+DI+19],BX
0736:1109 21937856          AND     [BP+DI+5678],DX
0736:110D 2205              AND     AL,[DI]
0736:110F 226578            AND     AH,[DI+78]
0736:1112 22BD5634          AND     BH,[DI+3456]
0736:1116 224E00            AND     CL,[BP+00]
0736:1119 225678            AND     DL,[BP+78]
0736:111C 229E5634          AND     BL,[BP+3456]
0736:1120 222A              AND     CH,[BP+SI]
0736:1122 207578            AND     [DI+78],DH
0736:1125 20955634          AND     [DI+3456],DL
0736:1129 206E00            AND     [BP+00],CH
0736:112C 204E56            AND     [BP+56],CL
0736:112F 20BE5634          AND     [BP+3456],BH
0736:1133 201A              AND     [BP+SI],BL
0736:1135 206245            AND     [BP+SI+45],AH
0736:1138 20827856          AND     [BP+SI+5678],AL
0736:113C 80657815          AND     BYTE PTR [DI+78],15
0736:1140 80A5563416        AND     BYTE PTR [DI+3456],16
0736:1145 80660028          AND     BYTE PTR [BP+00],28
0736:1149 80665688          AND     BYTE PTR [BP+56],88
0736:114D 81A656343412      AND     WORD PTR [BP+3456],1234
0736:1153 81221534          AND     WORD PTR [BP+SI],3415
0736:1157 8162458547        AND     WORD PTR [BP+SI+45],4785
0736:115C 81A278563615      AND     WORD PTR [BP+SI+5678],1536
0736:1162 80E115            AND     CL,15
0736:1165 80E516            AND     CH,16
0736:1168 80E228            AND     DL,28
0736:116B 80E488            AND     AH,88
0736:116E 81E33412          AND     BX,1234
0736:1172 81E71534          AND     DI,3415
0736:1176 81E48547          AND     SP,4785
0736:117A 81E53615          AND     BP,1536
0736:117E 2415              AND     AL,15
0736:1180 251516            AND     AX,1615
0736:1183 850F              TEST    [BX],CX
0736:1185 855778            TEST    [BX+78],DX
0736:1188 859F5634          TEST    [BX+3456],BX
0736:118C 8530              TEST    [BX+SI],SI
0736:118E 857879            TEST    [BX+SI+79],DI
0736:1191 85A87856          TEST    [BX+SI+5678],BP
0736:1195 8531              TEST    [BX+DI],SI
0736:1197 857929            TEST    [BX+DI+29],DI
0736:119A 85A97856          TEST    [BX+DI+5678],BP
0736:119E 8524              TEST    [SI],SP
0736:11A0 855428            TEST    [SI+28],DX
0736:11A3 859C5634          TEST    [SI+3456],BX
0736:11A7 8505              TEST    [DI],AX
0736:11A9 855558            TEST    [DI+58],DX
0736:11AC 859D5634          TEST    [DI+3456],BX
0736:11B0 854E00            TEST    [BP+00],CX
0736:11B3 855658            TEST    [BP+58],DX
0736:11B6 859E5634          TEST    [BP+3456],BX
0736:11BA 8532              TEST    [BP+SI],SI
0736:11BC 857A39            TEST    [BP+SI+39],DI
0736:11BF 85AA7856          TEST    [BP+SI+5678],BP
0736:11C3 8533              TEST    [BP+DI],SI
0736:11C5 857B49            TEST    [BP+DI+49],DI
0736:11C8 85AB7856          TEST    [BP+DI+5678],BP
0736:11CC 850F              TEST    [BX],CX
0736:11CE 855778            TEST    [BX+78],DX
0736:11D1 859F5634          TEST    [BX+3456],BX
0736:11D5 8500              TEST    [BX+SI],AX
0736:11D7 856069            TEST    [BX+SI+69],SP
0736:11DA 85B87856          TEST    [BX+SI+5678],DI
0736:11DE 8529              TEST    [BX+DI],BP
0736:11E0 857149            TEST    [BX+DI+49],SI
0736:11E3 85B97856          TEST    [BX+DI+5678],DI
0736:11E7 8504              TEST    [SI],AX
0736:11E9 854C78            TEST    [SI+78],CX
0736:11EC 85945634          TEST    [SI+3456],DX
0736:11F0 852D              TEST    [DI],BP
0736:11F2 856578            TEST    [DI+78],SP
0736:11F5 85B55634          TEST    [DI+3456],SI
0736:11F9 857E00            TEST    [BP+00],DI
0736:11FC 854E78            TEST    [BP+78],CX
0736:11FF 85965634          TEST    [BP+3456],DX
0736:1203 8532              TEST    [BP+SI],SI
0736:1205 857A59            TEST    [BP+SI+59],DI
0736:1208 85827856          TEST    [BP+SI+5678],AX
0736:120C 853B              TEST    [BP+DI],DI
0736:120E 855B19            TEST    [BP+DI+19],BX
0736:1211 85937856          TEST    [BP+DI+5678],DX
0736:1215 8405              TEST    [DI],AL
0736:1217 846578            TEST    [DI+78],AH
0736:121A 84BD5634          TEST    [DI+3456],BH
0736:121E 844E00            TEST    [BP+00],CL
0736:1221 845678            TEST    [BP+78],DL
0736:1224 849E5634          TEST    [BP+3456],BL
0736:1228 842A              TEST    [BP+SI],CH
0736:122A 847578            TEST    [DI+78],DH
0736:122D 84955634          TEST    [DI+3456],DL
0736:1231 846E00            TEST    [BP+00],CH
0736:1234 844E56            TEST    [BP+56],CL
0736:1237 84BE5634          TEST    [BP+3456],BH
0736:123B 841A              TEST    [BP+SI],BL
0736:123D 846245            TEST    [BP+SI+45],AH
0736:1240 84827856          TEST    [BP+SI+5678],AL
0736:1244 F6457815          TEST    BYTE PTR [DI+78],15
0736:1248 F685563416        TEST    BYTE PTR [DI+3456],16
0736:124D F6460028          TEST    BYTE PTR [BP+00],28
0736:1251 F6465688          TEST    BYTE PTR [BP+56],88
0736:1255 F78656343412      TEST    WORD PTR [BP+3456],1234
0736:125B F7021534          TEST    WORD PTR [BP+SI],3415
0736:125F F742458547        TEST    WORD PTR [BP+SI+45],4785
0736:1264 F78278563615      TEST    WORD PTR [BP+SI+5678],1536
0736:126A F6C115            TEST    CL,15
0736:126D F6C516            TEST    CH,16
0736:1270 F6C228            TEST    DL,28
0736:1273 F6C488            TEST    AH,88
0736:1276 F7C33412          TEST    BX,1234
0736:127A F7C71534          TEST    DI,3415
0736:127E F7C48547          TEST    SP,4785
0736:1282 F7C53615          TEST    BP,1536
0736:1286 A815              TEST    AL,15
0736:1288 A91516            TEST    AX,1615
0736:128B 0B0F              OR      CX,[BX]
0736:128D 0B5778            OR      DX,[BX+78]
0736:1290 0B9F5634          OR      BX,[BX+3456]
0736:1294 0B30              OR      SI,[BX+SI]
0736:1296 0B7879            OR      DI,[BX+SI+79]
0736:1299 0BA87856          OR      BP,[BX+SI+5678]
0736:129D 0B31              OR      SI,[BX+DI]
0736:129F 0B7929            OR      DI,[BX+DI+29]
0736:12A2 0BA97856          OR      BP,[BX+DI+5678]
0736:12A6 0B24              OR      SP,[SI]
0736:12A8 0B5428            OR      DX,[SI+28]
0736:12AB 0B9C5634          OR      BX,[SI+3456]
0736:12AF 0B05              OR      AX,[DI]
0736:12B1 0B5558            OR      DX,[DI+58]
0736:12B4 0B9D5634          OR      BX,[DI+3456]
0736:12B8 0B4E00            OR      CX,[BP+00]
0736:12BB 0B5658            OR      DX,[BP+58]
0736:12BE 0B9E5634          OR      BX,[BP+3456]
0736:12C2 0B32              OR      SI,[BP+SI]
0736:12C4 0B7A39            OR      DI,[BP+SI+39]
0736:12C7 0BAA7856          OR      BP,[BP+SI+5678]
0736:12CB 0B33              OR      SI,[BP+DI]
0736:12CD 0B7B49            OR      DI,[BP+DI+49]
0736:12D0 0BAB7856          OR      BP,[BP+DI+5678]
0736:12D4 090F              OR      [BX],CX
0736:12D6 095778            OR      [BX+78],DX
0736:12D9 099F5634          OR      [BX+3456],BX
0736:12DD 0900              OR      [BX+SI],AX
0736:12DF 096069            OR      [BX+SI+69],SP
0736:12E2 09B87856          OR      [BX+SI+5678],DI
0736:12E6 0929              OR      [BX+DI],BP
0736:12E8 097149            OR      [BX+DI+49],SI
0736:12EB 09B97856          OR      [BX+DI+5678],DI
0736:12EF 0904              OR      [SI],AX
0736:12F1 094C78            OR      [SI+78],CX
0736:12F4 09945634          OR      [SI+3456],DX
0736:12F8 092D              OR      [DI],BP
0736:12FA 096578            OR      [DI+78],SP
0736:12FD 09B55634          OR      [DI+3456],SI
0736:1301 097E00            OR      [BP+00],DI
0736:1304 094E78            OR      [BP+78],CX
0736:1307 09965634          OR      [BP+3456],DX
0736:130B 0932              OR      [BP+SI],SI
0736:130D 097A59            OR      [BP+SI+59],DI
0736:1310 09827856          OR      [BP+SI+5678],AX
0736:1314 093B              OR      [BP+DI],DI
0736:1316 095B19            OR      [BP+DI+19],BX
0736:1319 09937856          OR      [BP+DI+5678],DX
0736:131D 0A05              OR      AL,[DI]
0736:131F 0A6578            OR      AH,[DI+78]
0736:1322 0ABD5634          OR      BH,[DI+3456]
0736:1326 0A4E00            OR      CL,[BP+00]
0736:1329 0A5678            OR      DL,[BP+78]
0736:132C 0A9E5634          OR      BL,[BP+3456]
0736:1330 0A2A              OR      CH,[BP+SI]
0736:1332 087578            OR      [DI+78],DH
0736:1335 08955634          OR      [DI+3456],DL
0736:1339 086E00            OR      [BP+00],CH
0736:133C 084E56            OR      [BP+56],CL
0736:133F 08BE5634          OR      [BP+3456],BH
0736:1343 081A              OR      [BP+SI],BL
0736:1345 086245            OR      [BP+SI+45],AH
0736:1348 08827856          OR      [BP+SI+5678],AL
0736:134C 804D7815          OR      BYTE PTR [DI+78],15
0736:1350 808D563416        OR      BYTE PTR [DI+3456],16
0736:1355 804E0028          OR      BYTE PTR [BP+00],28
0736:1359 804E5688          OR      BYTE PTR [BP+56],88
0736:135D 818E56343412      OR      WORD PTR [BP+3456],1234
0736:1363 810A1534          OR      WORD PTR [BP+SI],3415
0736:1367 814A458547        OR      WORD PTR [BP+SI+45],4785
0736:136C 818A78563615      OR      WORD PTR [BP+SI+5678],1536
0736:1372 80C915            OR      CL,15
0736:1375 80CD16            OR      CH,16
0736:1378 80CA28            OR      DL,28
0736:137B 80CC88            OR      AH,88
0736:137E 81CB3412          OR      BX,1234
0736:1382 81CF1534          OR      DI,3415
0736:1386 81CC8547          OR      SP,4785
0736:138A 81CD3615          OR      BP,1536
0736:138E 0C15              OR      AL,15
0736:1390 0D1716            OR      AX,1617
0736:1393 330F              XOR     CX,[BX]
0736:1395 335778            XOR     DX,[BX+78]
0736:1398 339F5634          XOR     BX,[BX+3456]
0736:139C 3330              XOR     SI,[BX+SI]
0736:139E 337879            XOR     DI,[BX+SI+79]
0736:13A1 33A87856          XOR     BP,[BX+SI+5678]
0736:13A5 3331              XOR     SI,[BX+DI]
0736:13A7 337929            XOR     DI,[BX+DI+29]
0736:13AA 33A97856          XOR     BP,[BX+DI+5678]
0736:13AE 3324              XOR     SP,[SI]
0736:13B0 335428            XOR     DX,[SI+28]
0736:13B3 339C5634          XOR     BX,[SI+3456]
0736:13B7 3305              XOR     AX,[DI]
0736:13B9 335558            XOR     DX,[DI+58]
0736:13BC 339D5634          XOR     BX,[DI+3456]
0736:13C0 334E00            XOR     CX,[BP+00]
0736:13C3 335658            XOR     DX,[BP+58]
0736:13C6 339E5634          XOR     BX,[BP+3456]
0736:13CA 3332              XOR     SI,[BP+SI]
0736:13CC 337A39            XOR     DI,[BP+SI+39]
0736:13CF 33AA7856          XOR     BP,[BP+SI+5678]
0736:13D3 3333              XOR     SI,[BP+DI]
0736:13D5 337B49            XOR     DI,[BP+DI+49]
0736:13D8 33AB7856          XOR     BP,[BP+DI+5678]
0736:13DC 310F              XOR     [BX],CX
0736:13DE 315778            XOR     [BX+78],DX
0736:13E1 319F5634          XOR     [BX+3456],BX
0736:13E5 3100              XOR     [BX+SI],AX
0736:13E7 316069            XOR     [BX+SI+69],SP
0736:13EA 31B87856          XOR     [BX+SI+5678],DI
0736:13EE 3129              XOR     [BX+DI],BP
0736:13F0 317149            XOR     [BX+DI+49],SI
0736:13F3 31B97856          XOR     [BX+DI+5678],DI
0736:13F7 3104              XOR     [SI],AX
0736:13F9 314C78            XOR     [SI+78],CX
0736:13FC 31945634          XOR     [SI+3456],DX
0736:1400 312D              XOR     [DI],BP
0736:1402 316578            XOR     [DI+78],SP
0736:1405 31B55634          XOR     [DI+3456],SI
0736:1409 317E00            XOR     [BP+00],DI
0736:140C 314E78            XOR     [BP+78],CX
0736:140F 31965634          XOR     [BP+3456],DX
0736:1413 3132              XOR     [BP+SI],SI
0736:1415 317A59            XOR     [BP+SI+59],DI
0736:1418 31827856          XOR     [BP+SI+5678],AX
0736:141C 313B              XOR     [BP+DI],DI
0736:141E 315B19            XOR     [BP+DI+19],BX
0736:1421 31937856          XOR     [BP+DI+5678],DX
0736:1425 3205              XOR     AL,[DI]
0736:1427 326578            XOR     AH,[DI+78]
0736:142A 32BD5634          XOR     BH,[DI+3456]
0736:142E 324E00            XOR     CL,[BP+00]
0736:1431 325678            XOR     DL,[BP+78]
0736:1434 329E5634          XOR     BL,[BP+3456]
0736:1438 322A              XOR     CH,[BP+SI]
0736:143A 307578            XOR     [DI+78],DH
0736:143D 30955634          XOR     [DI+3456],DL
0736:1441 306E00            XOR     [BP+00],CH
0736:1444 304E56            XOR     [BP+56],CL
0736:1447 30BE5634          XOR     [BP+3456],BH
0736:144B 301A              XOR     [BP+SI],BL
0736:144D 306245            XOR     [BP+SI+45],AH
0736:1450 30827856          XOR     [BP+SI+5678],AL
0736:1454 80757815          XOR     BYTE PTR [DI+78],15
0736:1458 80B5563416        XOR     BYTE PTR [DI+3456],16
0736:145D 80760028          XOR     BYTE PTR [BP+00],28
0736:1461 80765688          XOR     BYTE PTR [BP+56],88
0736:1465 81B656343412      XOR     WORD PTR [BP+3456],1234
0736:146B 81321534          XOR     WORD PTR [BP+SI],3415
0736:146F 8172458547        XOR     WORD PTR [BP+SI+45],4785
0736:1474 81B278563615      XOR     WORD PTR [BP+SI+5678],1536
0736:147A 80F115            XOR     CL,15
0736:147D 80F516            XOR     CH,16
0736:1480 80F228            XOR     DL,28
0736:1483 80F488            XOR     AH,88
0736:1486 81F33412          XOR     BX,1234
0736:148A 81F71534          XOR     DI,3415
0736:148E 81F48547          XOR     SP,4785
0736:1492 81F53615          XOR     BP,1536
0736:1496 3418              XOR     AL,18
0736:1498 357756            XOR     AX,5677
0736:149B AC                LODSB
0736:149C AD                LODSW
0736:149D A4                MOVSB
0736:149E A5                MOVSW
0736:149F A6                CMPSB
0736:14A0 A7                CMPSW
0736:14A1 AE                SCASB
0736:14A2 AF                SCASW
0736:14A3 AA                STOSB
0736:14A4 AB                STOSW
0736:14A5 F3A6              REPE    CMPSB
0736:14A7 F2A6              REPNE   CMPSB
0736:14A9 F8                CLC
0736:14AA F5                CMC
0736:14AB F9                STC
0736:14AC FC                CLD
0736:14AD FD                STD
0736:14AE FA                CLI
0736:14AF FB                STI
0736:14B0 F4                HLT
0736:14B1 9B                WAIT    (unused)
0736:14B2 F0                LOCK    (unused)
0736:14B3 D9D0              FNOP
0736:14B5 D904              FLD     FLOAT PTR [SI]
0736:14B7 DD00              FLD     DOUBLE PTR [BX+SI]
0736:14B9 DF05              FILD    WORD PTR [DI]
0736:14BB DF6712            FBLD    TBYTE PTR [BX+12]
0736:14BE D9CB              FXCH    ST(3)
0736:14C0 D9E4              FTST
0736:14C2 DF1E6745          FISTP   WORD PTR [4567]
0736:14C6 D9FA              FSQRT
0736:14C8 D9F3              FPATAN
0736:14CA 9BD92F            FLDCW   WORD PTR [BX]
0736:14CD FF37              PUSH    WORD PTR [BX]
0736:14CF FF7778            PUSH    WORD PTR [BX+78]
0736:14D2 FFB75634          PUSH    WORD PTR [BX+3456]
0736:14D6 FF30              PUSH    WORD PTR [BX+SI]
0736:14D8 FF7079            PUSH    WORD PTR [BX+SI+79]
0736:14DB FFB07856          PUSH    WORD PTR [BX+SI+5678]
0736:14DF FF31              PUSH    WORD PTR [BX+DI]
0736:14E1 FF35              PUSH    WORD PTR [DI]
0736:14E3 FF7558            PUSH    WORD PTR [DI+58]
0736:14E6 FFB55634          PUSH    WORD PTR [DI+3456]
0736:14EA FF7600            PUSH    WORD PTR [BP+00]
0736:14ED FF7658            PUSH    WORD PTR [BP+58]
0736:14F0 FFB65634          PUSH    WORD PTR [BP+3456]
0736:14F4 FFB37856          PUSH    WORD PTR [BP+DI+5678]
0736:14F8 1E                PUSH    DS
0736:14F9 0E                PUSH    CS
0736:14FA 16                PUSH    SS
0736:14FB 06                PUSH    ES
0736:14FC 8F07              POP     WORD PTR [BX]
0736:14FE 8F4778            POP     WORD PTR [BX+78]
0736:1501 8F875634          POP     WORD PTR [BX+3456]
0736:1505 8F00              POP     WORD PTR [BX+SI]
0736:1507 8F4079            POP     WORD PTR [BX+SI+79]
0736:150A 8F807856          POP     WORD PTR [BX+SI+5678]
0736:150E 8F01              POP     WORD PTR [BX+DI]
0736:1510 8F05              POP     WORD PTR [DI]
0736:1512 8F4558            POP     WORD PTR [DI+58]
0736:1515 8F855634          POP     WORD PTR [DI+3456]
0736:1519 8F4600            POP     WORD PTR [BP+00]
0736:151C 8F4658            POP     WORD PTR [BP+58]
0736:151F 8F865634          POP     WORD PTR [BP+3456]
0736:1523 8F837856          POP     WORD PTR [BP+DI+5678]
0736:1527 1F                POP     DS
0736:1528 0F                DB      0F
0736:1529 17                POP     SS
0736:152A 07                POP     ES
0736:152B 50                PUSH    AX
0736:152C 51                PUSH    CX
0736:152D 52                PUSH    DX
0736:152E 53                PUSH    BX
0736:152F 54                PUSH    SP
0736:1530 55                PUSH    BP
0736:1531 56                PUSH    SI
0736:1532 57                PUSH    DI
0736:1533 58                POP     AX
0736:1534 59                POP     CX
0736:1535 5A                POP     DX
0736:1536 5B                POP     BX
0736:1537 5C                POP     SP
0736:1538 5D                POP     BP
0736:1539 5E                POP     SI
0736:153A 5F                POP     DI
0736:153B 86E0              XCHG    AH,AL
0736:153D 86E1              XCHG    AH,CL
0736:153F 86D8              XCHG    BL,AL
0736:1541 86EA              XCHG    CH,DL
0736:1543 86FE              XCHG    BH,DH
0736:1545 87CB              XCHG    CX,BX
0736:1547 87DB              XCHG    BX,BX
0736:1549 87CA              XCHG    CX,DX
0736:154B 87D9              XCHG    BX,CX
0736:154D 87EC              XCHG    BP,SP
0736:154F 87FE              XCHG    DI,SI
0736:1551 87F9              XCHG    DI,CX
0736:1553 87F7              XCHG    SI,DI
0736:1555 87CD              XCHG    CX,BP
0736:1557 87EA              XCHG    BP,DX
0736:1559 8607              XCHG    AL,[BX]
0736:155B 864E00            XCHG    CL,[BP+00]
0736:155E 8600              XCHG    AL,[BX+SI]
0736:1560 86964523          XCHG    DL,[BP+2345]
0736:1564 86B45423          XCHG    DH,[SI+2354]
0736:1568 8737              XCHG    SI,[BX]
0736:156A 870B              XCHG    CX,[BP+DI]
0736:156C 874015            XCHG    AX,[BX+SI+15]
0736:156F 87AB4523          XCHG    BP,[BP+DI+2345]
0736:1573 87945423          XCHG    DX,[SI+2354]
0736:1577 90                NOP
0736:1578 91                XCHG    AX,CX
0736:1579 92                XCHG    AX,DX
0736:157A 93                XCHG    AX,BX
0736:157B 94                XCHG    AX,SP
0736:157C 95                XCHG    AX,BP
0736:157D 96                XCHG    AX,SI
0736:157E 97                XCHG    AX,DI
0736:157F E412              IN      AL,12
0736:1581 E515              IN      AX,15
0736:1583 EC                IN      AL,DX
0736:1584 ED                IN      AX,DX
0736:1585 E617              OUT     17,AL
0736:1587 E745              OUT     45,AX
0736:1589 EE                OUT     DX,AL
0736:158A EF                OUT     DX,AX
0736:158B D7                XLATB
0736:158C 8D985423          LEA     BX,[BX+SI+2354]
0736:1590 8D4A54            LEA     CX,[BP+SI+54]
0736:1593 8D5600            LEA     DX,[BP+00]
0736:1596 8D3E1200          LEA     DI,[0012]
0736:159A C4985423          LES     BX,[BX+SI+2354]
0736:159E C54A54            LDS     CX,[BP+SI+54]
0736:15A1 C45600            LES     DX,[BP+00]
0736:15A4 9F                LAHF
0736:15A5 9E                SAHF
0736:15A6 9C                PUSHF
0736:15A7 9D                POPF
0736:15A8 030F              ADD     CX,[BX]
0736:15AA 035778            ADD     DX,[BX+78]
0736:15AD 039F5634          ADD     BX,[BX+3456]
0736:15B1 0330              ADD     SI,[BX+SI]
0736:15B3 037879            ADD     DI,[BX+SI+79]
0736:15B6 03A87856          ADD     BP,[BX+SI+5678]
0736:15BA 0331              ADD     SI,[BX+DI]
0736:15BC 037929            ADD     DI,[BX+DI+29]
0736:15BF 03A97856          ADD     BP,[BX+DI+5678]
0736:15C3 0324              ADD     SP,[SI]
0736:15C5 035428            ADD     DX,[SI+28]
0736:15C8 039C5634          ADD     BX,[SI+3456]
0736:15CC 0305              ADD     AX,[DI]
0736:15CE 035558            ADD     DX,[DI+58]
0736:15D1 039D5634          ADD     BX,[DI+3456]
0736:15D5 034E00            ADD     CX,[BP+00]
0736:15D8 035658            ADD     DX,[BP+58]
0736:15DB 039E5634          ADD     BX,[BP+3456]
0736:15DF 0332              ADD     SI,[BP+SI]
0736:15E1 037A39            ADD     DI,[BP+SI+39]
0736:15E4 03AA7856          ADD     BP,[BP+SI+5678]
0736:15E8 0333              ADD     SI,[BP+DI]
0736:15EA 037B49            ADD     DI,[BP+DI+49]
0736:15ED 03AB7856          ADD     BP,[BP+DI+5678]
0736:15F1 010F              ADD     [BX],CX
0736:15F3 015778            ADD     [BX+78],DX
0736:15F6 019F5634          ADD     [BX+3456],BX
0736:15FA 0100              ADD     [BX+SI],AX
0736:15FC 016069            ADD     [BX+SI+69],SP
0736:15FF 01B87856          ADD     [BX+SI+5678],DI
0736:1603 0129              ADD     [BX+DI],BP
0736:1605 017149            ADD     [BX+DI+49],SI
0736:1608 01B97856          ADD     [BX+DI+5678],DI
0736:160C 0104              ADD     [SI],AX
0736:160E 014C78            ADD     [SI+78],CX
0736:1611 01945634          ADD     [SI+3456],DX
0736:1615 012D              ADD     [DI],BP
0736:1617 016578            ADD     [DI+78],SP
0736:161A 01B55634          ADD     [DI+3456],SI
0736:161E 017E00            ADD     [BP+00],DI
0736:1621 014E78            ADD     [BP+78],CX
0736:1624 01965634          ADD     [BP+3456],DX
0736:1628 0132              ADD     [BP+SI],SI
0736:162A 017A59            ADD     [BP+SI+59],DI
0736:162D 01827856          ADD     [BP+SI+5678],AX
0736:1631 013B              ADD     [BP+DI],DI
0736:1633 015B19            ADD     [BP+DI+19],BX
0736:1636 01937856          ADD     [BP+DI+5678],DX
0736:163A 0205              ADD     AL,[DI]
0736:163C 026578            ADD     AH,[DI+78]
0736:163F 02BD5634          ADD     BH,[DI+3456]
0736:1643 024E00            ADD     CL,[BP+00]
0736:1646 025678            ADD     DL,[BP+78]
0736:1649 029E5634          ADD     BL,[BP+3456]
0736:164D 022A              ADD     CH,[BP+SI]
0736:164F 007578            ADD     [DI+78],DH
0736:1652 00955634          ADD     [DI+3456],DL
0736:1656 006E00            ADD     [BP+00],CH
0736:1659 004E56            ADD     [BP+56],CL
0736:165C 00BE5634          ADD     [BP+3456],BH
0736:1660 001A              ADD     [BP+SI],BL
0736:1662 006245            ADD     [BP+SI+45],AH
0736:1665 00827856          ADD     [BP+SI+5678],AL
0736:1669 80457815          ADD     BYTE PTR [DI+78],15
0736:166D 8085563416        ADD     BYTE PTR [DI+3456],16
0736:1672 80460028          ADD     BYTE PTR [BP+00],28
0736:1676 80465688          ADD     BYTE PTR [BP+56],88
0736:167A 818656343412      ADD     WORD PTR [BP+3456],1234
0736:1680 81021534          ADD     WORD PTR [BP+SI],3415
0736:1684 8142458547        ADD     WORD PTR [BP+SI+45],4785
0736:1689 818278563615      ADD     WORD PTR [BP+SI+5678],1536
0736:168F 8386563412        ADD     WORD PTR [BP+3456],+12
0736:1694 830235            ADD     WORD PTR [BP+SI],+35
0736:1697 83424545          ADD     WORD PTR [BP+SI+45],+45
0736:169B 8382785616        ADD     WORD PTR [BP+SI+5678],+16
0736:16A0 80C115            ADD     CL,15
0736:16A3 80C516            ADD     CH,16
0736:16A6 80C228            ADD     DL,28
0736:16A9 80C488            ADD     AH,88
0736:16AC 81C33412          ADD     BX,1234
0736:16B0 81C71534          ADD     DI,3415
0736:16B4 81C48547          ADD     SP,4785
0736:16B8 81C53615          ADD     BP,1536
0736:16BC 83C314            ADD     BX,+14
0736:16BF 83C635            ADD     SI,+35
0736:16C2 83C465            ADD     SP,+65
0736:16C5 83C516            ADD     BP,+16
0736:16C8 0417              ADD     AL,17
0736:16CA 051752            ADD     AX,5217
0736:16CD 130F              ADC     CX,[BX]
0736:16CF 135778            ADC     DX,[BX+78]
0736:16D2 139F5634          ADC     BX,[BX+3456]
0736:16D6 1330              ADC     SI,[BX+SI]
0736:16D8 137879            ADC     DI,[BX+SI+79]
0736:16DB 13A87856          ADC     BP,[BX+SI+5678]
0736:16DF 1331              ADC     SI,[BX+DI]
0736:16E1 137929            ADC     DI,[BX+DI+29]
0736:16E4 13A97856          ADC     BP,[BX+DI+5678]
0736:16E8 1324              ADC     SP,[SI]
0736:16EA 135428            ADC     DX,[SI+28]
0736:16ED 139C5634          ADC     BX,[SI+3456]
0736:16F1 1305              ADC     AX,[DI]
0736:16F3 135558            ADC     DX,[DI+58]
0736:16F6 139D5634          ADC     BX,[DI+3456]
0736:16FA 134E00            ADC     CX,[BP+00]
0736:16FD 135658            ADC     DX,[BP+58]
0736:1700 139E5634          ADC     BX,[BP+3456]
0736:1704 1332              ADC     SI,[BP+SI]
0736:1706 137A39            ADC     DI,[BP+SI+39]
0736:1709 13AA7856          ADC     BP,[BP+SI+5678]
0736:170D 1333              ADC     SI,[BP+DI]
0736:170F 137B49            ADC     DI,[BP+DI+49]
0736:1712 13AB7856          ADC     BP,[BP+DI+5678]
0736:1716 110F              ADC     [BX],CX
0736:1718 115778            ADC     [BX+78],DX
0736:171B 119F5634          ADC     [BX+3456],BX
0736:171F 1100              ADC     [BX+SI],AX
0736:1721 116069            ADC     [BX+SI+69],SP
0736:1724 11B87856          ADC     [BX+SI+5678],DI
0736:1728 1129              ADC     [BX+DI],BP
0736:172A 117149            ADC     [BX+DI+49],SI
0736:172D 11B97856          ADC     [BX+DI+5678],DI
0736:1731 1104              ADC     [SI],AX
0736:1733 114C78            ADC     [SI+78],CX
0736:1736 11945634          ADC     [SI+3456],DX
0736:173A 112D              ADC     [DI],BP
0736:173C 116578            ADC     [DI+78],SP
0736:173F 11B55634          ADC     [DI+3456],SI
0736:1743 117E00            ADC     [BP+00],DI
0736:1746 114E78            ADC     [BP+78],CX
0736:1749 11965634          ADC     [BP+3456],DX
0736:174D 1132              ADC     [BP+SI],SI
0736:174F 117A59            ADC     [BP+SI+59],DI
0736:1752 11827856          ADC     [BP+SI+5678],AX
0736:1756 113B              ADC     [BP+DI],DI
0736:1758 115B19            ADC     [BP+DI+19],BX
0736:175B 11937856          ADC     [BP+DI+5678],DX
0736:175F 1205              ADC     AL,[DI]
0736:1761 126578            ADC     AH,[DI+78]
0736:1764 12BD5634          ADC     BH,[DI+3456]
0736:1768 124E00            ADC     CL,[BP+00]
0736:176B 125678            ADC     DL,[BP+78]
0736:176E 129E5634          ADC     BL,[BP+3456]
0736:1772 122A              ADC     CH,[BP+SI]
0736:1774 107578            ADC     [DI+78],DH
0736:1777 10955634          ADC     [DI+3456],DL
0736:177B 106E00            ADC     [BP+00],CH
0736:177E 104E56            ADC     [BP+56],CL
0736:1781 10BE5634          ADC     [BP+3456],BH
0736:1785 101A              ADC     [BP+SI],BL
0736:1787 106245            ADC     [BP+SI+45],AH
0736:178A 10827856          ADC     [BP+SI+5678],AL
0736:178E 80557815          ADC     BYTE PTR [DI+78],15
0736:1792 8095563416        ADC     BYTE PTR [DI+3456],16
0736:1797 80560028          ADC     BYTE PTR [BP+00],28
0736:179B 80565688          ADC     BYTE PTR [BP+56],88
0736:179F 819656343412      ADC     WORD PTR [BP+3456],1234
0736:17A5 81121534          ADC     WORD PTR [BP+SI],3415
0736:17A9 8152458547        ADC     WORD PTR [BP+SI+45],4785
0736:17AE 819278563615      ADC     WORD PTR [BP+SI+5678],1536
0736:17B4 8396563412        ADC     WORD PTR [BP+3456],+12
0736:17B9 831235            ADC     WORD PTR [BP+SI],+35
0736:17BC 83524545          ADC     WORD PTR [BP+SI+45],+45
0736:17C0 8392785616        ADC     WORD PTR [BP+SI+5678],+16
0736:17C5 80D115            ADC     CL,15
0736:17C8 80D516            ADC     CH,16
0736:17CB 80D228            ADC     DL,28
0736:17CE 80D488            ADC     AH,88
0736:17D1 81D33412          ADC     BX,1234
0736:17D5 81D71534          ADC     DI,3415
0736:17D9 81D48547          ADC     SP,4785
0736:17DD 81D53615          ADC     BP,1536
0736:17E1 83D314            ADC     BX,+14
0736:17E4 83D635            ADC     SI,+35
0736:17E7 83D465            ADC     SP,+65
0736:17EA 83D516            ADC     BP,+16
0736:17ED 0417              ADD     AL,17
0736:17EF 051752            ADD     AX,5217
0736:17F2 3B0F              CMP     CX,[BX]
0736:17F4 3B5778            CMP     DX,[BX+78]
0736:17F7 3B9F5634          CMP     BX,[BX+3456]
0736:17FB 3B30              CMP     SI,[BX+SI]
0736:17FD 3B7879            CMP     DI,[BX+SI+79]
0736:1800 3BA87856          CMP     BP,[BX+SI+5678]
0736:1804 3B31              CMP     SI,[BX+DI]
0736:1806 3B7929            CMP     DI,[BX+DI+29]
0736:1809 3BA97856          CMP     BP,[BX+DI+5678]
0736:180D 3B24              CMP     SP,[SI]
0736:180F 3B5428            CMP     DX,[SI+28]
0736:1812 3B9C5634          CMP     BX,[SI+3456]
0736:1816 3B05              CMP     AX,[DI]
0736:1818 3B5558            CMP     DX,[DI+58]
0736:181B 3B9D5634          CMP     BX,[DI+3456]
0736:181F 3B4E00            CMP     CX,[BP+00]
0736:1822 3B5658            CMP     DX,[BP+58]
0736:1825 3B9E5634          CMP     BX,[BP+3456]
0736:1829 3B32              CMP     SI,[BP+SI]
0736:182B 3B7A39            CMP     DI,[BP+SI+39]
0736:182E 3BAA7856          CMP     BP,[BP+SI+5678]
0736:1832 3B33              CMP     SI,[BP+DI]
0736:1834 3B7B49            CMP     DI,[BP+DI+49]
0736:1837 3BAB7856          CMP     BP,[BP+DI+5678]
0736:183B 390F              CMP     [BX],CX
0736:183D 395778            CMP     [BX+78],DX
0736:1840 399F5634          CMP     [BX+3456],BX
0736:1844 3900              CMP     [BX+SI],AX
0736:1846 396069            CMP     [BX+SI+69],SP
0736:1849 39B87856          CMP     [BX+SI+5678],DI
0736:184D 3929              CMP     [BX+DI],BP
0736:184F 397149            CMP     [BX+DI+49],SI
0736:1852 39B97856          CMP     [BX+DI+5678],DI
0736:1856 3904              CMP     [SI],AX
0736:1858 394C78            CMP     [SI+78],CX
0736:185B 39945634          CMP     [SI+3456],DX
0736:185F 392D              CMP     [DI],BP
0736:1861 396578            CMP     [DI+78],SP
0736:1864 39B55634          CMP     [DI+3456],SI
0736:1868 397E00            CMP     [BP+00],DI
0736:186B 394E78            CMP     [BP+78],CX
0736:186E 39965634          CMP     [BP+3456],DX
0736:1872 3932              CMP     [BP+SI],SI
0736:1874 397A59            CMP     [BP+SI+59],DI
0736:1877 39827856          CMP     [BP+SI+5678],AX
0736:187B 393B              CMP     [BP+DI],DI
0736:187D 395B19            CMP     [BP+DI+19],BX
0736:1880 39937856          CMP     [BP+DI+5678],DX
0736:1884 3A05              CMP     AL,[DI]
0736:1886 3A6578            CMP     AH,[DI+78]
0736:1889 3ABD5634          CMP     BH,[DI+3456]
0736:188D 3A4E00            CMP     CL,[BP+00]
0736:1890 3A5678            CMP     DL,[BP+78]
0736:1893 3A9E5634          CMP     BL,[BP+3456]
0736:1897 3A2A              CMP     CH,[BP+SI]
0736:1899 387578            CMP     [DI+78],DH
0736:189C 38955634          CMP     [DI+3456],DL
0736:18A0 386E00            CMP     [BP+00],CH
0736:18A3 384E56            CMP     [BP+56],CL
0736:18A6 38BE5634          CMP     [BP+3456],BH
0736:18AA 381A              CMP     [BP+SI],BL
0736:18AC 386245            CMP     [BP+SI+45],AH
0736:18AF 38827856          CMP     [BP+SI+5678],AL
0736:18B3 807D7815          CMP     BYTE PTR [DI+78],15
0736:18B7 80BD563416        CMP     BYTE PTR [DI+3456],16
0736:18BC 807E0028          CMP     BYTE PTR [BP+00],28
0736:18C0 807E5688          CMP     BYTE PTR [BP+56],88
0736:18C4 81BE56343412      CMP     WORD PTR [BP+3456],1234
0736:18CA 813A1534          CMP     WORD PTR [BP+SI],3415
0736:18CE 817A458547        CMP     WORD PTR [BP+SI+45],4785
0736:18D3 81BA78563615      CMP     WORD PTR [BP+SI+5678],1536
0736:18D9 83BE563412        CMP     WORD PTR [BP+3456],+12
0736:18DE 833A35            CMP     WORD PTR [BP+SI],+35
0736:18E1 837A4545          CMP     WORD PTR [BP+SI+45],+45
0736:18E5 83BA785616        CMP     WORD PTR [BP+SI+5678],+16
0736:18EA 80F915            CMP     CL,15
0736:18ED 80FD16            CMP     CH,16
0736:18F0 80FA28            CMP     DL,28
0736:18F3 80FC88            CMP     AH,88
0736:18F6 81FB3412          CMP     BX,1234
0736:18FA 81FF1534          CMP     DI,3415
0736:18FE 81FC8547          CMP     SP,4785
0736:1902 81FD3615          CMP     BP,1536
0736:1906 83FB14            CMP     BX,+14
0736:1909 83FE35            CMP     SI,+35
0736:190C 83FC65            CMP     SP,+65
0736:190F 83FD16            CMP     BP,+16
0736:1912 0417              ADD     AL,17
0736:1914 051752            ADD     AX,5217
0736:1917 2B0F              SUB     CX,[BX]
0736:1919 2B5778            SUB     DX,[BX+78]
0736:191C 2B9F5634          SUB     BX,[BX+3456]
0736:1920 2B30              SUB     SI,[BX+SI]
0736:1922 2B7879            SUB     DI,[BX+SI+79]
0736:1925 2BA87856          SUB     BP,[BX+SI+5678]
0736:1929 2B31              SUB     SI,[BX+DI]
0736:192B 2B7929            SUB     DI,[BX+DI+29]
0736:192E 2BA97856          SUB     BP,[BX+DI+5678]
0736:1932 2B24              SUB     SP,[SI]
0736:1934 2B5428            SUB     DX,[SI+28]
0736:1937 2B9C5634          SUB     BX,[SI+3456]
0736:193B 2B05              SUB     AX,[DI]
0736:193D 2B5558            SUB     DX,[DI+58]
0736:1940 2B9D5634          SUB     BX,[DI+3456]
0736:1944 2B4E00            SUB     CX,[BP+00]
0736:1947 2B5658            SUB     DX,[BP+58]
0736:194A 2B9E5634          SUB     BX,[BP+3456]
0736:194E 2B32              SUB     SI,[BP+SI]
0736:1950 2B7A39            SUB     DI,[BP+SI+39]
0736:1953 2BAA7856          SUB     BP,[BP+SI+5678]
0736:1957 2B33              SUB     SI,[BP+DI]
0736:1959 2B7B49            SUB     DI,[BP+DI+49]
0736:195C 2BAB7856          SUB     BP,[BP+DI+5678]
0736:1960 290F              SUB     [BX],CX
0736:1962 295778            SUB     [BX+78],DX
0736:1965 299F5634          SUB     [BX+3456],BX
0736:1969 2900              SUB     [BX+SI],AX
0736:196B 296069            SUB     [BX+SI+69],SP
0736:196E 29B87856          SUB     [BX+SI+5678],DI
0736:1972 2929              SUB     [BX+DI],BP
0736:1974 297149            SUB     [BX+DI+49],SI
0736:1977 29B97856          SUB     [BX+DI+5678],DI
0736:197B 2904              SUB     [SI],AX
0736:197D 294C78            SUB     [SI+78],CX
0736:1980 29945634          SUB     [SI+3456],DX
0736:1984 292D              SUB     [DI],BP
0736:1986 296578            SUB     [DI+78],SP
0736:1989 29B55634          SUB     [DI+3456],SI
0736:198D 297E00            SUB     [BP+00],DI
0736:1990 294E78            SUB     [BP+78],CX
0736:1993 29965634          SUB     [BP+3456],DX
0736:1997 2932              SUB     [BP+SI],SI
0736:1999 297A59            SUB     [BP+SI+59],DI
0736:199C 29827856          SUB     [BP+SI+5678],AX
0736:19A0 293B              SUB     [BP+DI],DI
0736:19A2 295B19            SUB     [BP+DI+19],BX
0736:19A5 29937856          SUB     [BP+DI+5678],DX
0736:19A9 2A05              SUB     AL,[DI]
0736:19AB 2A6578            SUB     AH,[DI+78]
0736:19AE 2ABD5634          SUB     BH,[DI+3456]
0736:19B2 2A4E00            SUB     CL,[BP+00]
0736:19B5 2A5678            SUB     DL,[BP+78]
0736:19B8 2A9E5634          SUB     BL,[BP+3456]
0736:19BC 2A2A              SUB     CH,[BP+SI]
0736:19BE 287578            SUB     [DI+78],DH
0736:19C1 28955634          SUB     [DI+3456],DL
0736:19C5 286E00            SUB     [BP+00],CH
0736:19C8 284E56            SUB     [BP+56],CL
0736:19CB 28BE5634          SUB     [BP+3456],BH
0736:19CF 281A              SUB     [BP+SI],BL
0736:19D1 286245            SUB     [BP+SI+45],AH
0736:19D4 28827856          SUB     [BP+SI+5678],AL
0736:19D8 806D7815          SUB     BYTE PTR [DI+78],15
0736:19DC 80AD563416        SUB     BYTE PTR [DI+3456],16
0736:19E1 806E0028          SUB     BYTE PTR [BP+00],28
0736:19E5 806E5688          SUB     BYTE PTR [BP+56],88
0736:19E9 81AE56343412      SUB     WORD PTR [BP+3456],1234
0736:19EF 812A1534          SUB     WORD PTR [BP+SI],3415
0736:19F3 816A458547        SUB     WORD PTR [BP+SI+45],4785
0736:19F8 81AA78563615      SUB     WORD PTR [BP+SI+5678],1536
0736:19FE 83AE563412        SUB     WORD PTR [BP+3456],+12
0736:1A03 832A35            SUB     WORD PTR [BP+SI],+35
0736:1A06 836A4545          SUB     WORD PTR [BP+SI+45],+45
0736:1A0A 83AA785616        SUB     WORD PTR [BP+SI+5678],+16
0736:1A0F 80E915            SUB     CL,15
0736:1A12 80ED16            SUB     CH,16
0736:1A15 80EA28            SUB     DL,28
0736:1A18 80EC88            SUB     AH,88
0736:1A1B 81EB3412          SUB     BX,1234
0736:1A1F 81EF1534          SUB     DI,3415
0736:1A23 81EC8547          SUB     SP,4785
0736:1A27 81ED3615          SUB     BP,1536
0736:1A2B 83EB14            SUB     BX,+14
0736:1A2E 83EE35            SUB     SI,+35
0736:1A31 83EC65            SUB     SP,+65
0736:1A34 83ED16            SUB     BP,+16
0736:1A37 0417              ADD     AL,17
0736:1A39 051752            ADD     AX,5217
0736:1A3C 1B0F              SBB     CX,[BX]
0736:1A3E 1B5778            SBB     DX,[BX+78]
0736:1A41 1B9F5634          SBB     BX,[BX+3456]
0736:1A45 1B30              SBB     SI,[BX+SI]
0736:1A47 1B7879            SBB     DI,[BX+SI+79]
0736:1A4A 1BA87856          SBB     BP,[BX+SI+5678]
0736:1A4E 1B31              SBB     SI,[BX+DI]
0736:1A50 1B7929            SBB     DI,[BX+DI+29]
0736:1A53 1BA97856          SBB     BP,[BX+DI+5678]
0736:1A57 1B24              SBB     SP,[SI]
0736:1A59 1B5428            SBB     DX,[SI+28]
0736:1A5C 1B9C5634          SBB     BX,[SI+3456]
0736:1A60 1B05              SBB     AX,[DI]
0736:1A62 1B5558            SBB     DX,[DI+58]
0736:1A65 1B9D5634          SBB     BX,[DI+3456]
0736:1A69 1B4E00            SBB     CX,[BP+00]
0736:1A6C 1B5658            SBB     DX,[BP+58]
0736:1A6F 1B9E5634          SBB     BX,[BP+3456]
0736:1A73 1B32              SBB     SI,[BP+SI]
0736:1A75 1B7A39            SBB     DI,[BP+SI+39]
0736:1A78 1BAA7856          SBB     BP,[BP+SI+5678]
0736:1A7C 1B33              SBB     SI,[BP+DI]
0736:1A7E 1B7B49            SBB     DI,[BP+DI+49]
0736:1A81 1BAB7856          SBB     BP,[BP+DI+5678]
0736:1A85 190F              SBB     [BX],CX
0736:1A87 195778            SBB     [BX+78],DX
0736:1A8A 199F5634          SBB     [BX+3456],BX
0736:1A8E 1900              SBB     [BX+SI],AX
0736:1A90 196069            SBB     [BX+SI+69],SP
0736:1A93 19B87856          SBB     [BX+SI+5678],DI
0736:1A97 1929              SBB     [BX+DI],BP
0736:1A99 197149            SBB     [BX+DI+49],SI
0736:1A9C 19B97856          SBB     [BX+DI+5678],DI
0736:1AA0 1904              SBB     [SI],AX
0736:1AA2 194C78            SBB     [SI+78],CX
0736:1AA5 19945634          SBB     [SI+3456],DX
0736:1AA9 192D              SBB     [DI],BP
0736:1AAB 196578            SBB     [DI+78],SP
0736:1AAE 19B55634          SBB     [DI+3456],SI
0736:1AB2 197E00            SBB     [BP+00],DI
0736:1AB5 194E78            SBB     [BP+78],CX
0736:1AB8 19965634          SBB     [BP+3456],DX
0736:1ABC 1932              SBB     [BP+SI],SI
0736:1ABE 197A59            SBB     [BP+SI+59],DI
0736:1AC1 19827856          SBB     [BP+SI+5678],AX
0736:1AC5 193B              SBB     [BP+DI],DI
0736:1AC7 195B19            SBB     [BP+DI+19],BX
0736:1ACA 19937856          SBB     [BP+DI+5678],DX
0736:1ACE 1A05              SBB     AL,[DI]
0736:1AD0 1A6578            SBB     AH,[DI+78]
0736:1AD3 1ABD5634          SBB     BH,[DI+3456]
0736:1AD7 1A4E00            SBB     CL,[BP+00]
0736:1ADA 1A5678            SBB     DL,[BP+78]
0736:1ADD 1A9E5634          SBB     BL,[BP+3456]
0736:1AE1 1A2A              SBB     CH,[BP+SI]
0736:1AE3 187578            SBB     [DI+78],DH
0736:1AE6 18955634          SBB     [DI+3456],DL
0736:1AEA 186E00            SBB     [BP+00],CH
0736:1AED 184E56            SBB     [BP+56],CL
0736:1AF0 18BE5634          SBB     [BP+3456],BH
0736:1AF4 181A              SBB     [BP+SI],BL
0736:1AF6 186245            SBB     [BP+SI+45],AH
0736:1AF9 18827856          SBB     [BP+SI+5678],AL
0736:1AFD 805D7815          SBB     BYTE PTR [DI+78],15
0736:1B01 809D563416        SBB     BYTE PTR [DI+3456],16
0736:1B06 805E0028          SBB     BYTE PTR [BP+00],28
0736:1B0A 805E5688          SBB     BYTE PTR [BP+56],88
0736:1B0E 819E56343412      SBB     WORD PTR [BP+3456],1234
0736:1B14 811A1534          SBB     WORD PTR [BP+SI],3415
0736:1B18 815A458547        SBB     WORD PTR [BP+SI+45],4785
0736:1B1D 819A78563615      SBB     WORD PTR [BP+SI+5678],1536
0736:1B23 839E563412        SBB     WORD PTR [BP+3456],+12
0736:1B28 831A35            SBB     WORD PTR [BP+SI],+35
0736:1B2B 835A4545          SBB     WORD PTR [BP+SI+45],+45
0736:1B2F 839A785616        SBB     WORD PTR [BP+SI+5678],+16
0736:1B34 80D915            SBB     CL,15
0736:1B37 80DD16            SBB     CH,16
0736:1B3A 80DA28            SBB     DL,28
0736:1B3D 80DC88            SBB     AH,88
0736:1B40 81DB3412          SBB     BX,1234
0736:1B44 81DF1534          SBB     DI,3415
0736:1B48 81DC8547          SBB     SP,4785
0736:1B4C 81DD3615          SBB     BP,1536
0736:1B50 83DB14            SBB     BX,+14
0736:1B53 83DE35            SBB     SI,+35
0736:1B56 83DC65            SBB     SP,+65
0736:1B59 83DD16            SBB     BP,+16
0736:1B5C 0417              ADD     AL,17
0736:1B5E 051752            ADD     AX,5217
0736:1B61 F727              MUL     WORD PTR [BX]
0736:1B63 F76778            MUL     WORD PTR [BX+78]
0736:1B66 F7A75634          MUL     WORD PTR [BX+3456]
0736:1B6A F720              MUL     WORD PTR [BX+SI]
0736:1B6C F76079            MUL     WORD PTR [BX+SI+79]
0736:1B6F F7A07856          MUL     WORD PTR [BX+SI+5678]
0736:1B73 F721              MUL     WORD PTR [BX+DI]
0736:1B75 F76129            MUL     WORD PTR [BX+DI+29]
0736:1B78 F7A17856          MUL     WORD PTR [BX+DI+5678]
0736:1B7C F724              MUL     WORD PTR [SI]
0736:1B7E F76428            MUL     WORD PTR [SI+28]
0736:1B81 F7A45634          MUL     WORD PTR [SI+3456]
0736:1B85 F725              MUL     WORD PTR [DI]
0736:1B87 F76558            MUL     WORD PTR [DI+58]
0736:1B8A F7A55634          MUL     WORD PTR [DI+3456]
0736:1B8E F7E5              MUL     BP
0736:1B90 F76658            MUL     WORD PTR [BP+58]
0736:1B93 F7A65634          MUL     WORD PTR [BP+3456]
0736:1B97 F7E1              MUL     CX
0736:1B99 F76239            MUL     WORD PTR [BP+SI+39]
0736:1B9C F7A27856          MUL     WORD PTR [BP+SI+5678]
0736:1BA0 F7E2              MUL     DX
0736:1BA2 F76349            MUL     WORD PTR [BP+DI+49]
0736:1BA5 F7E6              MUL     SI
0736:1BA7 F66578            MUL     BYTE PTR [DI+78]
0736:1BAA F6A55634          MUL     BYTE PTR [DI+3456]
0736:1BAE F6E6              MUL     DH
0736:1BB0 F66678            MUL     BYTE PTR [BP+78]
0736:1BB3 F6A65634          MUL     BYTE PTR [BP+3456]
0736:1BB7 F6E4              MUL     AH
0736:1BB9 F6E3              MUL     BL
0736:1BBB F6A55634          MUL     BYTE PTR [DI+3456]
0736:1BBF F72F              IMUL    WORD PTR [BX]
0736:1BC1 F76F78            IMUL    WORD PTR [BX+78]
0736:1BC4 F7AF5634          IMUL    WORD PTR [BX+3456]
0736:1BC8 F728              IMUL    WORD PTR [BX+SI]
0736:1BCA F76879            IMUL    WORD PTR [BX+SI+79]
0736:1BCD F7A87856          IMUL    WORD PTR [BX+SI+5678]
0736:1BD1 F729              IMUL    WORD PTR [BX+DI]
0736:1BD3 F76929            IMUL    WORD PTR [BX+DI+29]
0736:1BD6 F7A97856          IMUL    WORD PTR [BX+DI+5678]
0736:1BDA F72C              IMUL    WORD PTR [SI]
0736:1BDC F76C28            IMUL    WORD PTR [SI+28]
0736:1BDF F7AC5634          IMUL    WORD PTR [SI+3456]
0736:1BE3 F72D              IMUL    WORD PTR [DI]
0736:1BE5 F76D58            IMUL    WORD PTR [DI+58]
0736:1BE8 F7AD5634          IMUL    WORD PTR [DI+3456]
0736:1BEC F7ED              IMUL    BP
0736:1BEE F76E58            IMUL    WORD PTR [BP+58]
0736:1BF1 F7AE5634          IMUL    WORD PTR [BP+3456]
0736:1BF5 F7E9              IMUL    CX
0736:1BF7 F76A39            IMUL    WORD PTR [BP+SI+39]
0736:1BFA F7AA7856          IMUL    WORD PTR [BP+SI+5678]
0736:1BFE F7EF              IMUL    DI
0736:1C00 F76B49            IMUL    WORD PTR [BP+DI+49]
0736:1C03 F7EE              IMUL    SI
0736:1C05 F66D78            IMUL    BYTE PTR [DI+78]
0736:1C08 F6AD5634          IMUL    BYTE PTR [DI+3456]
0736:1C0C F6EE              IMUL    DH
0736:1C0E F66E78            IMUL    BYTE PTR [BP+78]
0736:1C11 F6AE5634          IMUL    BYTE PTR [BP+3456]
0736:1C15 F6EC              IMUL    AH
0736:1C17 F6EB              IMUL    BL
0736:1C19 F6AD5634          IMUL    BYTE PTR [DI+3456]
0736:1C1D F737              DIV     WORD PTR [BX]
0736:1C1F F77778            DIV     WORD PTR [BX+78]
0736:1C22 F7B75634          DIV     WORD PTR [BX+3456]
0736:1C26 F730              DIV     WORD PTR [BX+SI]
0736:1C28 F77079            DIV     WORD PTR [BX+SI+79]
0736:1C2B F7B07856          DIV     WORD PTR [BX+SI+5678]
0736:1C2F F731              DIV     WORD PTR [BX+DI]
0736:1C31 F77129            DIV     WORD PTR [BX+DI+29]
0736:1C34 F7B17856          DIV     WORD PTR [BX+DI+5678]
0736:1C38 F734              DIV     WORD PTR [SI]
0736:1C3A F77428            DIV     WORD PTR [SI+28]
0736:1C3D F7B45634          DIV     WORD PTR [SI+3456]
0736:1C41 F735              DIV     WORD PTR [DI]
0736:1C43 F77558            DIV     WORD PTR [DI+58]
0736:1C46 F7B55634          DIV     WORD PTR [DI+3456]
0736:1C4A F7F5              DIV     BP
0736:1C4C F77658            DIV     WORD PTR [BP+58]
0736:1C4F F7B65634          DIV     WORD PTR [BP+3456]
0736:1C53 F7F1              DIV     CX
0736:1C55 F77239            DIV     WORD PTR [BP+SI+39]
0736:1C58 F7B27856          DIV     WORD PTR [BP+SI+5678]
0736:1C5C F7F2              DIV     DX
0736:1C5E F77349            DIV     WORD PTR [BP+DI+49]
0736:1C61 F7F6              DIV     SI
0736:1C63 F67578            DIV     BYTE PTR [DI+78]
0736:1C66 F6B55634          DIV     BYTE PTR [DI+3456]
0736:1C6A F6F6              DIV     DH
0736:1C6C F67678            DIV     BYTE PTR [BP+78]
0736:1C6F F6B65634          DIV     BYTE PTR [BP+3456]
0736:1C73 F6F2              DIV     DL
0736:1C75 F6F3              DIV     BL
0736:1C77 F6B55634          DIV     BYTE PTR [DI+3456]
0736:1C7B F73F              IDIV    WORD PTR [BX]
0736:1C7D F77F78            IDIV    WORD PTR [BX+78]
0736:1C80 F7BF5634          IDIV    WORD PTR [BX+3456]
0736:1C84 F738              IDIV    WORD PTR [BX+SI]
0736:1C86 F77879            IDIV    WORD PTR [BX+SI+79]
0736:1C89 F7B87856          IDIV    WORD PTR [BX+SI+5678]
0736:1C8D F739              IDIV    WORD PTR [BX+DI]
0736:1C8F F77929            IDIV    WORD PTR [BX+DI+29]
0736:1C92 F7B97856          IDIV    WORD PTR [BX+DI+5678]
0736:1C96 F73C              IDIV    WORD PTR [SI]
0736:1C98 F77C28            IDIV    WORD PTR [SI+28]
0736:1C9B F7BC5634          IDIV    WORD PTR [SI+3456]
0736:1C9F F73D              IDIV    WORD PTR [DI]
0736:1CA1 F77D58            IDIV    WORD PTR [DI+58]
0736:1CA4 F7BD5634          IDIV    WORD PTR [DI+3456]
0736:1CA8 F7FD              IDIV    BP
0736:1CAA F77E58            IDIV    WORD PTR [BP+58]
0736:1CAD F7BE5634          IDIV    WORD PTR [BP+3456]
0736:1CB1 F7F8              IDIV    AX
0736:1CB3 F77A39            IDIV    WORD PTR [BP+SI+39]
0736:1CB6 F7BA7856          IDIV    WORD PTR [BP+SI+5678]
0736:1CBA F7FA              IDIV    DX
0736:1CBC F77B49            IDIV    WORD PTR [BP+DI+49]
0736:1CBF F7FE              IDIV    SI
0736:1CC1 F67D78            IDIV    BYTE PTR [DI+78]
0736:1CC4 F6BD5634          IDIV    BYTE PTR [DI+3456]
0736:1CC8 F6FE              IDIV    DH
0736:1CCA F67E78            IDIV    BYTE PTR [BP+78]
0736:1CCD F6BE5634          IDIV    BYTE PTR [BP+3456]
0736:1CD1 F6FC              IDIV    AH
0736:1CD3 F6FB              IDIV    BL
0736:1CD5 F6BD5634          IDIV    BYTE PTR [DI+3456]
0736:1CD9 FF07              INC     WORD PTR [BX]
0736:1CDB FF4778            INC     WORD PTR [BX+78]
0736:1CDE FF875634          INC     WORD PTR [BX+3456]
0736:1CE2 FF00              INC     WORD PTR [BX+SI]
0736:1CE4 FF4079            INC     WORD PTR [BX+SI+79]
0736:1CE7 FF807856          INC     WORD PTR [BX+SI+5678]
0736:1CEB FF01              INC     WORD PTR [BX+DI]
0736:1CED FF4129            INC     WORD PTR [BX+DI+29]
0736:1CF0 FF817856          INC     WORD PTR [BX+DI+5678]
0736:1CF4 FF04              INC     WORD PTR [SI]
0736:1CF6 FF4428            INC     WORD PTR [SI+28]
0736:1CF9 FF845634          INC     WORD PTR [SI+3456]
0736:1CFD FF05              INC     WORD PTR [DI]
0736:1CFF FF4558            INC     WORD PTR [DI+58]
0736:1D02 FF855634          INC     WORD PTR [DI+3456]
0736:1D06 FEC0              INC     AL
0736:1D08 FEC1              INC     CL
0736:1D0A FEC2              INC     DL
0736:1D0C FEC3              INC     BL
0736:1D0E FEC4              INC     AH
0736:1D10 FEC5              INC     CH
0736:1D12 FEC7              INC     BH
0736:1D14 FEC6              INC     DH
0736:1D16 40                INC     AX
0736:1D17 41                INC     CX
0736:1D18 42                INC     DX
0736:1D19 43                INC     BX
0736:1D1A 44                INC     SP
0736:1D1B 45                INC     BP
0736:1D1C 46                INC     SI
0736:1D1D 47                INC     DI
0736:1D1E FF0F              DEC     WORD PTR [BX]
0736:1D20 FF4F78            DEC     WORD PTR [BX+78]
0736:1D23 FF8F5634          DEC     WORD PTR [BX+3456]
0736:1D27 FF08              DEC     WORD PTR [BX+SI]
0736:1D29 FF4879            DEC     WORD PTR [BX+SI+79]
0736:1D2C FF887856          DEC     WORD PTR [BX+SI+5678]
0736:1D30 FF09              DEC     WORD PTR [BX+DI]
0736:1D32 FF4929            DEC     WORD PTR [BX+DI+29]
0736:1D35 FF897856          DEC     WORD PTR [BX+DI+5678]
0736:1D39 FF0C              DEC     WORD PTR [SI]
0736:1D3B FF4C28            DEC     WORD PTR [SI+28]
0736:1D3E FF8C5634          DEC     WORD PTR [SI+3456]
0736:1D42 FF0D              DEC     WORD PTR [DI]
0736:1D44 FF4D58            DEC     WORD PTR [DI+58]
0736:1D47 FF8D5634          DEC     WORD PTR [DI+3456]
0736:1D4B FEC8              DEC     AL
0736:1D4D FEC9              DEC     CL
0736:1D4F FECA              DEC     DL
0736:1D51 FECB              DEC     BL
0736:1D53 FECC              DEC     AH
0736:1D55 FECD              DEC     CH
0736:1D57 FECF              DEC     BH
0736:1D59 FECE              DEC     DH
0736:1D5B 48                DEC     AX
0736:1D5C 49                DEC     CX
0736:1D5D 4A                DEC     DX
0736:1D5E 4B                DEC     BX
0736:1D5F 4C                DEC     SP
0736:1D60 4D                DEC     BP
0736:1D61 4E                DEC     SI
0736:1D62 4F                DEC     DI
0736:1D63 37                AAA
0736:1D64 D50A              AAD     0A
0736:1D66 3F                AAS
0736:1D67 D40A              AAM     0A
0736:1D69 D505              AAD     05
0736:1D6B D403              AAM     03
0736:1D6D 27                DAA
0736:1D6E 2F                DAS
0736:1D6F F7DD              NEG     BP
0736:1D71 F75E58            NEG     WORD PTR [BP+58]
0736:1D74 F79E5634          NEG     WORD PTR [BP+3456]
0736:1D78 F7D9              NEG     CX
0736:1D7A F75A39            NEG     WORD PTR [BP+SI+39]
0736:1D7D F79A7856          NEG     WORD PTR [BP+SI+5678]
0736:1D81 F7DA              NEG     DX
0736:1D83 F75B49            NEG     WORD PTR [BP+DI+49]
0736:1D86 F7DE              NEG     SI
0736:1D88 F65D78            NEG     BYTE PTR [DI+78]
0736:1D8B F69D5634          NEG     BYTE PTR [DI+3456]
0736:1D8F F6DE              NEG     DH
0736:1D91 F65E78            NEG     BYTE PTR [BP+78]
0736:1D94 F69E5634          NEG     BYTE PTR [BP+3456]
0736:1D98 F6DC              NEG     AH
0736:1D9A F6DB              NEG     BL
0736:1D9C F69D5634          NEG     BYTE PTR [DI+3456]
0736:1DA0 98                CBW
0736:1DA1 99                CWD
0736:1DA2 E98C55            JMP     7331
0736:1DA5 FC                CLD
0736:1DA6 8CC8              MOV     AX,CS
0736:1DA8 8ED8              MOV     DS,AX
0736:1DAA 8ED0              MOV     SS,AX
0736:1DAC 8B267454          MOV     SP,[5474]
0736:1DB0 C70676540A01      MOV     WORD PTR [5476],010A
0736:1DB6 1E                PUSH    DS
0736:1DB7 07                POP     ES
0736:1DB8 E8920F            CALL    2D4D
0736:1DBB 7503              JNZ     1DC0
0736:1DBD E8372C            CALL    49F7
0736:1DC0 BAD62E            MOV     DX,2ED6
0736:1DC3 B90100            MOV     CX,0001
0736:1DC6 E8D81D            CALL    3BA1
0736:1DC9 3C0D              CMP     AL,0D
0736:1DCB 7507              JNZ     1DD4
0736:1DCD 8B16CC54          MOV     DX,[54CC]
0736:1DD1 4E                DEC     SI
0736:1DD2 EB21              JMP     1DF5
0736:1DD4 3C3B              CMP     AL,3B
0736:1DD6 74D4              JZ      1DAC
0736:1DD8 3C3F              CMP     AL,3F
0736:1DDA 7424              JZ      1E00
0736:1DDC 0C20              OR      AL,20
0736:1DDE 2C61              SUB     AL,61
0736:1DE0 3C17              CMP     AL,17
0736:1DE2 7718              JA      1DFC
0736:1DE4 98                CBW
0736:1DE5 93                XCHG    AX,BX
0736:1DE6 E8F720            CALL    3EE0
0736:1DE9 D1E3              SHL     BX,1
0736:1DEB 8B97EC2D          MOV     DX,[BX+2DEC]
0736:1DEF C706CC545D01      MOV     WORD PTR [54CC],015D
0736:1DF5 BF6856            MOV     DI,5668
0736:1DF8 FFD2              CALL    DX
0736:1DFA EBB0              JMP     1DAC
0736:1DFC E9811B            JMP     3980
0736:1DFF C3                RET
0736:1E00 BAD82E            MOV     DX,2ED8
0736:1E03 B95702            MOV     CX,0257
0736:1E06 E8CF2B            CALL    49D8
0736:1E09 E80B00            CALL    1E17
0736:1E0C BA2F31            MOV     DX,312F
0736:1E0F B9B800            MOV     CX,00B8
0736:1E12 E8C32B            CALL    49D8
0736:1E15 EB95              JMP     1DAC
0736:1E17 803EA75400        CMP     BYTE PTR [54A7],00
0736:1E1C 7528              JNZ     1E46
0736:1E1E F606A85480        TEST    BYTE PTR [54A8],80
0736:1E23 7421              JZ      1E46
0736:1E25 06                PUSH    ES
0736:1E26 B84000            MOV     AX,0040
0736:1E29 8EC0              MOV     ES,AX
0736:1E2B 26803E84001E      CMP     BYTE PTR ES:[0084],1E
0736:1E31 07                POP     ES
0736:1E32 7312              JAE     1E46
0736:1E34 BAE831            MOV     DX,31E8
0736:1E37 B90600            MOV     CX,0006
0736:1E3A E89B2B            CALL    49D8
0736:1E3D B408              MOV     AH,08
0736:1E3F CD21              INT     21
0736:1E41 B00D              MOV     AL,0D
0736:1E43 E82E1D            CALL    3B74
0736:1E46 C3                RET
0736:1E47 E80413            CALL    314E
0736:1E4A 42                INC     DX
0736:1E4B C3                RET
0736:1E4C E306              JCXZ    1E54
0736:1E4E AC                LODSB
0736:1E4F E8F5FF            CALL    1E47
0736:1E52 E2FA              LOOPW   1E4E
0736:1E54 C3                RET
0736:1E55 C7067654CF01      MOV     WORD PTR [5476],01CF
0736:1E5B 3C0D              CMP     AL,0D
0736:1E5D 7412              JZ      1E71
0736:1E5F 8B1E2A55          MOV     BX,[552A]
0736:1E63 E87C1F            CALL    3DE2
0736:1E66 E86C20            CALL    3ED5
0736:1E69 8916B254          MOV     [54B2],DX
0736:1E6D 891EB654          MOV     [54B6],BX
0736:1E71 8B267454          MOV     SP,[5474]
0736:1E75 BF6856            MOV     DI,5668
0736:1E78 A1B654            MOV     AX,[54B6]
0736:1E7B E8192B            CALL    4997
0736:1E7E B03A              MOV     AL,3A
0736:1E80 AA                STOSB
0736:1E81 C6063C5500        MOV     BYTE PTR [553C],00
0736:1E86 BDF52C            MOV     BP,2CF5
0736:1E89 A1B254            MOV     AX,[54B2]
0736:1E8C FFD5              CALL    BP
0736:1E8E B020              MOV     AL,20
0736:1E90 AA                STOSB
0736:1E91 E8061D            CALL    3B9A
0736:1E94 3C0D              CMP     AL,0D
0736:1E96 745E              JZ      1EF6
0736:1E98 3C3B              CMP     AL,3B
0736:1E9A 74D5              JZ      1E71
0736:1E9C C7063D550000      MOV     WORD PTR [553D],0000
0736:1EA2 BF6856            MOV     DI,5668
0736:1EA5 56                PUSH    SI
0736:1EA6 3C61              CMP     AL,61
0736:1EA8 7206              JB      1EB0
0736:1EAA 3C7A              CMP     AL,7A
0736:1EAC 7702              JA      1EB0
0736:1EAE 24DF              AND     AL,DF
0736:1EB0 AA                STOSB
0736:1EB1 AC                LODSB
0736:1EB2 3C0D              CMP     AL,0D
0736:1EB4 7410              JZ      1EC6
0736:1EB6 3C3B              CMP     AL,3B
0736:1EB8 740C              JZ      1EC6
0736:1EBA 3C20              CMP     AL,20
0736:1EBC 7408              JZ      1EC6
0736:1EBE 3C3A              CMP     AL,3A
0736:1EC0 7404              JZ      1EC6
0736:1EC2 3C09              CMP     AL,09
0736:1EC4 75E0              JNZ     1EA6
0736:1EC6 804DFF80          OR      BYTE PTR [DI-01],80
0736:1ECA E83620            CALL    3F03
0736:1ECD 4E                DEC     SI
0736:1ECE 56                PUSH    SI
0736:1ECF BE5238            MOV     SI,3852
0736:1ED2 8BDE              MOV     BX,SI
0736:1ED4 83C602            ADD     SI,+02
0736:1ED7 8BCE              MOV     CX,SI
0736:1ED9 AC                LODSB
0736:1EDA 22C0              AND     AL,AL
0736:1EDC 79FB              JNS     1ED9
0736:1EDE 87CE              XCHG    CX,SI
0736:1EE0 51                PUSH    CX
0736:1EE1 2BCE              SUB     CX,SI
0736:1EE3 BF6856            MOV     DI,5668
0736:1EE6 F3A6              REPE    CMPSB
0736:1EE8 5E                POP     SI
0736:1EE9 740E              JZ      1EF9
0736:1EEB 81FEE741          CMP     SI,41E7
0736:1EEF 72E1              JB      1ED2
0736:1EF1 5E                POP     SI
0736:1EF2 5E                POP     SI
0736:1EF3 E98A1A            JMP     3980
0736:1EF6 E9B3FE            JMP     1DAC
0736:1EF9 8B37              MOV     SI,[BX]
0736:1EFB 81C6664D          ADD     SI,4D66
0736:1EFF 803CF5            CMP     BYTE PTR [SI],F5
0736:1F02 7217              JB      1F1B
0736:1F04 AC                LODSB
0736:1F05 2CF5              SUB     AL,F5
0736:1F07 7447              JZ      1F50
0736:1F09 98                CBW
0736:1F0A 48                DEC     AX
0736:1F0B 741D              JZ      1F2A
0736:1F0D 48                DEC     AX
0736:1F0E 7417              JZ      1F27
0736:1F10 48                DEC     AX
0736:1F11 740B              JZ      1F1E
0736:1F13 3C03              CMP     AL,03
0736:1F15 7359              JAE     1F70
0736:1F17 08063C55          OR      [553C],AL
0736:1F1B E9F500            JMP     2013
0736:1F1E 800E3C5540        OR      BYTE PTR [553C],40
0736:1F23 46                INC     SI
0736:1F24 E9EC00            JMP     2013
0736:1F27 E9D600            JMP     2000
0736:1F2A AC                LODSB
0736:1F2B A23E55            MOV     [553E],AL
0736:1F2E 8AC8              MOV     CL,AL
0736:1F30 800E3C5510        OR      BYTE PTR [553C],10
0736:1F35 5E                POP     SI
0736:1F36 58                POP     AX
0736:1F37 AC                LODSB
0736:1F38 3C3A              CMP     AL,3A
0736:1F3A 75B7              JNZ     1EF3
0736:1F3C E8C31F            CALL    3F02
0736:1F3F 3C0D              CMP     AL,0D
0736:1F41 7404              JZ      1F47
0736:1F43 3C3B              CMP     AL,3B
0736:1F45 75AC              JNZ     1EF3
0736:1F47 BF6856            MOV     DI,5668
0736:1F4A 8AC1              MOV     AL,CL
0736:1F4C AA                STOSB
0736:1F4D E98B00            JMP     1FDB
0736:1F50 AC                LODSB
0736:1F51 86063D55          XCHG    AL,[553D]
0736:1F55 3C00              CMP     AL,00
0736:1F57 7599              JNZ     1EF2
0736:1F59 5E                POP     SI
0736:1F5A 58                POP     AX
0736:1F5B AC                LODSB
0736:1F5C 3C0D              CMP     AL,0D
0736:1F5E 7407              JZ      1F67
0736:1F60 3C3B              CMP     AL,3B
0736:1F62 7403              JZ      1F67
0736:1F64 E93BFF            JMP     1EA2
0736:1F67 A03D55            MOV     AL,[553D]
0736:1F6A BF6856            MOV     DI,5668
0736:1F6D AA                STOSB
0736:1F6E EB6B              JMP     1FDB
0736:1F70 833E3D5500        CMP     WORD PTR [553D],+00
0736:1F75 7403              JZ      1F7A
0736:1F77 E978FF            JMP     1EF2
0736:1F7A 5E                POP     SI
0736:1F7B 2C03              SUB     AL,03
0736:1F7D 7511              JNZ     1F90
0736:1F7F E8801F            CALL    3F02
0736:1F82 3C0D              CMP     AL,0D
0736:1F84 7407              JZ      1F8D
0736:1F86 8B1EB654          MOV     BX,[54B6]
0736:1F8A E9D6FE            JMP     1E63
0736:1F8D E9E1FE            JMP     1E71
0736:1F90 BF6856            MOV     DI,5668
0736:1F93 93                XCHG    AX,BX
0736:1F94 D1E3              SHL     BX,1
0736:1F96 8BAF0A4C          MOV     BP,[BX+4C0A]
0736:1F9A E8651F            CALL    3F02
0736:1F9D 3C0D              CMP     AL,0D
0736:1F9F 743A              JZ      1FDB
0736:1FA1 3C22              CMP     AL,22
0736:1FA3 7419              JZ      1FBE
0736:1FA5 3C27              CMP     AL,27
0736:1FA7 7415              JZ      1FBE
0736:1FA9 E85C08            CALL    2808
0736:1FAC 2E3A4EFF          CMP     CL,CS:[BP-01]
0736:1FB0 7F1E              JG      1FD0
0736:1FB2 93                XCHG    AX,BX
0736:1FB3 FFD5              CALL    BP
0736:1FB5 81FF7057          CMP     DI,5770
0736:1FB9 7715              JA      1FD0
0736:1FBB 93                XCHG    AX,BX
0736:1FBC EB16              JMP     1FD4
0736:1FBE 8AE0              MOV     AH,AL
0736:1FC0 AC                LODSB
0736:1FC1 3C0D              CMP     AL,0D
0736:1FC3 740B              JZ      1FD0
0736:1FC5 3AC4              CMP     AL,AH
0736:1FC7 740A              JZ      1FD3
0736:1FC9 AA                STOSB
0736:1FCA 81FF7057          CMP     DI,5770
0736:1FCE 76F0              JBE     1FC0
0736:1FD0 E920FF            JMP     1EF3
0736:1FD3 AC                LODSB
0736:1FD4 E80A1F            CALL    3EE1
0736:1FD7 3C0D              CMP     AL,0D
0736:1FD9 75C6              JNZ     1FA1
0736:1FDB BE6856            MOV     SI,5668
0736:1FDE 8B1EB654          MOV     BX,[54B6]
0736:1FE2 8B16B254          MOV     DX,[54B2]
0736:1FE6 8BCF              MOV     CX,DI
0736:1FE8 2BCE              SUB     CX,SI
0736:1FEA E85FFE            CALL    1E4C
0736:1FED 8916B254          MOV     [54B2],DX
0736:1FF1 E97DFE            JMP     1E71
0736:1FF4 04AB              ADD     AL,AB
0736:1FF6 92                XCHG    AX,DX
0736:1FF7 AB                STOSW
0736:1FF8 92                XCHG    AX,DX
0736:1FF9 C3                RET
0736:1FFA 02ABC301          ADD     CH,[BP+DI+01C3]
0736:1FFE AA                STOSB
0736:1FFF C3                RET
0736:2000 89363F55          MOV     [553F],SI
0736:2004 5E                POP     SI
0736:2005 AC                LODSB
0736:2006 3C0D              CMP     AL,0D
0736:2008 7404              JZ      200E
0736:200A 3C3B              CMP     AL,3B
0736:200C 750B              JNZ     2019
0736:200E BEBD4B            MOV     SI,4BBD
0736:2011 EB05              JMP     2018
0736:2013 89363F55          MOV     [553F],SI
0736:2017 5E                POP     SI
0736:2018 AC                LODSB
0736:2019 BF6856            MOV     DI,5668
0736:201C 3C0D              CMP     AL,0D
0736:201E 7404              JZ      2024
0736:2020 3C3B              CMP     AL,3B
0736:2022 7503              JNZ     2027
0736:2024 E9F202            JMP     2319
0736:2027 57                PUSH    DI
0736:2028 B90600            MOV     CX,0006
0736:202B 33C0              XOR     AX,AX
0736:202D F3AB              REP     STOSW
0736:202F 5F                POP     DI
0736:2030 4E                DEC     SI
0736:2031 8B04              MOV     AX,[SI]
0736:2033 25DFDF            AND     AX,DFDF
0736:2036 807D0200          CMP     BYTE PTR [DI+02],00
0736:203A 7533              JNZ     206F
0736:203C 57                PUSH    DI
0736:203D BFEE4B            MOV     DI,4BEE
0736:2040 B90C00            MOV     CX,000C
0736:2043 F2AF              REPNE   SCASW
0736:2045 5F                POP     DI
0736:2046 7527              JNZ     206F
0736:2048 0BC9              OR      CX,CX
0736:204A 7509              JNZ     2055
0736:204C 8A4402            MOV     AL,[SI+02]
0736:204F 24DF              AND     AL,DF
0736:2051 3C52              CMP     AL,52
0736:2053 7547              JNZ     209C
0736:2055 80E90C            SUB     CL,0C
0736:2058 F6D9              NEG     CL
0736:205A 884D02            MOV     [DI+02],CL
0736:205D E8981E            CALL    3EF8
0736:2060 8A24              MOV     AH,[SI]
0736:2062 25DFDF            AND     AX,DFDF
0736:2065 3D5054            CMP     AX,5450
0736:2068 75C6              JNZ     2030
0736:206A E88B1E            CALL    3EF8
0736:206D EBC1              JMP     2030
0736:206F 803E3E5500        CMP     BYTE PTR [553E],00
0736:2074 7526              JNZ     209C
0736:2076 57                PUSH    DI
0736:2077 BFC54C            MOV     DI,4CC5
0736:207A B90600            MOV     CX,0006
0736:207D F2AF              REPNE   SCASW
0736:207F 5F                POP     DI
0736:2080 751A              JNZ     209C
0736:2082 56                PUSH    SI
0736:2083 AD                LODSW
0736:2084 E87B1E            CALL    3F02
0736:2087 3C3A              CMP     AL,3A
0736:2089 7510              JNZ     209B
0736:208B 58                POP     AX
0736:208C E8731E            CALL    3F02
0736:208F BBE84C            MOV     BX,4CE8
0736:2092 2BD9              SUB     BX,CX
0736:2094 8A07              MOV     AL,[BX]
0736:2096 A23E55            MOV     [553E],AL
0736:2099 EB95              JMP     2030
0736:209B 5E                POP     SI
0736:209C 57                PUSH    DI
0736:209D BFA54C            MOV     DI,4CA5
0736:20A0 B91B00            MOV     CX,001B
0736:20A3 E8EF07            CALL    2895
0736:20A6 5F                POP     DI
0736:20A7 726F              JB      2118
0736:20A9 800D04            OR      BYTE PTR [DI],04
0736:20AC 885D04            MOV     [DI+04],BL
0736:20AF 80FB18            CMP     BL,18
0736:20B2 730B              JAE     20BF
0736:20B4 93                XCHG    AX,BX
0736:20B5 B103              MOV     CL,03
0736:20B7 D2E8              SHR     AL,CL
0736:20B9 04FE              ADD     AL,FE
0736:20BB 1403              ADC     AL,03
0736:20BD EB4A              JMP     2109
0736:20BF 80350C            XOR     BYTE PTR [DI],0C
0736:20C2 B002              MOV     AL,02
0736:20C4 80FB1E            CMP     BL,1E
0736:20C7 7726              JA      20EF
0736:20C9 740C              JZ      20D7
0736:20CB 80FB1C            CMP     BL,1C
0736:20CE 7239              JB      2109
0736:20D0 800E3C5520        OR      BYTE PTR [553C],20
0736:20D5 EB32              JMP     2109
0736:20D7 803C28            CMP     BYTE PTR [SI],28
0736:20DA 752B              JNZ     2107
0736:20DC AC                LODSB
0736:20DD AC                LODSB
0736:20DE 2C30              SUB     AL,30
0736:20E0 3C07              CMP     AL,07
0736:20E2 7708              JA      20EC
0736:20E4 884505            MOV     [DI+05],AL
0736:20E7 AC                LODSB
0736:20E8 3C29              CMP     AL,29
0736:20EA 741B              JZ      2107
0736:20EC E904FE            JMP     1EF3
0736:20EF AC                LODSB
0736:20F0 2C30              SUB     AL,30
0736:20F2 3C07              CMP     AL,07
0736:20F4 77F6              JA      20EC
0736:20F6 884505            MOV     [DI+05],AL
0736:20F9 B004              MOV     AL,04
0736:20FB 80FB1F            CMP     BL,1F
0736:20FE 7509              JNZ     2109
0736:2100 800D04            OR      BYTE PTR [DI],04
0736:2103 B005              MOV     AL,05
0736:2105 EB02              JMP     2109
0736:2107 B000              MOV     AL,00
0736:2109 3A4502            CMP     AL,[DI+02]
0736:210C 7407              JZ      2115
0736:210E 864502            XCHG    AL,[DI+02]
0736:2111 3C00              CMP     AL,00
0736:2113 75D7              JNZ     20EC
0736:2115 E9E001            JMP     22F8
0736:2118 AC                LODSB
0736:2119 E8D606            CALL    27F2
0736:211C 7236              JB      2154
0736:211E E8E706            CALL    2808
0736:2121 884D07            MOV     [DI+07],CL
0736:2124 895D08            MOV     [DI+08],BX
0736:2127 89550A            MOV     [DI+0A],DX
0736:212A E8D61D            CALL    3F03
0736:212D 80F902            CMP     CL,02
0736:2130 7F22              JG      2154
0736:2132 3C3A              CMP     AL,3A
0736:2134 751E              JNZ     2154
0736:2136 E8C91D            CALL    3F02
0736:2139 E8CC06            CALL    2808
0736:213C 8B4D08            MOV     CX,[DI+08]
0736:213F 894D05            MOV     [DI+05],CX
0736:2142 895D08            MOV     [DI+08],BX
0736:2145 89550A            MOV     [DI+0A],DX
0736:2148 800D20            OR      BYTE PTR [DI],20
0736:214B E9A901            JMP     22F7
0736:214E E9A500            JMP     21F6
0736:2151 E8AE1D            CALL    3F02
0736:2154 3C5B              CMP     AL,5B
0736:2156 75F6              JNZ     214E
0736:2158 800D01            OR      BYTE PTR [DI],01
0736:215B E8A41D            CALL    3F02
0736:215E 3C5D              CMP     AL,5D
0736:2160 74EF              JZ      2151
0736:2162 4E                DEC     SI
0736:2163 57                PUSH    DI
0736:2164 BFB54C            MOV     DI,4CB5
0736:2167 B90800            MOV     CX,0008
0736:216A E82807            CALL    2895
0736:216D 5F                POP     DI
0736:216E 7243              JB      21B3
0736:2170 80FB10            CMP     BL,10
0736:2173 7305              JAE     217A
0736:2175 80C308            ADD     BL,08
0736:2178 EB1D              JMP     2197
0736:217A 807D0500          CMP     BYTE PTR [DI+05],00
0736:217E 7517              JNZ     2197
0736:2180 E87F1D            CALL    3F02
0736:2183 4E                DEC     SI
0736:2184 3C2A              CMP     AL,2A
0736:2186 750F              JNZ     2197
0736:2188 46                INC     SI
0736:2189 885D05            MOV     [DI+05],BL
0736:218C E8731D            CALL    3F02
0736:218F E87606            CALL    2808
0736:2192 E8DD06            CALL    2872
0736:2195 EB51              JMP     21E8
0736:2197 807D0400          CMP     BYTE PTR [DI+04],00
0736:219B 7505              JNZ     21A2
0736:219D 885D04            MOV     [DI+04],BL
0736:21A0 EB09              JMP     21AB
0736:21A2 807D0500          CMP     BYTE PTR [DI+05],00
0736:21A6 7508              JNZ     21B0
0736:21A8 885D05            MOV     [DI+05],BL
0736:21AB E8541D            CALL    3F02
0736:21AE EB38              JMP     21E8
0736:21B0 E940FD            JMP     1EF3
0736:21B3 AC                LODSB
0736:21B4 E85106            CALL    2808
0736:21B7 E8491D            CALL    3F03
0736:21BA 3C2A              CMP     AL,2A
0736:21BC 740B              JZ      21C9
0736:21BE 084D07            OR      [DI+07],CL
0736:21C1 015D08            ADD     [DI+08],BX
0736:21C4 11550A            ADC     [DI+0A],DX
0736:21C7 EB1F              JMP     21E8
0736:21C9 E8A606            CALL    2872
0736:21CC E8331D            CALL    3F02
0736:21CF 4E                DEC     SI
0736:21D0 57                PUSH    DI
0736:21D1 BFB54C            MOV     DI,4CB5
0736:21D4 33C9              XOR     CX,CX
0736:21D6 E8BC06            CALL    2895
0736:21D9 5F                POP     DI
0736:21DA 72D4              JB      21B0
0736:21DC 807D0500          CMP     BYTE PTR [DI+05],00
0736:21E0 75CE              JNZ     21B0
0736:21E2 885D05            MOV     [DI+05],BL
0736:21E5 E81A1D            CALL    3F02
0736:21E8 3C2D              CMP     AL,2D
0736:21EA 74C8              JZ      21B4
0736:21EC 3C2B              CMP     AL,2B
0736:21EE 7503              JNZ     21F3
0736:21F0 E968FF            JMP     215B
0736:21F3 E968FF            JMP     215E
0736:21F6 837D0400          CMP     WORD PTR [DI+04],+00
0736:21FA 752D              JNZ     2229
0736:21FC 807D0700          CMP     BYTE PTR [DI+07],00
0736:2200 7424              JZ      2226
0736:2202 803D00            CMP     BYTE PTR [DI],00
0736:2205 7506              JNZ     220D
0736:2207 800D10            OR      BYTE PTR [DI],10
0736:220A E9EA00            JMP     22F7
0736:220D 800E3C5580        OR      BYTE PTR [553C],80
0736:2212 B002              MOV     AL,02
0736:2214 F6450704          TEST    BYTE PTR [DI+07],04
0736:2218 7407              JZ      2221
0736:221A 40                INC     AX
0736:221B 40                INC     AX
0736:221C 800E3C5504        OR      BYTE PTR [553C],04
0736:2221 884503            MOV     [DI+03],AL
0736:2224 EBE4              JMP     220A
0736:2226 E9CAFC            JMP     1EF3
0736:2229 800D02            OR      BYTE PTR [DI],02
0736:222C 8A4504            MOV     AL,[DI+04]
0736:222F 0A4505            OR      AL,[DI+05]
0736:2232 A810              TEST    AL,10
0736:2234 7525              JNZ     225B
0736:2236 F6450704          TEST    BYTE PTR [DI+07],04
0736:223A 751F              JNZ     225B
0736:223C 800E3C5580        OR      BYTE PTR [553C],80
0736:2241 8B4504            MOV     AX,[DI+04]
0736:2244 3AC4              CMP     AL,AH
0736:2246 7702              JA      224A
0736:2248 86C4              XCHG    AL,AH
0736:224A 57                PUSH    DI
0736:224B BFAD4B            MOV     DI,4BAD
0736:224E B90800            MOV     CX,0008
0736:2251 F2AF              REPNE   SCASW
0736:2253 5F                POP     DI
0736:2254 75D0              JNZ     2226
0736:2256 BB0602            MOV     BX,0206
0736:2259 EB6A              JMP     22C5
0736:225B 800E3C5584        OR      BYTE PTR [553C],84
0736:2260 8A4504            MOV     AL,[DI+04]
0736:2263 0A4506            OR      AL,[DI+06]
0736:2266 7508              JNZ     2270
0736:2268 8B4504            MOV     AX,[DI+04]
0736:226B 86C4              XCHG    AL,AH
0736:226D 894504            MOV     [DI+04],AX
0736:2270 BB0504            MOV     BX,0405
0736:2273 807D0500          CMP     BYTE PTR [DI+05],00
0736:2277 7510              JNZ     2289
0736:2279 8A4D04            MOV     CL,[DI+04]
0736:227C 80F910            CMP     CL,10
0736:227F 7CA5              JL      2226
0736:2281 80E107            AND     CL,07
0736:2284 80F904            CMP     CL,04
0736:2287 753C              JNZ     22C5
0736:2289 800E3C5508        OR      BYTE PTR [553C],08
0736:228E 8A6D06            MOV     CH,[DI+06]
0736:2291 B103              MOV     CL,03
0736:2293 D2E5              SHL     CH,CL
0736:2295 8A4505            MOV     AL,[DI+05]
0736:2298 3C14              CMP     AL,14
0736:229A 748A              JZ      2226
0736:229C 3C00              CMP     AL,00
0736:229E 7502              JNZ     22A2
0736:22A0 B014              MOV     AL,14
0736:22A2 3C10              CMP     AL,10
0736:22A4 7C80              JL      2226
0736:22A6 2407              AND     AL,07
0736:22A8 0AE8              OR      CH,AL
0736:22AA D2E5              SHL     CH,CL
0736:22AC 41                INC     CX
0736:22AD 8A4504            MOV     AL,[DI+04]
0736:22B0 3C00              CMP     AL,00
0736:22B2 7505              JNZ     22B9
0736:22B4 80CD05            OR      CH,05
0736:22B7 EB38              JMP     22F1
0736:22B9 3C10              CMP     AL,10
0736:22BB 7C59              JL      2316
0736:22BD 2407              AND     AL,07
0736:22BF 0AE8              OR      CH,AL
0736:22C1 3C05              CMP     AL,05
0736:22C3 7406              JZ      22CB
0736:22C5 3ACB              CMP     CL,BL
0736:22C7 7402              JZ      22CB
0736:22C9 B300              MOV     BL,00
0736:22CB 51                PUSH    CX
0736:22CC 8A4508            MOV     AL,[DI+08]
0736:22CF B107              MOV     CL,07
0736:22D1 D2F8              SAR     AL,CL
0736:22D3 59                POP     CX
0736:22D4 8A6509            MOV     AH,[DI+09]
0736:22D7 3AC4              CMP     AL,AH
0736:22D9 7513              JNZ     22EE
0736:22DB 3B450A            CMP     AX,[DI+0A]
0736:22DE 750E              JNZ     22EE
0736:22E0 B700              MOV     BH,00
0736:22E2 0A5D08            OR      BL,[DI+08]
0736:22E5 740A              JZ      22F1
0736:22E7 FEC7              INC     BH
0736:22E9 80C940            OR      CL,40
0736:22EC EB03              JMP     22F1
0736:22EE 80C980            OR      CL,80
0736:22F1 887D03            MOV     [DI+03],BH
0736:22F4 894D04            MOV     [DI+04],CX
0736:22F7 4E                DEC     SI
0736:22F8 E8071C            CALL    3F02
0736:22FB 83C70C            ADD     DI,+0C
0736:22FE 3C0D              CMP     AL,0D
0736:2300 7417              JZ      2319
0736:2302 3C3B              CMP     AL,3B
0736:2304 7413              JZ      2319
0736:2306 3C2C              CMP     AL,2C
0736:2308 750C              JNZ     2316
0736:230A 81FF8C56          CMP     DI,568C
0736:230E 7306              JAE     2316
0736:2310 E8EF1B            CALL    3F02
0736:2313 E906FD            JMP     201C
0736:2316 E9DAFB            JMP     1EF3
0736:2319 C605FF            MOV     BYTE PTR [DI],FF
0736:231C 56                PUSH    SI
0736:231D 33C0              XOR     AX,AX
0736:231F BF4555            MOV     DI,5545
0736:2322 B90700            MOV     CX,0007
0736:2325 F3AB              REP     STOSW
0736:2327 8B363F55          MOV     SI,[553F]
0736:232B AC                LODSB
0736:232C 2CED              SUB     AL,ED
0736:232E 7215              JB      2345
0736:2330 3C07              CMP     AL,07
0736:2332 7407              JZ      233B
0736:2334 770C              JA      2342
0736:2336 A24D55            MOV     [554D],AL
0736:2339 EBF0              JMP     232B
0736:233B 800E515501        OR      BYTE PTR [5551],01
0736:2340 EBE9              JMP     232B
0736:2342 E9ADFB            JMP     1EF2
0736:2345 4E                DEC     SI
0736:2346 AD                LODSW
0736:2347 86C4              XCHG    AL,AH
0736:2349 33D2              XOR     DX,DX
0736:234B BB4C00            MOV     BX,004C
0736:234E F7F3              DIV     BX
0736:2350 A34155            MOV     [5541],AX
0736:2353 A34355            MOV     [5543],AX
0736:2356 3DDF00            CMP     AX,00DF
0736:2359 7717              JA      2372
0736:235B 3CD8              CMP     AL,D8
0736:235D 7213              JB      2372
0736:235F 800E4E5501        OR      BYTE PTR [554E],01
0736:2364 8AE0              MOV     AH,AL
0736:2366 AC                LODSB
0736:2367 A24755            MOV     [5547],AL
0736:236A A34355            MOV     [5543],AX
0736:236D 800E515502        OR      BYTE PTR [5551],02
0736:2372 89363F55          MOV     [553F],SI
0736:2376 8BF2              MOV     SI,DX
0736:2378 8A9C524B          MOV     BL,[SI+4B52]
0736:237C 8DB76837          LEA     SI,[BX+3768]
0736:2380 BF6856            MOV     DI,5668
0736:2383 AC                LODSB
0736:2384 3C00              CMP     AL,00
0736:2386 7434              JZ      23BC
0736:2388 803DFF            CMP     BYTE PTR [DI],FF
0736:238B 7490              JZ      231D
0736:238D 3C40              CMP     AL,40
0736:238F 7208              JB      2399
0736:2391 D410              AAM     10
0736:2393 88265255          MOV     [5552],AH
0736:2397 EB02              JMP     239B
0736:2399 040E              ADD     AL,0E
0736:239B 98                CBW
0736:239C 93                XCHG    AX,BX
0736:239D 8B8F124C          MOV     CX,[BX+4C12]
0736:23A1 D1EB              SHR     BX,1
0736:23A3 8A87BF4B          MOV     AL,[BX+4BBF]
0736:23A7 8405              TEST    [DI],AL
0736:23A9 740E              JZ      23B9
0736:23AB FFD1              CALL    CX
0736:23AD 817CFF565A        CMP     WORD PTR [SI-01],5A56
0736:23B2 74CF              JZ      2383
0736:23B4 83C70C            ADD     DI,+0C
0736:23B7 EBCA              JMP     2383
0736:23B9 E961FF            JMP     231D
0736:23BC 803DFF            CMP     BYTE PTR [DI],FF
0736:23BF 75F8              JNZ     23B9
0736:23C1 A05155            MOV     AL,[5551]
0736:23C4 A810              TEST    AL,10
0736:23C6 7414              JZ      23DC
0736:23C8 A804              TEST    AL,04
0736:23CA 7510              JNZ     23DC
0736:23CC A808              TEST    AL,08
0736:23CE 74E9              JZ      23B9
0736:23D0 8B363F55          MOV     SI,[553F]
0736:23D4 803CFF            CMP     BYTE PTR [SI],FF
0736:23D7 7403              JZ      23DC
0736:23D9 E916FB            JMP     1EF2
0736:23DC A03D55            MOV     AL,[553D]
0736:23DF 3C00              CMP     AL,00
0736:23E1 7421              JZ      2404
0736:23E3 3CF0              CMP     AL,F0
0736:23E5 7509              JNZ     23F0
0736:23E7 F606515501        TEST    BYTE PTR [5551],01
0736:23EC 74EB              JZ      23D9
0736:23EE EB14              JMP     2404
0736:23F0 A14155            MOV     AX,[5541]
0736:23F3 24FE              AND     AL,FE
0736:23F5 3DFF00            CMP     AX,00FF
0736:23F8 77DF              JA      23D9
0736:23FA BF6137            MOV     DI,3761
0736:23FD B90700            MOV     CX,0007
0736:2400 F2AE              REPNE   SCASB
0736:2402 75D5              JNZ     23D9
0736:2404 F6063C5510        TEST    BYTE PTR [553C],10
0736:2409 7412              JZ      241D
0736:240B A14155            MOV     AX,[5541]
0736:240E 3DFF00            CMP     AX,00FF
0736:2411 77C6              JA      23D9
0736:2413 BF5837            MOV     DI,3758
0736:2416 B90900            MOV     CX,0009
0736:2419 F2AE              REPNE   SCASB
0736:241B 75BC              JNZ     23D9
0736:241D 8B1E4955          MOV     BX,[5549]
0736:2421 0BDB              OR      BX,BX
0736:2423 740C              JZ      2431
0736:2425 A05055            MOV     AL,[5550]
0736:2428 F6D8              NEG     AL
0736:242A D0E0              SHL     AL,1
0736:242C 844707            TEST    [BX+07],AL
0736:242F 75A8              JNZ     23D9
0736:2431 8B16B254          MOV     DX,[54B2]
0736:2435 8B1EB654          MOV     BX,[54B6]
0736:2439 F6063C5502        TEST    BYTE PTR [553C],02
0736:243E 7405              JZ      2445
0736:2440 B09B              MOV     AL,9B
0736:2442 E802FA            CALL    1E47
0736:2445 A03D55            MOV     AL,[553D]
0736:2448 3C00              CMP     AL,00
0736:244A 7403              JZ      244F
0736:244C E8F8F9            CALL    1E47
0736:244F A03C55            MOV     AL,[553C]
0736:2452 A880              TEST    AL,80
0736:2454 740F              JZ      2465
0736:2456 2404              AND     AL,04
0736:2458 2444              AND     AL,44
0736:245A 7409              JZ      2465
0736:245C 3C44              CMP     AL,44
0736:245E 7405              JZ      2465
0736:2460 B067              MOV     AL,67
0736:2462 E8E2F9            CALL    1E47
0736:2465 8A263C55          MOV     AH,[553C]
0736:2469 A05155            MOV     AL,[5551]
0736:246C A840              TEST    AL,40
0736:246E 7505              JNZ     2475
0736:2470 F6C401            TEST    AH,01
0736:2473 7405              JZ      247A
0736:2475 B066              MOV     AL,66
0736:2477 E8CDF9            CALL    1E47
0736:247A A03E55            MOV     AL,[553E]
0736:247D 3C00              CMP     AL,00
0736:247F 740C              JZ      248D
0736:2481 E8C3F9            CALL    1E47
0736:2484 3C64              CMP     AL,64
0736:2486 7205              JB      248D
0736:2488 800E3C5520        OR      BYTE PTR [553C],20
0736:248D A14155            MOV     AX,[5541]
0736:2490 8BF8              MOV     DI,AX
0736:2492 81EF4002          SUB     DI,0240
0736:2496 7317              JAE     24AF
0736:2498 3D0002            CMP     AX,0200
0736:249B 7224              JB      24C1
0736:249D 800E4E5501        OR      BYTE PTR [554E],01
0736:24A2 2438              AND     AL,38
0736:24A4 08064755          OR      [5547],AL
0736:24A8 97                XCHG    AX,DI
0736:24A9 2407              AND     AL,07
0736:24AB 0CD8              OR      AL,D8
0736:24AD EB1E              JMP     24CD
0736:24AF B103              MOV     CL,03
0736:24B1 D3EF              SHR     DI,CL
0736:24B3 2407              AND     AL,07
0736:24B5 D2E0              SHL     AL,CL
0736:24B7 08064755          OR      [5547],AL
0736:24BB D1E7              SHL     DI,1
0736:24BD 8B853638          MOV     AX,[DI+3836]
0736:24C1 80FC00            CMP     AH,00
0736:24C4 7407              JZ      24CD
0736:24C6 50                PUSH    AX
0736:24C7 B00F              MOV     AL,0F
0736:24C9 E87BF9            CALL    1E47
0736:24CC 58                POP     AX
0736:24CD 0A064F55          OR      AL,[554F]
0736:24D1 E873F9            CALL    1E47
0736:24D4 A14755            MOV     AX,[5547]
0736:24D7 F606515502        TEST    BYTE PTR [5551],02
0736:24DC 7411              JZ      24EF
0736:24DE 50                PUSH    AX
0736:24DF E865F9            CALL    1E47
0736:24E2 58                POP     AX
0736:24E3 F6063C5508        TEST    BYTE PTR [553C],08
0736:24E8 7405              JZ      24EF
0736:24EA 8AC4              MOV     AL,AH
0736:24EC E858F9            CALL    1E47
0736:24EF 8B3E4555          MOV     DI,[5545]
0736:24F3 0BFF              OR      DI,DI
0736:24F5 740B              JZ      2502
0736:24F7 8A4D03            MOV     CL,[DI+03]
0736:24FA B500              MOV     CH,00
0736:24FC 8D7508            LEA     SI,[DI+08]
0736:24FF E84AF9            CALL    1E4C
0736:2502 8B3E4955          MOV     DI,[5549]
0736:2506 0BFF              OR      DI,DI
0736:2508 740B              JZ      2515
0736:250A A05055            MOV     AL,[5550]
0736:250D 98                CBW
0736:250E 91                XCHG    AX,CX
0736:250F 8D7508            LEA     SI,[DI+08]
0736:2512 E837F9            CALL    1E4C
0736:2515 8B3E4B55          MOV     DI,[554B]
0736:2519 0BFF              OR      DI,DI
0736:251B 7409              JZ      2526
0736:251D 8D7504            LEA     SI,[DI+04]
0736:2520 AC                LODSB
0736:2521 98                CBW
0736:2522 91                XCHG    AX,CX
0736:2523 E826F9            CALL    1E4C
0736:2526 8916B254          MOV     [54B2],DX
0736:252A 803E4D5503        CMP     BYTE PTR [554D],03
0736:252F 7313              JAE     2544
0736:2531 F6063C5525        TEST    BYTE PTR [553C],25
0736:2536 7507              JNZ     253F
0736:2538 F606515540        TEST    BYTE PTR [5551],40
0736:253D 7405              JZ      2544
0736:253F C6064D5503        MOV     BYTE PTR [554D],03
0736:2544 BF9E4B            MOV     DI,4B9E
0736:2547 8B0E4355          MOV     CX,[5543]
0736:254B E82E22            CALL    477C
0736:254E E308              JCXZ    2558
0736:2550 BF6856            MOV     DI,5668
0736:2553 F3A4              REP     MOVSB
0736:2555 E87524            CALL    49CD
0736:2558 E916F9            JMP     1E71
0736:255B E85D02            CALL    27BB
0736:255E EB30              JMP     2590
0736:2560 8A4504            MOV     AL,[DI+04]
0736:2563 2407              AND     AL,07
0736:2565 B103              MOV     CL,03
0736:2567 D2E0              SHL     AL,CL
0736:2569 08064755          OR      [5547],AL
0736:256D EB21              JMP     2590
0736:256F 8A4504            MOV     AL,[DI+04]
0736:2572 2407              AND     AL,07
0736:2574 A24F55            MOV     [554F],AL
0736:2577 EB17              JMP     2590
0736:2579 893E4955          MOV     [5549],DI
0736:257D EB11              JMP     2590
0736:257F F60502            TEST    BYTE PTR [DI],02
0736:2582 7547              JNZ     25CB
0736:2584 893E4555          MOV     [5545],DI
0736:2588 EB06              JMP     2590
0736:258A F6450407          TEST    BYTE PTR [DI+04],07
0736:258E 753B              JNZ     25CB
0736:2590 800E515510        OR      BYTE PTR [5551],10
0736:2595 A05255            MOV     AL,[5552]
0736:2598 2C05              SUB     AL,05
0736:259A 7C32              JL      25CE
0736:259C 7440              JZ      25DE
0736:259E 04FD              ADD     AL,FD
0736:25A0 1403              ADC     AL,03
0736:25A2 800E515518        OR      BYTE PTR [5551],18
0736:25A7 8A5D02            MOV     BL,[DI+02]
0736:25AA 0ADB              OR      BL,BL
0736:25AC 7409              JZ      25B7
0736:25AE 800E515504        OR      BYTE PTR [5551],04
0736:25B3 3AC3              CMP     AL,BL
0736:25B5 7514              JNZ     25CB
0736:25B7 3A065055          CMP     AL,[5550]
0736:25BB 740D              JZ      25CA
0736:25BD 86065055          XCHG    AL,[5550]
0736:25C1 3C00              CMP     AL,00
0736:25C3 7506              JNZ     25CB
0736:25C5 800E515504        OR      BYTE PTR [5551],04
0736:25CA C3                RET
0736:25CB E9DA01            JMP     27A8
0736:25CE 8A4502            MOV     AL,[DI+02]
0736:25D1 3C01              CMP     AL,01
0736:25D3 7424              JZ      25F9
0736:25D5 720A              JB      25E1
0736:25D7 800E4F5501        OR      BYTE PTR [554F],01
0736:25DC EB03              JMP     25E1
0736:25DE 8A4502            MOV     AL,[DI+02]
0736:25E1 3C00              CMP     AL,00
0736:25E3 741C              JZ      2601
0736:25E5 3C02              CMP     AL,02
0736:25E7 7507              JNZ     25F0
0736:25E9 800E515520        OR      BYTE PTR [5551],20
0736:25EE EB09              JMP     25F9
0736:25F0 3C04              CMP     AL,04
0736:25F2 75D7              JNZ     25CB
0736:25F4 800E515540        OR      BYTE PTR [5551],40
0736:25F9 A25055            MOV     [5550],AL
0736:25FC 800E515504        OR      BYTE PTR [5551],04
0736:2601 C3                RET
0736:2602 E8B601            CALL    27BB
0736:2605 8A87FE4B          MOV     AL,[BX+4BFE]
0736:2609 EB97              JMP     25A2
0736:260B B002              MOV     AL,02
0736:260D 837D0A00          CMP     WORD PTR [DI+0A],+00
0736:2611 7407              JZ      261A
0736:2613 800E515540        OR      BYTE PTR [5551],40
0736:2618 B004              MOV     AL,04
0736:261A C6450402          MOV     BYTE PTR [DI+04],02
0736:261E 893E4955          MOV     [5549],DI
0736:2622 A25055            MOV     [5550],AL
0736:2625 893E4B55          MOV     [554B],DI
0736:2629 C3                RET
0736:262A B009              MOV     AL,09
0736:262C E87E01            CALL    27AD
0736:262F B90200            MOV     CX,0002
0736:2632 A03C55            MOV     AL,[553C]
0736:2635 A841              TEST    AL,41
0736:2637 741A              JZ      2653
0736:2639 A801              TEST    AL,01
0736:263B 7402              JZ      263F
0736:263D 0C04              OR      AL,04
0736:263F 24BE              AND     AL,BE
0736:2641 0C80              OR      AL,80
0736:2643 A23C55            MOV     [553C],AL
0736:2646 B400              MOV     AH,00
0736:2648 2404              AND     AL,04
0736:264A 0AC4              OR      AL,AH
0736:264C 7405              JZ      2653
0736:264E 3C44              CMP     AL,44
0736:2650 7401              JZ      2653
0736:2652 41                INC     CX
0736:2653 8B1EB254          MOV     BX,[54B2]
0736:2657 03D9              ADD     BX,CX
0736:2659 8B0EB454          MOV     CX,[54B4]
0736:265D 83D100            ADC     CX,+00
0736:2660 8B4508            MOV     AX,[DI+08]
0736:2663 8B550A            MOV     DX,[DI+0A]
0736:2666 2BC3              SUB     AX,BX
0736:2668 1BD1              SBB     DX,CX
0736:266A 884505            MOV     [DI+05],AL
0736:266D B107              MOV     CL,07
0736:266F D2F8              SAR     AL,CL
0736:2671 3AC4              CMP     AL,AH
0736:2673 755C              JNZ     26D1
0736:2675 3BC2              CMP     AX,DX
0736:2677 7558              JNZ     26D1
0736:2679 C6450401          MOV     BYTE PTR [DI+04],01
0736:267D EBA6              JMP     2625
0736:267F 8B1EB254          MOV     BX,[54B2]
0736:2683 B90300            MOV     CX,0003
0736:2686 8B550A            MOV     DX,[DI+0A]
0736:2689 8A4502            MOV     AL,[DI+02]
0736:268C 813E41550001      CMP     WORD PTR [5541],0100
0736:2692 7201              JB      2695
0736:2694 41                INC     CX
0736:2695 3C00              CMP     AL,00
0736:2697 7408              JZ      26A1
0736:2699 3C04              CMP     AL,04
0736:269B 740C              JZ      26A9
0736:269D 3C0A              CMP     AL,0A
0736:269F 7530              JNZ     26D1
0736:26A1 0BD2              OR      DX,DX
0736:26A3 752C              JNZ     26D1
0736:26A5 B002              MOV     AL,02
0736:26A7 EB0A              JMP     26B3
0736:26A9 B004              MOV     AL,04
0736:26AB 800E515540        OR      BYTE PTR [5551],40
0736:26B0 83C103            ADD     CX,+03
0736:26B3 03D9              ADD     BX,CX
0736:26B5 8B0EB454          MOV     CX,[54B4]
0736:26B9 83D100            ADC     CX,+00
0736:26BC 884504            MOV     [DI+04],AL
0736:26BF 8B4508            MOV     AX,[DI+08]
0736:26C2 2BC3              SUB     AX,BX
0736:26C4 1BD1              SBB     DX,CX
0736:26C6 894505            MOV     [DI+05],AX
0736:26C9 895507            MOV     [DI+07],DX
0736:26CC 893E4B55          MOV     [554B],DI
0736:26D0 C3                RET
0736:26D1 E9D400            JMP     27A8
0736:26D4 58                POP     AX
0736:26D5 E9ABFC            JMP     2383
0736:26D8 B01E              MOV     AL,1E
0736:26DA 8A5D05            MOV     BL,[DI+05]
0736:26DD EB3D              JMP     271C
0736:26DF B01F              MOV     AL,1F
0736:26E1 EB32              JMP     2715
0736:26E3 8A4505            MOV     AL,[DI+05]
0736:26E6 3C04              CMP     AL,04
0736:26E8 77E7              JA      26D1
0736:26EA 7505              JNZ     26F1
0736:26EC C6064D5505        MOV     BYTE PTR [554D],05
0736:26F1 3C01              CMP     AL,01
0736:26F3 7506              JNZ     26FB
0736:26F5 807D0CFF          CMP     BYTE PTR [DI+0C],FF
0736:26F9 75D6              JNZ     26D1
0736:26FB B020              MOV     AL,20
0736:26FD EB16              JMP     2715
0736:26FF B021              MOV     AL,21
0736:2701 EB12              JMP     2715
0736:2703 8A4505            MOV     AL,[DI+05]
0736:2706 3C03              CMP     AL,03
0736:2708 72C7              JB      26D1
0736:270A 3C06              CMP     AL,06
0736:270C 7305              JAE     2713
0736:270E C6064D5504        MOV     BYTE PTR [554D],04
0736:2713 B022              MOV     AL,22
0736:2715 8A5D05            MOV     BL,[DI+05]
0736:2718 B103              MOV     CL,03
0736:271A D2E3              SHL     BL,CL
0736:271C 081E4755          OR      [5547],BL
0736:2720 800E515502        OR      BYTE PTR [5551],02
0736:2725 3A4504            CMP     AL,[DI+04]
0736:2728 7413              JZ      273D
0736:272A EB7C              JMP     27A8
0736:272C 8A4504            MOV     AL,[DI+04]
0736:272F 2C18              SUB     AL,18
0736:2731 3C06              CMP     AL,06
0736:2733 73F5              JAE     272A
0736:2735 B103              MOV     CL,03
0736:2737 D2E0              SHL     AL,CL
0736:2739 08064755          OR      [5547],AL
0736:273D C3                RET
0736:273E 80265155EF        AND     BYTE PTR [5551],EF
0736:2743 8B4508            MOV     AX,[DI+08]
0736:2746 B107              MOV     CL,07
0736:2748 D2F8              SAR     AL,CL
0736:274A EB05              JMP     2751
0736:274C 8B4508            MOV     AX,[DI+08]
0736:274F B000              MOV     AL,00
0736:2751 3AC4              CMP     AL,AH
0736:2753 7553              JNZ     27A8
0736:2755 3B450A            CMP     AX,[DI+0A]
0736:2758 754E              JNZ     27A8
0736:275A B001              MOV     AL,01
0736:275C E84E00            CALL    27AD
0736:275F 8A6508            MOV     AH,[DI+08]
0736:2762 894504            MOV     [DI+04],AX
0736:2765 893E4B55          MOV     [554B],DI
0736:2769 C3                RET
0736:276A F606515510        TEST    BYTE PTR [5551],10
0736:276F 7407              JZ      2778
0736:2771 F606515504        TEST    BYTE PTR [5551],04
0736:2776 7430              JZ      27A8
0736:2778 80265155FB        AND     BYTE PTR [5551],FB
0736:277D 803C22            CMP     BYTE PTR [SI],22
0736:2780 7405              JZ      2787
0736:2782 800E515510        OR      BYTE PTR [5551],10
0736:2787 C606505500        MOV     BYTE PTR [5550],00
0736:278C 58                POP     AX
0736:278D E9F3FB            JMP     2383
0736:2790 817D070101        CMP     WORD PTR [DI+07],0101
0736:2795 EB0F              JMP     27A6
0736:2797 817D070103        CMP     WORD PTR [DI+07],0301
0736:279C EB08              JMP     27A6
0736:279E 8A87C84B          MOV     AL,[BX+4BC8]
0736:27A2 98                CBW
0736:27A3 3B4504            CMP     AX,[DI+04]
0736:27A6 7404              JZ      27AC
0736:27A8 58                POP     AX
0736:27A9 E971FB            JMP     231D
0736:27AC C3                RET
0736:27AD 807D0200          CMP     BYTE PTR [DI+02],00
0736:27B1 74F9              JZ      27AC
0736:27B3 384502            CMP     [DI+02],AL
0736:27B6 74F4              JZ      27AC
0736:27B8 58                POP     AX
0736:27B9 EBED              JMP     27A8
0736:27BB F60504            TEST    BYTE PTR [DI],04
0736:27BE 7516              JNZ     27D6
0736:27C0 F60502            TEST    BYTE PTR [DI],02
0736:27C3 7405              JZ      27CA
0736:27C5 8B4504            MOV     AX,[DI+04]
0736:27C8 EB1A              JMP     27E4
0736:27CA B006              MOV     AL,06
0736:27CC F6063C5504        TEST    BYTE PTR [553C],04
0736:27D1 7411              JZ      27E4
0736:27D3 48                DEC     AX
0736:27D4 EB0E              JMP     27E4
0736:27D6 8A4504            MOV     AL,[DI+04]
0736:27D9 3C1F              CMP     AL,1F
0736:27DB 7503              JNZ     27E0
0736:27DD 8A4505            MOV     AL,[DI+05]
0736:27E0 2407              AND     AL,07
0736:27E2 0CC0              OR      AL,C0
0736:27E4 09064755          OR      [5547],AX
0736:27E8 800E515502        OR      BYTE PTR [5551],02
0736:27ED 893E4555          MOV     [5545],DI
0736:27F1 C3                RET
0736:27F2 3C2D              CMP     AL,2D
0736:27F4 7411              JZ      2807
0736:27F6 50                PUSH    AX
0736:27F7 2C30              SUB     AL,30
0736:27F9 3C0A              CMP     AL,0A
0736:27FB 58                POP     AX
0736:27FC 7208              JB      2806
0736:27FE 50                PUSH    AX
0736:27FF 24DF              AND     AL,DF
0736:2801 2C41              SUB     AL,41
0736:2803 3C06              CMP     AL,06
0736:2805 58                POP     AX
0736:2806 F5                CMC
0736:2807 C3                RET
0736:2808 3C2D              CMP     AL,2D
0736:280A 740F              JZ      281B
0736:280C E83F00            CALL    284E
0736:280F B90100            MOV     CX,0001
0736:2812 0BD2              OR      DX,DX
0736:2814 7534              JNZ     284A
0736:2816 0AFF              OR      BH,BH
0736:2818 7532              JNZ     284C
0736:281A C3                RET
0736:281B AC                LODSB
0736:281C E82F00            CALL    284E
0736:281F 8BCB              MOV     CX,BX
0736:2821 0BCA              OR      CX,DX
0736:2823 B90100            MOV     CX,0001
0736:2826 7421              JZ      2849
0736:2828 F7D2              NOT     DX
0736:282A F7DB              NEG     BX
0736:282C F5                CMC
0736:282D 83D200            ADC     DX,+00
0736:2830 F6C680            TEST    DH,80
0736:2833 743A              JZ      286F
0736:2835 83FAFF            CMP     DX,-01
0736:2838 7510              JNZ     284A
0736:283A F6C780            TEST    BH,80
0736:283D 740B              JZ      284A
0736:283F 80FFFF            CMP     BH,FF
0736:2842 7508              JNZ     284C
0736:2844 F6C380            TEST    BL,80
0736:2847 7403              JZ      284C
0736:2849 C3                RET
0736:284A 41                INC     CX
0736:284B 41                INC     CX
0736:284C 41                INC     CX
0736:284D C3                RET
0736:284E 33DB              XOR     BX,BX
0736:2850 33D2              XOR     DX,DX
0736:2852 E86616            CALL    3EBB
0736:2855 7218              JB      286F
0736:2857 0AD8              OR      BL,AL
0736:2859 AC                LODSB
0736:285A E85E16            CALL    3EBB
0736:285D 72EA              JB      2849
0736:285F F6C6F0            TEST    DH,F0
0736:2862 750B              JNZ     286F
0736:2864 B90400            MOV     CX,0004
0736:2867 D1E3              SHL     BX,1
0736:2869 D1D2              RCL     DX,1
0736:286B E2FA              LOOPW   2867
0736:286D EBE8              JMP     2857
0736:286F E90E11            JMP     3980
0736:2872 80F901            CMP     CL,01
0736:2875 7517              JNZ     288E
0736:2877 80FB01            CMP     BL,01
0736:287A 7415              JZ      2891
0736:287C 42                INC     DX
0736:287D 80FB02            CMP     BL,02
0736:2880 740F              JZ      2891
0736:2882 42                INC     DX
0736:2883 80FB04            CMP     BL,04
0736:2886 7409              JZ      2891
0736:2888 42                INC     DX
0736:2889 80FB08            CMP     BL,08
0736:288C 7403              JZ      2891
0736:288E E9EF10            JMP     3980
0736:2891 885506            MOV     [DI+06],DL
0736:2894 C3                RET
0736:2895 8B04              MOV     AX,[SI]
0736:2897 25DFDF            AND     AX,DFDF
0736:289A 3C45              CMP     AL,45
0736:289C 7522              JNZ     28C0
0736:289E 50                PUSH    AX
0736:289F 8AC4              MOV     AL,AH
0736:28A1 8A6402            MOV     AH,[SI+02]
0736:28A4 80E4DF            AND     AH,DF
0736:28A7 57                PUSH    DI
0736:28A8 BFB54C            MOV     DI,4CB5
0736:28AB 51                PUSH    CX
0736:28AC B90800            MOV     CX,0008
0736:28AF F2AF              REPNE   SCASW
0736:28B1 8BD9              MOV     BX,CX
0736:28B3 59                POP     CX
0736:28B4 5F                POP     DI
0736:28B5 58                POP     AX
0736:28B6 7508              JNZ     28C0
0736:28B8 46                INC     SI
0736:28B9 F7D3              NOT     BX
0736:28BB 80C318            ADD     BL,18
0736:28BE EB11              JMP     28D1
0736:28C0 8BD9              MOV     BX,CX
0736:28C2 F2AF              REPNE   SCASW
0736:28C4 750F              JNZ     28D5
0736:28C6 2BD9              SUB     BX,CX
0736:28C8 4B                DEC     BX
0736:28C9 80FB10            CMP     BL,10
0736:28CC 7203              JB      28D1
0736:28CE 80C308            ADD     BL,08
0736:28D1 46                INC     SI
0736:28D2 46                INC     SI
0736:28D3 F8                CLC
0736:28D4 C3                RET
0736:28D5 F9                STC
0736:28D6 C3                RET
0736:28D7 E8C113            CALL    3C9B
0736:28DA 41                INC     CX
0736:28DB 1E                PUSH    DS
0736:28DC 06                PUSH    ES
0736:28DD 16                PUSH    SS
0736:28DE 1F                POP     DS
0736:28DF E86112            CALL    3B43
0736:28E2 07                POP     ES
0736:28E3 1F                POP     DS
0736:28E4 F3A6              REPE    CMPSB
0736:28E6 9F                LAHF
0736:28E7 8A54FF            MOV     DL,[SI-01]
0736:28EA 268A75FF          MOV     DH,ES:[DI-01]
0736:28EE 1E                PUSH    DS
0736:28EF 06                PUSH    ES
0736:28F0 16                PUSH    SS
0736:28F1 1F                POP     DS
0736:28F2 E85912            CALL    3B4E
0736:28F5 07                POP     ES
0736:28F6 1F                POP     DS
0736:28F7 9E                SAHF
0736:28F8 7502              JNZ     28FC
0736:28FA EB4A              JMP     2946
0736:28FC 51                PUSH    CX
0736:28FD 06                PUSH    ES
0736:28FE 16                PUSH    SS
0736:28FF 07                POP     ES
0736:2900 8BDF              MOV     BX,DI
0736:2902 BF6856            MOV     DI,5668
0736:2905 8CD8              MOV     AX,DS
0736:2907 E88D20            CALL    4997
0736:290A B03A              MOV     AL,3A
0736:290C AA                STOSB
0736:290D 8D44FF            LEA     AX,[SI-01]
0736:2910 E88420            CALL    4997
0736:2913 B82020            MOV     AX,2020
0736:2916 AB                STOSW
0736:2917 8AC2              MOV     AL,DL
0736:2919 E88220            CALL    499E
0736:291C B82020            MOV     AX,2020
0736:291F AB                STOSW
0736:2920 8AC6              MOV     AL,DH
0736:2922 E87920            CALL    499E
0736:2925 B82020            MOV     AX,2020
0736:2928 AB                STOSW
0736:2929 58                POP     AX
0736:292A 50                PUSH    AX
0736:292B E86920            CALL    4997
0736:292E B03A              MOV     AL,3A
0736:2930 AA                STOSB
0736:2931 8D47FF            LEA     AX,[BX-01]
0736:2934 E86020            CALL    4997
0736:2937 1E                PUSH    DS
0736:2938 16                PUSH    SS
0736:2939 1F                POP     DS
0736:293A 53                PUSH    BX
0736:293B E88F20            CALL    49CD
0736:293E 5F                POP     DI
0736:293F 1F                POP     DS
0736:2940 07                POP     ES
0736:2941 59                POP     CX
0736:2942 E302              JCXZ    2946
0736:2944 EB95              JMP     28DB
0736:2946 16                PUSH    SS
0736:2947 1F                POP     DS
0736:2948 16                PUSH    SS
0736:2949 07                POP     ES
0736:294A C3                RET
0736:294B B85053            MOV     AX,5350
0736:294E AB                STOSW
0736:294F B8503A            MOV     AX,3A50
0736:2952 AB                STOSW
0736:2953 A17C54            MOV     AX,[547C]
0736:2956 E83E20            CALL    4997
0736:2959 E87120            CALL    49CD
0736:295C 8B369654          MOV     SI,[5496]
0736:2960 BF6856            MOV     DI,5668
0736:2963 1E                PUSH    DS
0736:2964 E86300            CALL    29CA
0736:2967 8A2E0000          MOV     CH,[0000]
0736:296B 8B1E0100          MOV     BX,[0001]
0736:296F 8B160300          MOV     DX,[0003]
0736:2973 8BC6              MOV     AX,SI
0736:2975 E81F20            CALL    4997
0736:2978 B020              MOV     AL,20
0736:297A AA                STOSB
0736:297B 8AC5              MOV     AL,CH
0736:297D E81E20            CALL    499E
0736:2980 B020              MOV     AL,20
0736:2982 AA                STOSB
0736:2983 8BC3              MOV     AX,BX
0736:2985 E80F20            CALL    4997
0736:2988 B020              MOV     AL,20
0736:298A AA                STOSB
0736:298B 8BC2              MOV     AX,DX
0736:298D E80720            CALL    4997
0736:2990 B020              MOV     AL,20
0736:2992 AA                STOSB
0736:2993 23DB              AND     BX,BX
0736:2995 741D              JZ      29B4
0736:2997 56                PUSH    SI
0736:2998 51                PUSH    CX
0736:2999 52                PUSH    DX
0736:299A BE0800            MOV     SI,0008
0736:299D B90200            MOV     CX,0002
0736:29A0 3BDE              CMP     BX,SI
0736:29A2 7407              JZ      29AB
0736:29A4 4B                DEC     BX
0736:29A5 E82400            CALL    29CC
0736:29A8 B90800            MOV     CX,0008
0736:29AB AC                LODSB
0736:29AC AA                STOSB
0736:29AD 22C0              AND     AL,AL
0736:29AF E0FA              LOOPNZW 29AB
0736:29B1 5A                POP     DX
0736:29B2 59                POP     CX
0736:29B3 5E                POP     SI
0736:29B4 1F                POP     DS
0736:29B5 03F2              ADD     SI,DX
0736:29B7 7210              JB      29C9
0736:29B9 46                INC     SI
0736:29BA 51                PUSH    CX
0736:29BB E80F20            CALL    49CD
0736:29BE 59                POP     CX
0736:29BF 80FD5A            CMP     CH,5A
0736:29C2 749C              JZ      2960
0736:29C4 80FD4D            CMP     CH,4D
0736:29C7 7497              JZ      2960
0736:29C9 C3                RET
0736:29CA 8BDE              MOV     BX,SI
0736:29CC 8EDB              MOV     DS,BX
0736:29CE C3                RET
0736:29CF 3C0D              CMP     AL,0D
0736:29D1 7514              JNZ     29E7
0736:29D3 8B1EBC54          MOV     BX,[54BC]
0736:29D7 8B16B854          MOV     DX,[54B8]
0736:29DB 8BF2              MOV     SI,DX
0736:29DD 83C27F            ADD     DX,+7F
0736:29E0 7323              JAE     2A05
0736:29E2 BAFFFF            MOV     DX,FFFF
0736:29E5 EB1E              JMP     2A05
0736:29E7 3C6D              CMP     AL,6D
0736:29E9 7503              JNZ     29EE
0736:29EB E95DFF            JMP     294B
0736:29EE B98000            MOV     CX,0080
0736:29F1 8B1E2455          MOV     BX,[5524]
0736:29F5 E8A713            CALL    3D9F
0736:29F8 E8DA14            CALL    3ED5
0736:29FB 891EBC54          MOV     [54BC],BX
0736:29FF 8BF2              MOV     SI,DX
0736:2A01 8BD1              MOV     DX,CX
0736:2A03 EB00              JMP     2A05
0736:2A05 C706CC54310D      MOV     WORD PTR [54CC],0D31
0736:2A0B A1BC54            MOV     AX,[54BC]
0736:2A0E E8861F            CALL    4997
0736:2A11 B03A              MOV     AL,3A
0736:2A13 AA                STOSB
0736:2A14 8BC6              MOV     AX,SI
0736:2A16 24F0              AND     AL,F0
0736:2A18 50                PUSH    AX
0736:2A19 E87B1F            CALL    4997
0736:2A1C B82020            MOV     AX,2020
0736:2A1F AB                STOSW
0736:2A20 58                POP     AX
0736:2A21 8D5D30            LEA     BX,[DI+30]
0736:2A24 E8F110            CALL    3B18
0736:2A27 3BC6              CMP     AX,SI
0736:2A29 740E              JZ      2A39
0736:2A2B 50                PUSH    AX
0736:2A2C B82020            MOV     AX,2020
0736:2A2F AB                STOSW
0736:2A30 AA                STOSB
0736:2A31 268807            MOV     ES:[BX],AL
0736:2A34 43                INC     BX
0736:2A35 58                POP     AX
0736:2A36 40                INC     AX
0736:2A37 EBEE              JMP     2A27
0736:2A39 8BCE              MOV     CX,SI
0736:2A3B 80C90F            OR      CL,0F
0736:2A3E 3BCA              CMP     CX,DX
0736:2A40 7202              JB      2A44
0736:2A42 8BCA              MOV     CX,DX
0736:2A44 2BCE              SUB     CX,SI
0736:2A46 41                INC     CX
0736:2A47 E8F910            CALL    3B43
0736:2A4A 8E1EBC54          MOV     DS,WORD PTR [54BC]
0736:2A4E AC                LODSB
0736:2A4F 50                PUSH    AX
0736:2A50 E84B1F            CALL    499E
0736:2A53 B020              MOV     AL,20
0736:2A55 AA                STOSB
0736:2A56 58                POP     AX
0736:2A57 3C20              CMP     AL,20
0736:2A59 7204              JB      2A5F
0736:2A5B 3C7E              CMP     AL,7E
0736:2A5D 7602              JBE     2A61
0736:2A5F B02E              MOV     AL,2E
0736:2A61 268807            MOV     ES:[BX],AL
0736:2A64 43                INC     BX
0736:2A65 E2E7              LOOPW   2A4E
0736:2A67 F7C60F00          TEST    SI,000F
0736:2A6B 7408              JZ      2A75
0736:2A6D B82020            MOV     AX,2020
0736:2A70 AB                STOSW
0736:2A71 AA                STOSB
0736:2A72 46                INC     SI
0736:2A73 EBF2              JMP     2A67
0736:2A75 16                PUSH    SS
0736:2A76 1F                POP     DS
0736:2A77 8936B854          MOV     [54B8],SI
0736:2A7B C645E72D          MOV     BYTE PTR [DI-19],2D
0736:2A7F E8CC10            CALL    3B4E
0736:2A82 8BFB              MOV     DI,BX
0736:2A84 52                PUSH    DX
0736:2A85 E8451F            CALL    49CD
0736:2A88 5A                POP     DX
0736:2A89 4E                DEC     SI
0736:2A8A 3BF2              CMP     SI,DX
0736:2A8C 730B              JAE     2A99
0736:2A8E 46                INC     SI
0736:2A8F BF6856            MOV     DI,5668
0736:2A92 8B1EBC54          MOV     BX,[54BC]
0736:2A96 E96CFF            JMP     2A05
0736:2A99 42                INC     DX
0736:2A9A 8916B854          MOV     [54B8],DX
0736:2A9E C3                RET
0736:2A9F E9DE0E            JMP     3980
0736:2AA2 E87310            CALL    3B18
0736:2AA5 8B1E2455          MOV     BX,[5524]
0736:2AA9 E83613            CALL    3DE2
0736:2AAC E83214            CALL    3EE1
0736:2AAF 3C0D              CMP     AL,0D
0736:2AB1 742A              JZ      2ADD
0736:2AB3 52                PUSH    DX
0736:2AB4 E84413            CALL    3DFB
0736:2AB7 8BCF              MOV     CX,DI
0736:2AB9 BA6856            MOV     DX,5668
0736:2ABC 2BCA              SUB     CX,DX
0736:2ABE 5F                POP     DI
0736:2ABF 8BC1              MOV     AX,CX
0736:2AC1 48                DEC     AX
0736:2AC2 03C7              ADD     AX,DI
0736:2AC4 72D9              JB      2A9F
0736:2AC6 E87A10            CALL    3B43
0736:2AC9 8BF2              MOV     SI,DX
0736:2ACB 8EC3              MOV     ES,BX
0736:2ACD F3A4              REP     MOVSB
0736:2ACF 16                PUSH    SS
0736:2AD0 1F                POP     DS
0736:2AD1 16                PUSH    SS
0736:2AD2 07                POP     ES
0736:2AD3 BF8054            MOV     DI,5480
0736:2AD6 E85A10            CALL    3B33
0736:2AD9 E87210            CALL    3B4E
0736:2ADC C3                RET
0736:2ADD 8BC3              MOV     AX,BX
0736:2ADF E8B51E            CALL    4997
0736:2AE2 B03A              MOV     AL,3A
0736:2AE4 AA                STOSB
0736:2AE5 BDF52C            MOV     BP,2CF5
0736:2AE8 8BC2              MOV     AX,DX
0736:2AEA FFD5              CALL    BP
0736:2AEC B82020            MOV     AX,2020
0736:2AEF AB                STOSW
0736:2AF0 E85010            CALL    3B43
0736:2AF3 53                PUSH    BX
0736:2AF4 E86A06            CALL    3161
0736:2AF7 5B                POP     BX
0736:2AF8 E85310            CALL    3B4E
0736:2AFB E8A01E            CALL    499E
0736:2AFE B02E              MOV     AL,2E
0736:2B00 AA                STOSB
0736:2B01 53                PUSH    BX
0736:2B02 52                PUSH    DX
0736:2B03 E8CB1E            CALL    49D1
0736:2B06 5A                POP     DX
0736:2B07 5B                POP     BX
0736:2B08 BE7856            MOV     SI,5678
0736:2B0B 33C9              XOR     CX,CX
0736:2B0D 803EA75400        CMP     BYTE PTR [54A7],00
0736:2B12 7433              JZ      2B47
0736:2B14 56                PUSH    SI
0736:2B15 BF6855            MOV     DI,5568
0736:2B18 8B36AE54          MOV     SI,[54AE]
0736:2B1C 3B36B054          CMP     SI,[54B0]
0736:2B20 7207              JB      2B29
0736:2B22 E84B11            CALL    3C70
0736:2B25 B00D              MOV     AL,0D
0736:2B27 7217              JB      2B40
0736:2B29 803EA7540D        CMP     BYTE PTR [54A7],0D
0736:2B2E 750C              JNZ     2B3C
0736:2B30 803C0A            CMP     BYTE PTR [SI],0A
0736:2B33 7507              JNZ     2B3C
0736:2B35 46                INC     SI
0736:2B36 FE06A754          INC     BYTE PTR [54A7]
0736:2B3A EBE0              JMP     2B1C
0736:2B3C AC                LODSB
0736:2B3D A2A754            MOV     [54A7],AL
0736:2B40 8936AE54          MOV     [54AE],SI
0736:2B44 5E                POP     SI
0736:2B45 EB04              JMP     2B4B
0736:2B47 B408              MOV     AH,08
0736:2B49 CD21              INT     21
0736:2B4B 3C20              CMP     AL,20
0736:2B4D 7433              JZ      2B82
0736:2B4F 3C0D              CMP     AL,0D
0736:2B51 742F              JZ      2B82
0736:2B53 3C08              CMP     AL,08
0736:2B55 741D              JZ      2B74
0736:2B57 3C2D              CMP     AL,2D
0736:2B59 7410              JZ      2B6B
0736:2B5B 83F902            CMP     CX,+02
0736:2B5E 73AD              JAE     2B0D
0736:2B60 8804              MOV     [SI],AL
0736:2B62 E85613            CALL    3EBB
0736:2B65 72A6              JB      2B0D
0736:2B67 41                INC     CX
0736:2B68 AC                LODSB
0736:2B69 EB12              JMP     2B7D
0736:2B6B E80610            CALL    3B74
0736:2B6E 4A                DEC     DX
0736:2B6F BF6856            MOV     DI,5668
0736:2B72 EB46              JMP     2BBA
0736:2B74 E397              JCXZ    2B0D
0736:2B76 49                DEC     CX
0736:2B77 4E                DEC     SI
0736:2B78 E80A10            CALL    3B85
0736:2B7B EB90              JMP     2B0D
0736:2B7D E8F40F            CALL    3B74
0736:2B80 EB8B              JMP     2B0D
0736:2B82 E31D              JCXZ    2BA1
0736:2B84 8804              MOV     [SI],AL
0736:2B86 2BF1              SUB     SI,CX
0736:2B88 51                PUSH    CX
0736:2B89 52                PUSH    DX
0736:2B8A AC                LODSB
0736:2B8B E82513            CALL    3EB3
0736:2B8E 8AC2              MOV     AL,DL
0736:2B90 5A                POP     DX
0736:2B91 59                POP     CX
0736:2B92 E8AE0F            CALL    3B43
0736:2B95 E8B605            CALL    314E
0736:2B98 BF8054            MOV     DI,5480
0736:2B9B E8950F            CALL    3B33
0736:2B9E E8AD0F            CALL    3B4E
0736:2BA1 42                INC     DX
0736:2BA2 BF6856            MOV     DI,5668
0736:2BA5 3C0D              CMP     AL,0D
0736:2BA7 7418              JZ      2BC1
0736:2BA9 F6C207            TEST    DL,07
0736:2BAC 740C              JZ      2BBA
0736:2BAE F7D1              NOT     CX
0736:2BB0 83C104            ADD     CX,+04
0736:2BB3 B020              MOV     AL,20
0736:2BB5 F3AA              REP     STOSB
0736:2BB7 E932FF            JMP     2AEC
0736:2BBA B80D0A            MOV     AX,0A0D
0736:2BBD AB                STOSW
0736:2BBE E91CFF            JMP     2ADD
0736:2BC1 E9091E            JMP     49CD
0736:2BC4 33C9              XOR     CX,CX
0736:2BC6 8B1E2455          MOV     BX,[5524]
0736:2BCA E8D811            CALL    3DA5
0736:2BCD 2BCA              SUB     CX,DX
0736:2BCF 41                INC     CX
0736:2BD0 51                PUSH    CX
0736:2BD1 52                PUSH    DX
0736:2BD2 E80C13            CALL    3EE1
0736:2BD5 E82312            CALL    3DFB
0736:2BD8 8BCF              MOV     CX,DI
0736:2BDA 81E96856          SUB     CX,5668
0736:2BDE 5F                POP     DI
0736:2BDF 8EC3              MOV     ES,BX
0736:2BE1 83F901            CMP     CX,+01
0736:2BE4 7424              JZ      2C0A
0736:2BE6 58                POP     AX
0736:2BE7 33D2              XOR     DX,DX
0736:2BE9 83F801            CMP     AX,+01
0736:2BEC 83D200            ADC     DX,+00
0736:2BEF F7F1              DIV     CX
0736:2BF1 0BC0              OR      AX,AX
0736:2BF3 740A              JZ      2BFF
0736:2BF5 BE6856            MOV     SI,5668
0736:2BF8 51                PUSH    CX
0736:2BF9 F3A4              REP     MOVSB
0736:2BFB 59                POP     CX
0736:2BFC 48                DEC     AX
0736:2BFD 75F6              JNZ     2BF5
0736:2BFF 8BCA              MOV     CX,DX
0736:2C01 E30F              JCXZ    2C12
0736:2C03 BE6856            MOV     SI,5668
0736:2C06 F3A4              REP     MOVSB
0736:2C08 EB08              JMP     2C12
0736:2C0A 59                POP     CX
0736:2C0B A06856            MOV     AL,[5668]
0736:2C0E AA                STOSB
0736:2C0F 49                DEC     CX
0736:2C10 F3AA              REP     STOSB
0736:2C12 16                PUSH    SS
0736:2C13 07                POP     ES
0736:2C14 C3                RET
0736:2C15 BF8F0F            MOV     DI,0F8F
0736:2C18 BE6856            MOV     SI,5668
0736:2C1B AD                LODSW
0736:2C1C 91                XCHG    AX,CX
0736:2C1D E309              JCXZ    2C28
0736:2C1F AD                LODSW
0736:2C20 92                XCHG    AX,DX
0736:2C21 AD                LODSW
0736:2C22 93                XCHG    AX,BX
0736:2C23 FFD7              CALL    DI
0736:2C25 46                INC     SI
0736:2C26 E2F5              LOOPW   2C1D
0736:2C28 C3                RET
0736:2C29 B0CC              MOV     AL,CC
0736:2C2B E82005            CALL    314E
0736:2C2E 8824              MOV     [SI],AH
0736:2C30 C3                RET
0736:2C31 8A04              MOV     AL,[SI]
0736:2C33 3CCC              CMP     AL,CC
0736:2C35 7403              JZ      2C3A
0736:2C37 E81405            CALL    314E
0736:2C3A C3                RET
0736:2C3B 93                XCHG    AX,BX
0736:2C3C A12A55            MOV     AX,[552A]
0736:2C3F A3C854            MOV     [54C8],AX
0736:2C42 93                XCHG    AX,BX
0736:2C43 E80E11            CALL    3D54
0736:2C46 BF6856            MOV     DI,5668
0736:2C49 33C0              XOR     AX,AX
0736:2C4B AB                STOSW
0736:2C4C 4E                DEC     SI
0736:2C4D E89012            CALL    3EE0
0736:2C50 3C0D              CMP     AL,0D
0736:2C52 7412              JZ      2C66
0736:2C54 8B1EC854          MOV     BX,[54C8]
0736:2C58 E88711            CALL    3DE2
0736:2C5B 92                XCHG    AX,DX
0736:2C5C AB                STOSW
0736:2C5D 93                XCHG    AX,BX
0736:2C5E AB                STOSW
0736:2C5F 47                INC     DI
0736:2C60 FE066856          INC     BYTE PTR [5668]
0736:2C64 EBE6              JMP     2C4C
0736:2C66 BF870F            MOV     DI,0F87
0736:2C69 E8ACFF            CALL    2C18
0736:2C6C E8660D            CALL    39D5
0736:2C6F B9FFFF            MOV     CX,FFFF
0736:2C72 E8B704            CALL    312C
0736:2C75 50                PUSH    AX
0736:2C76 E89CFF            CALL    2C15
0736:2C79 58                POP     AX
0736:2C7A 3CCC              CMP     AL,CC
0736:2C7C 751A              JNZ     2C98
0736:2C7E 813ECA54B333      CMP     WORD PTR [54CA],33B3
0736:2C84 7512              JNZ     2C98
0736:2C86 B9FFFF            MOV     CX,FFFF
0736:2C89 E8A004            CALL    312C
0736:2C8C 3CCC              CMP     AL,CC
0736:2C8E 7408              JZ      2C98
0736:2C90 891E3455          MOV     [5534],BX
0736:2C94 E8441B            CALL    47DB
0736:2C97 C3                RET
0736:2C98 E9F208            JMP     358D
0736:2C9B E8DF11            CALL    3E7D
0736:2C9E 53                PUSH    BX
0736:2C9F 52                PUSH    DX
0736:2CA0 E83E12            CALL    3EE1
0736:2CA3 E8D711            CALL    3E7D
0736:2CA6 E82C12            CALL    3ED5
0736:2CA9 59                POP     CX
0736:2CAA 58                POP     AX
0736:2CAB 8BF0              MOV     SI,AX
0736:2CAD 8BE9              MOV     BP,CX
0736:2CAF 8BC1              MOV     AX,CX
0736:2CB1 03C2              ADD     AX,DX
0736:2CB3 50                PUSH    AX
0736:2CB4 8BC6              MOV     AX,SI
0736:2CB6 13C3              ADC     AX,BX
0736:2CB8 7403              JZ      2CBD
0736:2CBA E8DA1C            CALL    4997
0736:2CBD 58                POP     AX
0736:2CBE E8D61C            CALL    4997
0736:2CC1 B82020            MOV     AX,2020
0736:2CC4 AB                STOSW
0736:2CC5 8BC5              MOV     AX,BP
0736:2CC7 2BC2              SUB     AX,DX
0736:2CC9 50                PUSH    AX
0736:2CCA 8BC6              MOV     AX,SI
0736:2CCC 1BC3              SBB     AX,BX
0736:2CCE 7407              JZ      2CD7
0736:2CD0 0BF3              OR      SI,BX
0736:2CD2 7403              JZ      2CD7
0736:2CD4 E8C01C            CALL    4997
0736:2CD7 58                POP     AX
0736:2CD8 E8BC1C            CALL    4997
0736:2CDB E8EF1C            CALL    49CD
0736:2CDE C3                RET
0736:2CDF B300              MOV     BL,00
0736:2CE1 8AE0              MOV     AH,AL
0736:2CE3 80E4DF            AND     AH,DF
0736:2CE6 80FC57            CMP     AH,57
0736:2CE9 7418              JZ      2D03
0736:2CEB 803EA15403        CMP     BYTE PTR [54A1],03
0736:2CF0 7215              JB      2D07
0736:2CF2 80FC44            CMP     AH,44
0736:2CF5 7510              JNZ     2D07
0736:2CF7 8A64FE            MOV     AH,[SI-02]
0736:2CFA 80E4DF            AND     AH,DF
0736:2CFD 80FC49            CMP     AH,49
0736:2D00 7505              JNZ     2D07
0736:2D02 43                INC     BX
0736:2D03 43                INC     BX
0736:2D04 E8FB11            CALL    3F02
0736:2D07 E89F11            CALL    3EA9
0736:2D0A E8C811            CALL    3ED5
0736:2D0D 80FB01            CMP     BL,01
0736:2D10 740B              JZ      2D1D
0736:2D12 80FB02            CMP     BL,02
0736:2D15 740C              JZ      2D23
0736:2D17 EC                IN      AL,DX
0736:2D18 E8831C            CALL    499E
0736:2D1B EB0B              JMP     2D28
0736:2D1D ED                IN      AX,DX
0736:2D1E E8761C            CALL    4997
0736:2D21 EB05              JMP     2D28
0736:2D23 66ED              IN      EAX,DX
0736:2D25 E8661C            CALL    498E
0736:2D28 E8A21C            CALL    49CD
0736:2D2B C3                RET
0736:2D2C 8CCB              MOV     BX,CS
0736:2D2E B450              MOV     AH,50
0736:2D30 1E                PUSH    DS
0736:2D31 56                PUSH    SI
0736:2D32 C5369C54          LDS     SI,[549C]
0736:2D36 895C10            MOV     [SI+10],BX
0736:2D39 5E                POP     SI
0736:2D3A 1F                POP     DS
0736:2D3B C3                RET
0736:2D3C B451              MOV     AH,51
0736:2D3E 1E                PUSH    DS
0736:2D3F 56                PUSH    SI
0736:2D40 C5369C54          LDS     SI,[549C]
0736:2D44 8B5C10            MOV     BX,[SI+10]
0736:2D47 5E                POP     SI
0736:2D48 1F                POP     DS
0736:2D49 C3                RET
0736:2D4A CD21              INT     21
0736:2D4C C3                RET
0736:2D4D A17C54            MOV     AX,[547C]
0736:2D50 3B067E54          CMP     AX,[547E]
0736:2D54 C3                RET
0736:2D55 50                PUSH    AX
0736:2D56 E8F4FF            CALL    2D4D
0736:2D59 750F              JNZ     2D6A
0736:2D5B 53                PUSH    BX
0736:2D5C 52                PUSH    DX
0736:2D5D E8971C            CALL    49F7
0736:2D60 8B362A55          MOV     SI,[552A]
0736:2D64 8B3E3455          MOV     DI,[5534]
0736:2D68 5A                POP     DX
0736:2D69 5B                POP     BX
0736:2D6A 58                POP     AX
0736:2D6B C3                RET
0736:2D6C E85B0F            CALL    3CCA
0736:2D6F 741E              JZ      2D8F
0736:2D71 2E803ED15402      CMP     BYTE PTR CS:[54D1],02
0736:2D77 720E              JB      2D87
0736:2D79 8AD0              MOV     DL,AL
0736:2D7B 33F6              XOR     SI,SI
0736:2D7D FEC2              INC     DL
0736:2D7F B80573            MOV     AX,7305
0736:2D82 F9                STC
0736:2D83 CD21              INT     21
0736:2D85 EB02              JMP     2D89
0736:2D87 CD25              INT     25
0736:2D89 BABE32            MOV     DX,32BE
0736:2D8C E9B108            JMP     3640
0736:2D8F F606D05406        TEST    BYTE PTR [54D0],06
0736:2D94 740F              JZ      2DA5
0736:2D96 3B1E2A55          CMP     BX,[552A]
0736:2D9A 7506              JNZ     2DA2
0736:2D9C 81FA0001          CMP     DX,0100
0736:2DA0 7403              JZ      2DA5
0736:2DA2 E9DB0B            JMP     3980
0736:2DA5 8BF3              MOV     SI,BX
0736:2DA7 8BFA              MOV     DI,DX
0736:2DA9 B8003D            MOV     AX,3D00
0736:2DAC BA8000            MOV     DX,0080
0736:2DAF E898FF            CALL    2D4A
0736:2DB2 7303              JAE     2DB7
0736:2DB4 E97409            JMP     372B
0736:2DB7 93                XCHG    AX,BX
0736:2DB8 B80242            MOV     AX,4202
0736:2DBB 33C9              XOR     CX,CX
0736:2DBD 33D2              XOR     DX,DX
0736:2DBF CD21              INT     21
0736:2DC1 F606D05406        TEST    BYTE PTR [54D0],06
0736:2DC6 757E              JNZ     2E46
0736:2DC8 E88AFF            CALL    2D55
0736:2DCB 8E067C54          MOV     ES,WORD PTR [547C]
0736:2DCF 56                PUSH    SI
0736:2DD0 53                PUSH    BX
0736:2DD1 263B360200        CMP     SI,ES:[0002]
0736:2DD6 9C                PUSHF
0736:2DD7 F7DE              NEG     SI
0736:2DD9 9D                POPF
0736:2DDA 7305              JAE     2DE1
0736:2DDC 2603360200        ADD     SI,ES:[0002]
0736:2DE1 B90400            MOV     CX,0004
0736:2DE4 33DB              XOR     BX,BX
0736:2DE6 D1E6              SHL     SI,1
0736:2DE8 D1D3              RCL     BX,1
0736:2DEA E2FA              LOOPW   2DE6
0736:2DEC 2BF7              SUB     SI,DI
0736:2DEE 1BD9              SBB     BX,CX
0736:2DF0 7208              JB      2DFA
0736:2DF2 3BDA              CMP     BX,DX
0736:2DF4 7502              JNZ     2DF8
0736:2DF6 3BF0              CMP     SI,AX
0736:2DF8 730A              JAE     2E04
0736:2DFA 5B                POP     BX
0736:2DFB 5E                POP     SI
0736:2DFC BAC634            MOV     DX,34C6
0736:2DFF E85209            CALL    3754
0736:2E02 EB2E              JMP     2E32
0736:2E04 5B                POP     BX
0736:2E05 5E                POP     SI
0736:2E06 89161455          MOV     [5514],DX
0736:2E0A A31C55            MOV     [551C],AX
0736:2E0D B80042            MOV     AX,4200
0736:2E10 33C9              XOR     CX,CX
0736:2E12 33D2              XOR     DX,DX
0736:2E14 CD21              INT     21
0736:2E16 BA0F00            MOV     DX,000F
0736:2E19 23D7              AND     DX,DI
0736:2E1B B104              MOV     CL,04
0736:2E1D D3EF              SHR     DI,CL
0736:2E1F 03F7              ADD     SI,DI
0736:2E21 B43F              MOV     AH,3F
0736:2E23 B900FE            MOV     CX,FE00
0736:2E26 8EDE              MOV     DS,SI
0736:2E28 CD21              INT     21
0736:2E2A 81C6E00F          ADD     SI,0FE0
0736:2E2E 3BC1              CMP     AX,CX
0736:2E30 74EF              JZ      2E21
0736:2E32 B43E              MOV     AH,3E
0736:2E34 CD21              INT     21
0736:2E36 16                PUSH    SS
0736:2E37 1F                POP     DS
0736:2E38 C3                RET
0736:2E39 669C              PUSHFD
0736:2E3B 668F063855        POP     DWORD PTR [5538]
0736:2E40 6689263055        MOV     [5530],ESP
0736:2E45 C3                RET
0736:2E46 50                PUSH    AX
0736:2E47 B43E              MOV     AH,3E
0736:2E49 CD21              INT     21
0736:2E4B 5B                POP     BX
0736:2E4C F606D05404        TEST    BYTE PTR [54D0],04
0736:2E51 7407              JZ      2E5A
0736:2E53 81EB0002          SUB     BX,0200
0736:2E57 83DA00            SBB     DX,+00
0736:2E5A 53                PUSH    BX
0736:2E5B 52                PUSH    DX
0736:2E5C E8EEFE            CALL    2D4D
0736:2E5F 7403              JZ      2E64
0736:2E61 E8430B            CALL    39A7
0736:2E64 BF0455            MOV     DI,5504
0736:2E67 B91C00            MOV     CX,001C
0736:2E6A 33C0              XOR     AX,AX
0736:2E6C F3AB              REP     STOSW
0736:2E6E 8F061455          POP     WORD PTR [5514]
0736:2E72 8F061C55          POP     WORD PTR [551C]
0736:2E76 BE0E00            MOV     SI,000E
0736:2E79 BF8054            MOV     DI,5480
0736:2E7C A5                MOVSW
0736:2E7D A5                MOVSW
0736:2E7E A5                MOVSW
0736:2E7F A5                MOVSW
0736:2E80 B8014B            MOV     AX,4B01
0736:2E83 BA8000            MOV     DX,0080
0736:2E86 BBEC54            MOV     BX,54EC
0736:2E89 CD21              INT     21
0736:2E8B 7303              JAE     2E90
0736:2E8D E99B08            JMP     372B
0736:2E90 E8A6FF            CALL    2E39
0736:2E93 8BC4              MOV     AX,SP
0736:2E95 2B062E00          SUB     AX,[002E]
0736:2E99 3D8000            CMP     AX,0080
0736:2E9C 7203              JB      2EA1
0736:2E9E B88000            MOV     AX,0080
0736:2EA1 A37A54            MOV     [547A],AX
0736:2EA4 C436FA54          LES     SI,[54FA]
0736:2EA8 26AD              ES:LODSW
0736:2EAA A32055            MOV     [5520],AX
0736:2EAD 89363055          MOV     [5530],SI
0736:2EB1 8C062855          MOV     WORD PTR [5528],ES
0736:2EB5 C436FE54          LES     SI,[54FE]
0736:2EB9 89363455          MOV     [5534],SI
0736:2EBD 8C062A55          MOV     WORD PTR [552A],ES
0736:2EC1 C606CF5400        MOV     BYTE PTR [54CF],00
0736:2EC6 16                PUSH    SS
0736:2EC7 07                POP     ES
0736:2EC8 F8                CLC
0736:2EC9 E870FE            CALL    2D3C
0736:2ECC 93                XCHG    AX,BX
0736:2ECD A37C54            MOV     [547C],AX
0736:2ED0 BF2455            MOV     DI,5524
0736:2ED3 AB                STOSW
0736:2ED4 AB                STOSW
0736:2ED5 E854FE            CALL    2D2C
0736:2ED8 B82225            MOV     AX,2522
0736:2EDB BA9F1D            MOV     DX,1D9F
0736:2EDE CD21              INT     21
0736:2EE0 8E1E7C54          MOV     DS,WORD PTR [547C]
0736:2EE4 89160A00          MOV     [000A],DX
0736:2EE8 8C0E0C00          MOV     WORD PTR [000C],CS
0736:2EEC 16                PUSH    SS
0736:2EED 1F                POP     DS
0736:2EEE BFB254            MOV     DI,54B2
0736:2EF1 BE3455            MOV     SI,5534
0736:2EF4 57                PUSH    DI
0736:2EF5 A5                MOVSW
0736:2EF6 A5                MOVSW
0736:2EF7 A12A55            MOV     AX,[552A]
0736:2EFA AB                STOSW
0736:2EFB 5E                POP     SI
0736:2EFC B90600            MOV     CX,0006
0736:2EFF F3A5              REP     MOVSW
0736:2F01 C3                RET
0736:2F02 3C0D              CMP     AL,0D
0736:2F04 7458              JZ      2F5E
0736:2F06 8A64FE            MOV     AH,[SI-02]
0736:2F09 80CC20            OR      AH,20
0736:2F0C 80FC6D            CMP     AH,6D
0736:2F0F 744D              JZ      2F5E
0736:2F11 56                PUSH    SI
0736:2F12 E8680F            CALL    3E7D
0736:2F15 3C0D              CMP     AL,0D
0736:2F17 7403              JZ      2F1C
0736:2F19 E8E60F            CALL    3F02
0736:2F1C 5E                POP     SI
0736:2F1D 3C0D              CMP     AL,0D
0736:2F1F 743D              JZ      2F5E
0736:2F21 4E                DEC     SI
0736:2F22 AC                LODSB
0736:2F23 E8750D            CALL    3C9B
0736:2F26 51                PUSH    CX
0736:2F27 B104              MOV     CL,04
0736:2F29 D3EA              SHR     DX,CL
0736:2F2B 03D3              ADD     DX,BX
0736:2F2D 8BC6              MOV     AX,SI
0736:2F2F D3E8              SHR     AX,CL
0736:2F31 8CDB              MOV     BX,DS
0736:2F33 03C3              ADD     AX,BX
0736:2F35 3BC2              CMP     AX,DX
0736:2F37 750B              JNZ     2F44
0736:2F39 8BC6              MOV     AX,SI
0736:2F3B 240F              AND     AL,0F
0736:2F3D 8BDF              MOV     BX,DI
0736:2F3F 80E30F            AND     BL,0F
0736:2F42 3AC3              CMP     AL,BL
0736:2F44 59                POP     CX
0736:2F45 9F                LAHF
0736:2F46 1E                PUSH    DS
0736:2F47 06                PUSH    ES
0736:2F48 16                PUSH    SS
0736:2F49 1F                POP     DS
0736:2F4A E8F60B            CALL    3B43
0736:2F4D 07                POP     ES
0736:2F4E 1F                POP     DS
0736:2F4F 9E                SAHF
0736:2F50 7305              JAE     2F57
0736:2F52 03F1              ADD     SI,CX
0736:2F54 03F9              ADD     DI,CX
0736:2F56 FD                STD
0736:2F57 F3A4              REP     MOVSB
0736:2F59 A4                MOVSB
0736:2F5A FC                CLD
0736:2F5B E971FB            JMP     2ACF
0736:2F5E 0C20              OR      AL,20
0736:2F60 3C63              CMP     AL,63
0736:2F62 7457              JZ      2FBB
0736:2F64 4E                DEC     SI
0736:2F65 E89A0F            CALL    3F02
0736:2F68 3C0D              CMP     AL,0D
0736:2F6A 7419              JZ      2F85
0736:2F6C E8440F            CALL    3EB3
0736:2F6F 8AC2              MOV     AL,DL
0736:2F71 3C06              CMP     AL,06
0736:2F73 7743              JA      2FB8
0736:2F75 A2A154            MOV     [54A1],AL
0736:2F78 A2A654            MOV     [54A6],AL
0736:2F7B 3C03              CMP     AL,03
0736:2F7D 7305              JAE     2F84
0736:2F7F 8026A254FE        AND     BYTE PTR [54A2],FE
0736:2F84 C3                RET
0736:2F85 BED532            MOV     SI,32D5
0736:2F88 A0A154            MOV     AL,[54A1]
0736:2F8B 3C00              CMP     AL,00
0736:2F8D 7407              JZ      2F96
0736:2F8F BEDD32            MOV     SI,32DD
0736:2F92 0430              ADD     AL,30
0736:2F94 8804              MOV     [SI],AL
0736:2F96 E8ED19            CALL    4986
0736:2F99 BEE132            MOV     SI,32E1
0736:2F9C 803EA45400        CMP     BYTE PTR [54A4],00
0736:2FA1 740F              JZ      2FB2
0736:2FA3 BEF632            MOV     SI,32F6
0736:2FA6 A0A654            MOV     AL,[54A6]
0736:2FA9 3A06A154          CMP     AL,[54A1]
0736:2FAD 7403              JZ      2FB2
0736:2FAF BE0833            MOV     SI,3308
0736:2FB2 E8D119            CALL    4986
0736:2FB5 E9151A            JMP     49CD
0736:2FB8 E9C509            JMP     3980
0736:2FBB E8440F            CALL    3F02
0736:2FBE 8A26A154          MOV     AH,[54A1]
0736:2FC2 3C0D              CMP     AL,0D
0736:2FC4 741F              JZ      2FE5
0736:2FC6 0C20              OR      AL,20
0736:2FC8 50                PUSH    AX
0736:2FC9 AC                LODSB
0736:2FCA E8080F            CALL    3ED5
0736:2FCD 58                POP     AX
0736:2FCE 3C6E              CMP     AL,6E
0736:2FD0 7506              JNZ     2FD8
0736:2FD2 C606A45400        MOV     BYTE PTR [54A4],00
0736:2FD7 C3                RET
0736:2FD8 3C32              CMP     AL,32
0736:2FDA 75DC              JNZ     2FB8
0736:2FDC 803EA15403        CMP     BYTE PTR [54A1],03
0736:2FE1 75D5              JNZ     2FB8
0736:2FE3 B402              MOV     AH,02
0736:2FE5 C606A45401        MOV     BYTE PTR [54A4],01
0736:2FEA 8826A654          MOV     [54A6],AH
0736:2FEE C3                RET
0736:2FEF BF8000            MOV     DI,0080
0736:2FF2 3C0D              CMP     AL,0D
0736:2FF4 7419              JZ      300F
0736:2FF6 E8130F            CALL    3F0C
0736:2FF9 7414              JZ      300F
0736:2FFB 3A06AA54          CMP     AL,[54AA]
0736:2FFF 740E              JZ      300F
0736:3001 3C61              CMP     AL,61
0736:3003 7206              JB      300B
0736:3005 3C7A              CMP     AL,7A
0736:3007 7702              JA      300B
0736:3009 24DF              AND     AL,DF
0736:300B AA                STOSB
0736:300C AC                LODSB
0736:300D EBE3              JMP     2FF2
0736:300F B000              MOV     AL,00
0736:3011 AA                STOSB
0736:3012 893EEE54          MOV     [54EE],DI
0736:3016 57                PUSH    DI
0736:3017 56                PUSH    SI
0736:3018 81FF8100          CMP     DI,0081
0736:301C 7424              JZ      3042
0736:301E 81FF8500          CMP     DI,0085
0736:3022 721C              JB      3040
0736:3024 8D55FB            LEA     DX,[DI-05]
0736:3027 BB5E4C            MOV     BX,4C5E
0736:302A B90300            MOV     CX,0003
0736:302D 51                PUSH    CX
0736:302E 8BF3              MOV     SI,BX
0736:3030 8BFA              MOV     DI,DX
0736:3032 83C305            ADD     BX,+05
0736:3035 B104              MOV     CL,04
0736:3037 F3A6              REPE    CMPSB
0736:3039 8A04              MOV     AL,[SI]
0736:303B 59                POP     CX
0736:303C 7404              JZ      3042
0736:303E E2ED              LOOPW   302D
0736:3040 B001              MOV     AL,01
0736:3042 A2D054            MOV     [54D0],AL
0736:3045 5E                POP     SI
0736:3046 BF6856            MOV     DI,5668
0736:3049 57                PUSH    DI
0736:304A 4E                DEC     SI
0736:304B AC                LODSB
0736:304C AA                STOSB
0736:304D 3C0D              CMP     AL,0D
0736:304F 75FA              JNZ     304B
0736:3051 5E                POP     SI
0736:3052 BF5C00            MOV     DI,005C
0736:3055 E82000            CALL    3078
0736:3058 A22055            MOV     [5520],AL
0736:305B BF6C00            MOV     DI,006C
0736:305E E81700            CALL    3078
0736:3061 A22155            MOV     [5521],AL
0736:3064 BE6856            MOV     SI,5668
0736:3067 5F                POP     DI
0736:3068 57                PUSH    DI
0736:3069 47                INC     DI
0736:306A AC                LODSB
0736:306B AA                STOSB
0736:306C 3C0D              CMP     AL,0D
0736:306E 75FA              JNZ     306A
0736:3070 58                POP     AX
0736:3071 97                XCHG    AX,DI
0736:3072 2BC7              SUB     AX,DI
0736:3074 48                DEC     AX
0736:3075 48                DEC     AX
0736:3076 AA                STOSB
0736:3077 C3                RET
0736:3078 AC                LODSB
0736:3079 3C0D              CMP     AL,0D
0736:307B 740B              JZ      3088
0736:307D E88C0E            CALL    3F0C
0736:3080 74F6              JZ      3078
0736:3082 3A06A954          CMP     AL,[54A9]
0736:3086 7420              JZ      30A8
0736:3088 4E                DEC     SI
0736:3089 B80129            MOV     AX,2901
0736:308C E8BBFC            CALL    2D4A
0736:308F 50                PUSH    AX
0736:3090 AC                LODSB
0736:3091 3C0D              CMP     AL,0D
0736:3093 740B              JZ      30A0
0736:3095 E8740E            CALL    3F0C
0736:3098 7406              JZ      30A0
0736:309A 3A06AA54          CMP     AL,[54AA]
0736:309E 75F0              JNZ     3090
0736:30A0 4E                DEC     SI
0736:30A1 58                POP     AX
0736:30A2 3C01              CMP     AL,01
0736:30A4 7501              JNZ     30A7
0736:30A6 48                DEC     AX
0736:30A7 C3                RET
0736:30A8 AC                LODSB
0736:30A9 3C0D              CMP     AL,0D
0736:30AB 74DB              JZ      3088
0736:30AD E85C0E            CALL    3F0C
0736:30B0 74F6              JZ      30A8
0736:30B2 B000              MOV     AL,00
0736:30B4 AA                STOSB
0736:30B5 4E                DEC     SI
0736:30B6 AC                LODSB
0736:30B7 3C61              CMP     AL,61
0736:30B9 7206              JB      30C1
0736:30BB 3C7A              CMP     AL,7A
0736:30BD 7702              JA      30C1
0736:30BF 24DF              AND     AL,DF
0736:30C1 AA                STOSB
0736:30C2 B82020            MOV     AX,2020
0736:30C5 AB                STOSW
0736:30C6 AB                STOSW
0736:30C7 AB                STOSW
0736:30C8 AB                STOSW
0736:30C9 AB                STOSW
0736:30CA 33C0              XOR     AX,AX
0736:30CC AB                STOSW
0736:30CD AB                STOSW
0736:30CE AB                STOSW
0736:30CF AB                STOSW
0736:30D0 C3                RET
0736:30D1 B300              MOV     BL,00
0736:30D3 8AE0              MOV     AH,AL
0736:30D5 80E4DF            AND     AH,DF
0736:30D8 80FC57            CMP     AH,57
0736:30DB 7418              JZ      30F5
0736:30DD 803EA15403        CMP     BYTE PTR [54A1],03
0736:30E2 7215              JB      30F9
0736:30E4 80FC44            CMP     AH,44
0736:30E7 7510              JNZ     30F9
0736:30E9 8A64FE            MOV     AH,[SI-02]
0736:30EC 80E4DF            AND     AH,DF
0736:30EF 80FC4F            CMP     AH,4F
0736:30F2 7505              JNZ     30F9
0736:30F4 43                INC     BX
0736:30F5 43                INC     BX
0736:30F6 E8090E            CALL    3F02
0736:30F9 E8AD0D            CALL    3EA9
0736:30FC 52                PUSH    DX
0736:30FD E8E10D            CALL    3EE1
0736:3100 80FB01            CMP     BL,01
0736:3103 740F              JZ      3114
0736:3105 80FB02            CMP     BL,02
0736:3108 7414              JZ      311E
0736:310A E8A60D            CALL    3EB3
0736:310D E8C50D            CALL    3ED5
0736:3110 92                XCHG    AX,DX
0736:3111 5A                POP     DX
0736:3112 EE                OUT     DX,AL
0736:3113 C3                RET
0736:3114 E8920D            CALL    3EA9
0736:3117 E8BB0D            CALL    3ED5
0736:311A 92                XCHG    AX,DX
0736:311B 5A                POP     DX
0736:311C EF                OUT     DX,AX
0736:311D C3                RET
0736:311E E85C0D            CALL    3E7D
0736:3121 E8B10D            CALL    3ED5
0736:3124 53                PUSH    BX
0736:3125 52                PUSH    DX
0736:3126 6658              POP     EAX
0736:3128 5A                POP     DX
0736:3129 66EF              OUT     DX,EAX
0736:312B C3                RET
0736:312C 06                PUSH    ES
0736:312D 8E062A55          MOV     ES,WORD PTR [552A]
0736:3131 8B1E3455          MOV     BX,[5534]
0736:3135 03D9              ADD     BX,CX
0736:3137 268A07            MOV     AL,ES:[BX]
0736:313A 07                POP     ES
0736:313B C3                RET
0736:313C 06                PUSH    ES
0736:313D 8B1E2A55          MOV     BX,[552A]
0736:3141 8EC3              MOV     ES,BX
0736:3143 8B1E3455          MOV     BX,[5534]
0736:3147 03D9              ADD     BX,CX
0736:3149 268807            MOV     ES:[BX],AL
0736:314C 07                POP     ES
0736:314D C3                RET
0736:314E 1E                PUSH    DS
0736:314F 8EDB              MOV     DS,BX
0736:3151 53                PUSH    BX
0736:3152 8BDA              MOV     BX,DX
0736:3154 8A27              MOV     AH,[BX]
0736:3156 8807              MOV     [BX],AL
0736:3158 3A07              CMP     AL,[BX]
0736:315A 5B                POP     BX
0736:315B 1F                POP     DS
0736:315C 7501              JNZ     315F
0736:315E C3                RET
0736:315F F9                STC
0736:3160 C3                RET
0736:3161 1E                PUSH    DS
0736:3162 8EDB              MOV     DS,BX
0736:3164 8BDA              MOV     BX,DX
0736:3166 8A07              MOV     AL,[BX]
0736:3168 1F                POP     DS
0736:3169 C3                RET
0736:316A B9FFFF            MOV     CX,FFFF
0736:316D E8BCFF            CALL    312C
0736:3170 3CCC              CMP     AL,CC
0736:3172 7407              JZ      317B
0736:3174 BAB333            MOV     DX,33B3
0736:3177 891E3455          MOV     [5534],BX
0736:317B C3                RET
0736:317C E8BD0B            CALL    3D3C
0736:317F 51                PUSH    CX
0736:3180 BA0F00            MOV     DX,000F
0736:3183 8B363455          MOV     SI,[5534]
0736:3187 E8E000            CALL    326A
0736:318A BF982E            MOV     DI,2E98
0736:318D B91F00            MOV     CX,001F
0736:3190 F2AE              REPNE   SCASB
0736:3192 7521              JNZ     31B5
0736:3194 8A451E            MOV     AL,[DI+1E]
0736:3197 A880              TEST    AL,80
0736:3199 7409              JZ      31A4
0736:319B 32F0              XOR     DH,AL
0736:319D FECA              DEC     DL
0736:319F 75E6              JNZ     3187
0736:31A1 E9A600            JMP     324A
0736:31A4 A840              TEST    AL,40
0736:31A6 7407              JZ      31AF
0736:31A8 243F              AND     AL,3F
0736:31AA 80E602            AND     DH,02
0736:31AD 02C6              ADD     AL,DH
0736:31AF 98                CBW
0736:31B0 E8B400            CALL    3267
0736:31B3 EB4D              JMP     3202
0736:31B5 3CFF              CMP     AL,FF
0736:31B7 7403              JZ      31BC
0736:31B9 E98E00            JMP     324A
0736:31BC E8AB00            CALL    326A
0736:31BF 24F7              AND     AL,F7
0736:31C1 3410              XOR     AL,10
0736:31C3 A838              TEST    AL,38
0736:31C5 7403              JZ      31CA
0736:31C7 E98000            JMP     324A
0736:31CA 3CC0              CMP     AL,C0
0736:31CC 7334              JAE     3202
0736:31CE F6C601            TEST    DH,01
0736:31D1 750E              JNZ     31E1
0736:31D3 3C06              CMP     AL,06
0736:31D5 7425              JZ      31FC
0736:31D7 3C40              CMP     AL,40
0736:31D9 7227              JB      3202
0736:31DB 3C80              CMP     AL,80
0736:31DD 7220              JB      31FF
0736:31DF EB1B              JMP     31FC
0736:31E1 3C05              CMP     AL,05
0736:31E3 7411              JZ      31F6
0736:31E5 3404              XOR     AL,04
0736:31E7 A807              TEST    AL,07
0736:31E9 7503              JNZ     31EE
0736:31EB E87700            CALL    3265
0736:31EE 3C40              CMP     AL,40
0736:31F0 7210              JB      3202
0736:31F2 3C80              CMP     AL,80
0736:31F4 7209              JB      31FF
0736:31F6 E86C00            CALL    3265
0736:31F9 E86900            CALL    3265
0736:31FC E86600            CALL    3265
0736:31FF E86300            CALL    3265
0736:3202 8B1E2A55          MOV     BX,[552A]
0736:3206 EB07              JMP     320F
0736:3208 E974FF            JMP     317F
0736:320B B90100            MOV     CX,0001
0736:320E 51                PUSH    CX
0736:320F BF6856            MOV     DI,5668
0736:3212 8BD6              MOV     DX,SI
0736:3214 B0CC              MOV     AL,CC
0736:3216 E835FF            CALL    314E
0736:3219 8AC4              MOV     AL,AH
0736:321B 730C              JAE     3229
0736:321D BED533            MOV     SI,33D5
0736:3220 E86317            CALL    4986
0736:3223 E8A717            CALL    49CD
0736:3226 E983EB            JMP     1DAC
0736:3229 50                PUSH    AX
0736:322A B80100            MOV     AX,0001
0736:322D AB                STOSW
0736:322E 96                XCHG    AX,SI
0736:322F AB                STOSW
0736:3230 8BC3              MOV     AX,BX
0736:3232 AB                STOSW
0736:3233 58                POP     AX
0736:3234 AA                STOSB
0736:3235 E89D07            CALL    39D5
0736:3238 E8DAF9            CALL    2C15
0736:323B 33D2              XOR     DX,DX
0736:323D 813ECA54B333      CMP     WORD PTR [54CA],33B3
0736:3243 7510              JNZ     3255
0736:3245 E822FF            CALL    316A
0736:3248 EB0B              JMP     3255
0736:324A 800E395501        OR      BYTE PTR [5539],01
0736:324F E88307            CALL    39D5
0736:3252 BA9033            MOV     DX,3390
0736:3255 3916CA54          CMP     [54CA],DX
0736:3259 7507              JNZ     3262
0736:325B E87D15            CALL    47DB
0736:325E 59                POP     CX
0736:325F E2A7              LOOPW   3208
0736:3261 C3                RET
0736:3262 E92803            JMP     358D
0736:3265 46                INC     SI
0736:3266 C3                RET
0736:3267 03F0              ADD     SI,AX
0736:3269 C3                RET
0736:326A 1E                PUSH    DS
0736:326B 8E1E2A55          MOV     DS,WORD PTR [552A]
0736:326F AC                LODSB
0736:3270 1F                POP     DS
0736:3271 C3                RET
0736:3272 E83207            CALL    39A7
0736:3275 BFDC54            MOV     DI,54DC
0736:3278 BE1C2E            MOV     SI,2E1C
0736:327B B90400            MOV     CX,0004
0736:327E AC                LODSB
0736:327F 8AD8              MOV     BL,AL
0736:3281 83C602            ADD     SI,+02
0736:3284 87F7              XCHG    SI,DI
0736:3286 AD                LODSW
0736:3287 8BD0              MOV     DX,AX
0736:3289 AD                LODSW
0736:328A 87F7              XCHG    SI,DI
0736:328C 80FB22            CMP     BL,22
0736:328F 740E              JZ      329F
0736:3291 23C0              AND     AX,AX
0736:3293 740A              JZ      329F
0736:3295 1E                PUSH    DS
0736:3296 8ED8              MOV     DS,AX
0736:3298 8AC3              MOV     AL,BL
0736:329A B425              MOV     AH,25
0736:329C CD21              INT     21
0736:329E 1F                POP     DS
0736:329F E2DD              LOOPW   327E
0736:32A1 BE9054            MOV     SI,5490
0736:32A4 BF0A00            MOV     DI,000A
0736:32A7 A5                MOVSW
0736:32A8 A5                MOVSW
0736:32A9 BF1600            MOV     DI,0016
0736:32AC A5                MOVSW
0736:32AD CD20              INT     20
0736:32AF E9FAEA            JMP     1DAC
0736:32B2 E84D0C            CALL    3F02
0736:32B5 3C0D              CMP     AL,0D
0736:32B7 7403              JZ      32BC
0736:32B9 E93001            JMP     33EC
0736:32BC 803EA15403        CMP     BYTE PTR [54A1],03
0736:32C1 721A              JB      32DD
0736:32C3 BE1233            MOV     SI,3312
0736:32C6 E8BD16            CALL    4986
0736:32C9 8036A25401        XOR     BYTE PTR [54A2],01
0736:32CE B86E20            MOV     AX,206E
0736:32D1 7503              JNZ     32D6
0736:32D3 B86666            MOV     AX,6666
0736:32D6 AB                STOSW
0736:32D7 B000              MOV     AL,00
0736:32D9 AA                STOSB
0736:32DA E8F016            CALL    49CD
0736:32DD C3                RET
0736:32DE E8210C            CALL    3F02
0736:32E1 3C0D              CMP     AL,0D
0736:32E3 7403              JZ      32E8
0736:32E5 E90401            JMP     33EC
0736:32E8 803EA45400        CMP     BYTE PTR [54A4],00
0736:32ED 7403              JZ      32F2
0736:32EF E88215            CALL    4874
0736:32F2 C3                RET
0736:32F3 3C0D              CMP     AL,0D
0736:32F5 7503              JNZ     32FA
0736:32F7 E9E114            JMP     47DB
0736:32FA 24DF              AND     AL,DF
0736:32FC 3C58              CMP     AL,58
0736:32FE 74B2              JZ      32B2
0736:3300 3C4E              CMP     AL,4E
0736:3302 74DA              JZ      32DE
0736:3304 4E                DEC     SI
0736:3305 AD                LODSW
0736:3306 25DFDF            AND     AX,DFDF
0736:3309 BF282E            MOV     DI,2E28
0736:330C B91000            MOV     CX,0010
0736:330F F2AF              REPNE   SCASW
0736:3311 8BDF              MOV     BX,DI
0736:3313 BF6856            MOV     DI,5668
0736:3316 752A              JNZ     3342
0736:3318 803C20            CMP     BYTE PTR [SI],20
0736:331B 7725              JA      3342
0736:331D AB                STOSW
0736:331E B020              MOV     AL,20
0736:3320 AA                STOSB
0736:3321 8B5F1E            MOV     BX,[BX+1E]
0736:3324 E8B90B            CALL    3EE0
0736:3327 3C0D              CMP     AL,0D
0736:3329 750E              JNZ     3339
0736:332B 53                PUSH    BX
0736:332C 8B07              MOV     AX,[BX]
0736:332E E86616            CALL    4997
0736:3331 E85F08            CALL    3B93
0736:3334 5B                POP     BX
0736:3335 3C0D              CMP     AL,0D
0736:3337 7408              JZ      3341
0736:3339 E86D0B            CALL    3EA9
0736:333C E8960B            CALL    3ED5
0736:333F 8917              MOV     [BX],DX
0736:3341 C3                RET
0736:3342 3C46              CMP     AL,46
0736:3344 7552              JNZ     3398
0736:3346 4E                DEC     SI
0736:3347 AC                LODSB
0736:3348 3C0D              CMP     AL,0D
0736:334A 7416              JZ      3362
0736:334C 3C20              CMP     AL,20
0736:334E 740B              JZ      335B
0736:3350 3C09              CMP     AL,09
0736:3352 7407              JZ      335B
0736:3354 3C2C              CMP     AL,2C
0736:3356 7403              JZ      335B
0736:3358 E99200            JMP     33ED
0736:335B E8830B            CALL    3EE1
0736:335E 3C0D              CMP     AL,0D
0736:3360 7506              JNZ     3368
0736:3362 E80716            CALL    496C
0736:3365 E82B08            CALL    3B93
0736:3368 3C0D              CMP     AL,0D
0736:336A 74D5              JZ      3341
0736:336C 4E                DEC     SI
0736:336D AD                LODSW
0736:336E 25DFDF            AND     AX,DFDF
0736:3371 BF782E            MOV     DI,2E78
0736:3374 B91000            MOV     CX,0010
0736:3377 F2AF              REPNE   SCASW
0736:3379 751D              JNZ     3398
0736:337B 81FF882E          CMP     DI,2E88
0736:337F 770B              JA      338C
0736:3381 8B45EE            MOV     AX,[DI-12]
0736:3384 F7D0              NOT     AX
0736:3386 21063855          AND     [5538],AX
0736:338A EB07              JMP     3393
0736:338C 8B45DE            MOV     AX,[DI-22]
0736:338F 09063855          OR      [5538],AX
0736:3393 E84A0B            CALL    3EE0
0736:3396 EBD0              JMP     3368
0736:3398 803EA15403        CMP     BYTE PTR [54A1],03
0736:339D 724D              JB      33EC
0736:339F 3C45              CMP     AL,45
0736:33A1 7549              JNZ     33EC
0736:33A3 AC                LODSB
0736:33A4 24DF              AND     AL,DF
0736:33A6 3C53              CMP     AL,53
0736:33A8 7442              JZ      33EC
0736:33AA 86C4              XCHG    AL,AH
0736:33AC B91000            MOV     CX,0010
0736:33AF BF282E            MOV     DI,2E28
0736:33B2 F2AF              REPNE   SCASW
0736:33B4 7536              JNZ     33EC
0736:33B6 8BDF              MOV     BX,DI
0736:33B8 BF6856            MOV     DI,5668
0736:33BB C60545            MOV     BYTE PTR [DI],45
0736:33BE 47                INC     DI
0736:33BF AB                STOSW
0736:33C0 B020              MOV     AL,20
0736:33C2 AA                STOSB
0736:33C3 8B5F1E            MOV     BX,[BX+1E]
0736:33C6 E8170B            CALL    3EE0
0736:33C9 3C0D              CMP     AL,0D
0736:33CB 750F              JNZ     33DC
0736:33CD 53                PUSH    BX
0736:33CE 668B07            MOV     EAX,[BX]
0736:33D1 E8BA15            CALL    498E
0736:33D4 E8BC07            CALL    3B93
0736:33D7 5B                POP     BX
0736:33D8 3C0D              CMP     AL,0D
0736:33DA 740F              JZ      33EB
0736:33DC 53                PUSH    BX
0736:33DD E89D0A            CALL    3E7D
0736:33E0 8BCB              MOV     CX,BX
0736:33E2 5B                POP     BX
0736:33E3 E8EF0A            CALL    3ED5
0736:33E6 8917              MOV     [BX],DX
0736:33E8 894F02            MOV     [BX+02],CX
0736:33EB C3                RET
0736:33EC 4E                DEC     SI
0736:33ED E99005            JMP     3980
0736:33F0 8B1E2455          MOV     BX,[5524]
0736:33F4 33C9              XOR     CX,CX
0736:33F6 E8A609            CALL    3D9F
0736:33F9 E8E50A            CALL    3EE1
0736:33FC 51                PUSH    CX
0736:33FD 52                PUSH    DX
0736:33FE E8FA09            CALL    3DFB
0736:3401 5A                POP     DX
0736:3402 59                POP     CX
0736:3403 2BCA              SUB     CX,DX
0736:3405 81EF6856          SUB     DI,5668
0736:3409 4F                DEC     DI
0736:340A 2BCF              SUB     CX,DI
0736:340C 72DF              JB      33ED
0736:340E E80707            CALL    3B18
0736:3411 87D7              XCHG    DX,DI
0736:3413 E82D07            CALL    3B43
0736:3416 8EC3              MOV     ES,BX
0736:3418 BE6856            MOV     SI,5668
0736:341B AC                LODSB
0736:341C F2AE              REPNE   SCASB
0736:341E 7403              JZ      3423
0736:3420 AE                SCASB
0736:3421 7536              JNZ     3459
0736:3423 51                PUSH    CX
0736:3424 57                PUSH    DI
0736:3425 8BCA              MOV     CX,DX
0736:3427 F3A6              REPE    CMPSB
0736:3429 5F                POP     DI
0736:342A 7529              JNZ     3455
0736:342C E81F07            CALL    3B4E
0736:342F 52                PUSH    DX
0736:3430 87F7              XCHG    SI,DI
0736:3432 8BC3              MOV     AX,BX
0736:3434 E86015            CALL    4997
0736:3437 B03A              MOV     AL,3A
0736:3439 AA                STOSB
0736:343A 8D44FF            LEA     AX,[SI-01]
0736:343D E85715            CALL    4997
0736:3440 B80D0A            MOV     AX,0A0D
0736:3443 AB                STOSW
0736:3444 B90B00            MOV     CX,000B
0736:3447 8D55F5            LEA     DX,[DI-0B]
0736:344A 53                PUSH    BX
0736:344B E88A15            CALL    49D8
0736:344E 5B                POP     BX
0736:344F 5A                POP     DX
0736:3450 8BFE              MOV     DI,SI
0736:3452 E8EE06            CALL    3B43
0736:3455 59                POP     CX
0736:3456 41                INC     CX
0736:3457 E2BD              LOOPW   3416
0736:3459 E9F206            JMP     3B4E
0736:345C E8810A            CALL    3EE0
0736:345F 3C0D              CMP     AL,0D
0736:3461 7412              JZ      3475
0736:3463 E8430A            CALL    3EA9
0736:3466 83FA01            CMP     DX,+01
0736:3469 7603              JBE     346E
0736:346B E91205            JMP     3980
0736:346E E8640A            CALL    3ED5
0736:3471 8816A354          MOV     [54A3],DL
0736:3475 BE1D33            MOV     SI,331D
0736:3478 E80B15            CALL    4986
0736:347B A0A354            MOV     AL,[54A3]
0736:347E A801              TEST    AL,01
0736:3480 9C                PUSHF
0736:3481 0430              ADD     AL,30
0736:3483 AA                STOSB
0736:3484 BE2C33            MOV     SI,332C
0736:3487 E8FC14            CALL    4986
0736:348A BE4033            MOV     SI,3340
0736:348D 9D                POPF
0736:348E 7403              JZ      3493
0736:3490 BE3933            MOV     SI,3339
0736:3493 E8F014            CALL    4986
0736:3496 E83415            CALL    49CD
0736:3499 C3                RET
0736:349A 8AE0              MOV     AH,AL
0736:349C 80E4DF            AND     AH,DF
0736:349F 80FC4D            CMP     AH,4D
0736:34A2 74B8              JZ      345C
0736:34A4 C706CC540218      MOV     WORD PTR [54CC],1802
0736:34AA E88F08            CALL    3D3C
0736:34AD 51                PUSH    CX
0736:34AE E80400            CALL    34B5
0736:34B1 59                POP     CX
0736:34B2 E2F9              LOOPW   34AD
0736:34B4 C3                RET
0736:34B5 33C9              XOR     CX,CX
0736:34B7 E872FC            CALL    312C
0736:34BA 3CCD              CMP     AL,CD
0736:34BC 7513              JNZ     34D1
0736:34BE 41                INC     CX
0736:34BF E86AFC            CALL    312C
0736:34C2 3C03              CMP     AL,03
0736:34C4 740B              JZ      34D1
0736:34C6 F606A35401        TEST    BYTE PTR [54A3],01
0736:34CB 7429              JZ      34F6
0736:34CD 3C01              CMP     AL,01
0736:34CF 753C              JNZ     350D
0736:34D1 800E395501        OR      BYTE PTR [5539],01
0736:34D6 33C9              XOR     CX,CX
0736:34D8 E851FC            CALL    312C
0736:34DB 50                PUSH    AX
0736:34DC E8F604            CALL    39D5
0736:34DF 58                POP     AX
0736:34E0 3C9C              CMP     AL,9C
0736:34E2 7503              JNZ     34E7
0736:34E4 E89600            CALL    357D
0736:34E7 813ECA549033      CMP     WORD PTR [54CA],3390
0736:34ED 7403              JZ      34F2
0736:34EF E99B00            JMP     358D
0736:34F2 E8E612            CALL    47DB
0736:34F5 C3                RET
0736:34F6 B90200            MOV     CX,0002
0736:34F9 E86500            CALL    3561
0736:34FC 72D3              JB      34D1
0736:34FE 8B1E2A55          MOV     BX,[552A]
0736:3502 8B363455          MOV     SI,[5534]
0736:3506 83C602            ADD     SI,+02
0736:3509 E8FFFC            CALL    320B
0736:350C C3                RET
0736:350D 8AD8              MOV     BL,AL
0736:350F B700              MOV     BH,00
0736:3511 1E                PUSH    DS
0736:3512 33C0              XOR     AX,AX
0736:3514 8ED8              MOV     DS,AX
0736:3516 D1E3              SHL     BX,1
0736:3518 D1E3              SHL     BX,1
0736:351A FA                CLI
0736:351B C537              LDS     SI,[BX]
0736:351D 8A04              MOV     AL,[SI]
0736:351F 8034FF            XOR     BYTE PTR [SI],FF
0736:3522 3A04              CMP     AL,[SI]
0736:3524 8804              MOV     [SI],AL
0736:3526 FB                STI
0736:3527 7407              JZ      3530
0736:3529 8CDB              MOV     BX,DS
0736:352B 1F                POP     DS
0736:352C E8DCFC            CALL    320B
0736:352F C3                RET
0736:3530 8CD8              MOV     AX,DS
0736:3532 1F                POP     DS
0736:3533 87363455          XCHG    SI,[5534]
0736:3537 87062A55          XCHG    AX,[552A]
0736:353B 8B0E3855          MOV     CX,[5538]
0736:353F 1E                PUSH    DS
0736:3540 8B1E3055          MOV     BX,[5530]
0736:3544 8E1E2855          MOV     DS,WORD PTR [5528]
0736:3548 83EB06            SUB     BX,+06
0736:354B 46                INC     SI
0736:354C 46                INC     SI
0736:354D 8937              MOV     [BX],SI
0736:354F 894702            MOV     [BX+02],AX
0736:3552 894F04            MOV     [BX+04],CX
0736:3555 1F                POP     DS
0736:3556 891E3055          MOV     [5530],BX
0736:355A 80263955FC        AND     BYTE PTR [5539],FC
0736:355F EB91              JMP     34F2
0736:3561 E8C8FB            CALL    312C
0736:3564 8AE0              MOV     AH,AL
0736:3566 34FF              XOR     AL,FF
0736:3568 E8D1FB            CALL    313C
0736:356B 720E              JB      357B
0736:356D E8BCFB            CALL    312C
0736:3570 3AE0              CMP     AH,AL
0736:3572 7407              JZ      357B
0736:3574 8AC4              MOV     AL,AH
0736:3576 E8C3FB            CALL    313C
0736:3579 F8                CLC
0736:357A C3                RET
0736:357B F9                STC
0736:357C C3                RET
0736:357D 06                PUSH    ES
0736:357E 8E062855          MOV     ES,WORD PTR [5528]
0736:3582 8B1E3055          MOV     BX,[5530]
0736:3586 26806701FE        AND     BYTE PTR ES:[BX+01],FE
0736:358B 07                POP     ES
0736:358C C3                RET
0736:358D 8B16CA54          MOV     DX,[54CA]
0736:3591 E8C001            CALL    3754
0736:3594 81FAEC33          CMP     DX,33EC
0736:3598 7403              JZ      359D
0736:359A E83E12            CALL    47DB
0736:359D E90CE8            JMP     1DAC
0736:35A0 C706CC540819      MOV     WORD PTR [54CC],1908
0736:35A6 3C0D              CMP     AL,0D
0736:35A8 750E              JNZ     35B8
0736:35AA 8B0EBE54          MOV     CX,[54BE]
0736:35AE 83C11F            ADD     CX,+1F
0736:35B1 731A              JAE     35CD
0736:35B3 B9FFFF            MOV     CX,FFFF
0736:35B6 EB15              JMP     35CD
0736:35B8 B92000            MOV     CX,0020
0736:35BB 8B1E2A55          MOV     BX,[552A]
0736:35BF E8DD07            CALL    3D9F
0736:35C2 E81009            CALL    3ED5
0736:35C5 8916BE54          MOV     [54BE],DX
0736:35C9 891EC254          MOV     [54C2],BX
0736:35CD 41                INC     CX
0736:35CE 51                PUSH    CX
0736:35CF 52                PUSH    DX
0736:35D0 E84C09            CALL    3F1F
0736:35D3 5B                POP     BX
0736:35D4 59                POP     CX
0736:35D5 A1BE54            MOV     AX,[54BE]
0736:35D8 8BD0              MOV     DX,AX
0736:35DA 2BC1              SUB     AX,CX
0736:35DC 2BD9              SUB     BX,CX
0736:35DE 3BC3              CMP     AX,BX
0736:35E0 73EC              JAE     35CE
0736:35E2 C3                RET
0736:35E3 50                PUSH    AX
0736:35E4 53                PUSH    BX
0736:35E5 51                PUSH    CX
0736:35E6 52                PUSH    DX
0736:35E7 8AD8              MOV     BL,AL
0736:35E9 FEC3              INC     BL
0736:35EB B700              MOV     BH,00
0736:35ED B94A08            MOV     CX,084A
0736:35F0 BA0100            MOV     DX,0001
0736:35F3 B80D44            MOV     AX,440D
0736:35F6 CD21              INT     21
0736:35F8 5A                POP     DX
0736:35F9 59                POP     CX
0736:35FA 5B                POP     BX
0736:35FB 58                POP     AX
0736:35FC C3                RET
0736:35FD 50                PUSH    AX
0736:35FE 53                PUSH    BX
0736:35FF 51                PUSH    CX
0736:3600 52                PUSH    DX
0736:3601 8AD8              MOV     BL,AL
0736:3603 FEC3              INC     BL
0736:3605 B700              MOV     BH,00
0736:3607 B96A08            MOV     CX,086A
0736:360A BA0100            MOV     DX,0001
0736:360D B80D44            MOV     AX,440D
0736:3610 CD21              INT     21
0736:3612 5A                POP     DX
0736:3613 59                POP     CX
0736:3614 5B                POP     BX
0736:3615 58                POP     AX
0736:3616 C3                RET
0736:3617 E8B006            CALL    3CCA
0736:361A 7460              JZ      367C
0736:361C 2E803ED15402      CMP     BYTE PTR CS:[54D1],02
0736:3622 7217              JB      363B
0736:3624 8AD0              MOV     DL,AL
0736:3626 BE0160            MOV     SI,6001
0736:3629 FEC2              INC     DL
0736:362B E8B5FF            CALL    35E3
0736:362E B80573            MOV     AX,7305
0736:3631 F9                STC
0736:3632 CD21              INT     21
0736:3634 9C                PUSHF
0736:3635 E8C5FF            CALL    35FD
0736:3638 9D                POPF
0736:3639 EB02              JMP     363D
0736:363B CD26              INT     26
0736:363D BAC432            MOV     DX,32C4
0736:3640 8CD3              MOV     BX,SS
0736:3642 8EDB              MOV     DS,BX
0736:3644 8B267454          MOV     SP,[5474]
0736:3648 8EC3              MOV     ES,BX
0736:364A 732D              JAE     3679
0736:364C 3C0C              CMP     AL,0C
0736:364E 7602              JBE     3652
0736:3650 B00C              MOV     AL,0C
0736:3652 98                CBW
0736:3653 D1E0              SHL     AX,1
0736:3655 96                XCHG    AX,SI
0736:3656 8A84B132          MOV     AL,[SI+32B1]
0736:365A BEF531            MOV     SI,31F5
0736:365D 03F0              ADD     SI,AX
0736:365F BF6856            MOV     DI,5668
0736:3662 E82113            CALL    4986
0736:3665 8BF2              MOV     SI,DX
0736:3667 E81C13            CALL    4986
0736:366A BECA32            MOV     SI,32CA
0736:366D E81613            CALL    4986
0736:3670 A0AB54            MOV     AL,[54AB]
0736:3673 0441              ADD     AL,41
0736:3675 AA                STOSB
0736:3676 E85413            CALL    49CD
0736:3679 E930E7            JMP     1DAC
0736:367C A0D054            MOV     AL,[54D0]
0736:367F A80C              TEST    AL,0C
0736:3681 7405              JZ      3688
0736:3683 BA1334            MOV     DX,3413
0736:3686 EB07              JMP     368F
0736:3688 3C00              CMP     AL,00
0736:368A 7506              JNZ     3692
0736:368C BA3934            MOV     DX,3439
0736:368F E9C200            JMP     3754
0736:3692 BD6856            MOV     BP,5668
0736:3695 80FEFE            CMP     DH,FE
0736:3698 7207              JB      36A1
0736:369A 80EEFE            SUB     DH,FE
0736:369D 81C3E00F          ADD     BX,0FE0
0736:36A1 89560A            MOV     [BP+0A],DX
0736:36A4 8BF3              MOV     SI,BX
0736:36A6 B43C              MOV     AH,3C
0736:36A8 33C9              XOR     CX,CX
0736:36AA BA8000            MOV     DX,0080
0736:36AD E89AF6            CALL    2D4A
0736:36B0 7279              JB      372B
0736:36B2 50                PUSH    AX
0736:36B3 BA5C34            MOV     DX,345C
0736:36B6 E89B00            CALL    3754
0736:36B9 A11455            MOV     AX,[5514]
0736:36BC 83F810            CMP     AX,+10
0736:36BF 7202              JB      36C3
0736:36C1 33C0              XOR     AX,AX
0736:36C3 894608            MOV     [BP+08],AX
0736:36C6 0BC0              OR      AX,AX
0736:36C8 7403              JZ      36CD
0736:36CA E8DC12            CALL    49A9
0736:36CD A11C55            MOV     AX,[551C]
0736:36D0 894606            MOV     [BP+06],AX
0736:36D3 E8C112            CALL    4997
0736:36D6 E8F812            CALL    49D1
0736:36D9 BA6534            MOV     DX,3465
0736:36DC E87500            CALL    3754
0736:36DF 5B                POP     BX
0736:36E0 8B560A            MOV     DX,[BP+0A]
0736:36E3 B800FE            MOV     AX,FE00
0736:36E6 2BC2              SUB     AX,DX
0736:36E8 807E0800          CMP     BYTE PTR [BP+08],00
0736:36EC 7508              JNZ     36F6
0736:36EE 3B4606            CMP     AX,[BP+06]
0736:36F1 7203              JB      36F6
0736:36F3 8B4606            MOV     AX,[BP+06]
0736:36F6 91                XCHG    AX,CX
0736:36F7 8EDE              MOV     DS,SI
0736:36F9 B440              MOV     AH,40
0736:36FB CD21              INT     21
0736:36FD 16                PUSH    SS
0736:36FE 1F                POP     DS
0736:36FF 3BC1              CMP     AX,CX
0736:3701 7515              JNZ     3718
0736:3703 33D2              XOR     DX,DX
0736:3705 81C6E00F          ADD     SI,0FE0
0736:3709 294E06            SUB     [BP+06],CX
0736:370C 9F                LAHF
0736:370D 805E0800          SBB     BYTE PTR [BP+08],00
0736:3711 75D0              JNZ     36E3
0736:3713 9E                SAHF
0736:3714 75CD              JNZ     36E3
0736:3716 EB0E              JMP     3726
0736:3718 BA6E34            MOV     DX,346E
0736:371B E83600            CALL    3754
0736:371E B441              MOV     AH,41
0736:3720 BA8000            MOV     DX,0080
0736:3723 E824F6            CALL    2D4A
0736:3726 B43E              MOV     AH,3E
0736:3728 CD21              INT     21
0736:372A C3                RET
0736:372B 83F802            CMP     AX,+02
0736:372E BA9434            MOV     DX,3494
0736:3731 7421              JZ      3754
0736:3733 83F803            CMP     AX,+03
0736:3736 BAA534            MOV     DX,34A5
0736:3739 7419              JZ      3754
0736:373B 83F805            CMP     AX,+05
0736:373E BAB634            MOV     DX,34B6
0736:3741 7411              JZ      3754
0736:3743 83F808            CMP     AX,+08
0736:3746 BAC634            MOV     DX,34C6
0736:3749 7409              JZ      3754
0736:374B BF8034            MOV     DI,3480
0736:374E E84612            CALL    4997
0736:3751 BA7A34            MOV     DX,347A
0736:3754 B409              MOV     AH,09
0736:3756 E8F1F5            CALL    2D4A
0736:3759 C3                RET
0736:375A E8AB01            CALL    3908
0736:375D E88007            CALL    3EE0
0736:3760 E84607            CALL    3EA9
0736:3763 E86F07            CALL    3ED5
0736:3766 8BDA              MOV     BX,DX
0736:3768 B443              MOV     AH,43
0736:376A 23DB              AND     BX,BX
0736:376C 7503              JNZ     3771
0736:376E B8005A            MOV     AX,5A00
0736:3771 E86501            CALL    38D9
0736:3774 52                PUSH    DX
0736:3775 BE6636            MOV     SI,3666
0736:3778 E80B12            CALL    4986
0736:377B 58                POP     AX
0736:377C E81812            CALL    4997
0736:377F E94B12            JMP     49CD
0736:3782 E88301            CALL    3908
0736:3785 E85807            CALL    3EE0
0736:3788 E81E07            CALL    3EA9
0736:378B E84707            CALL    3ED5
0736:378E B445              MOV     AH,45
0736:3790 E84601            CALL    38D9
0736:3793 52                PUSH    DX
0736:3794 BE7736            MOV     SI,3677
0736:3797 E8EC11            CALL    4986
0736:379A 58                POP     AX
0736:379B E8F911            CALL    4997
0736:379E E92C12            JMP     49CD
0736:37A1 3C3F              CMP     AL,3F
0736:37A3 7419              JZ      37BE
0736:37A5 0C20              OR      AL,20
0736:37A7 3C61              CMP     AL,61
0736:37A9 74AF              JZ      375A
0736:37AB 3C64              CMP     AL,64
0736:37AD 74D3              JZ      3782
0736:37AF 3C72              CMP     AL,72
0736:37B1 7414              JZ      37C7
0736:37B3 3C6D              CMP     AL,6D
0736:37B5 7434              JZ      37EB
0736:37B7 3C73              CMP     AL,73
0736:37B9 746D              JZ      3828
0736:37BB E9C201            JMP     3980
0736:37BE BAB535            MOV     DX,35B5
0736:37C1 B9B100            MOV     CX,00B1
0736:37C4 E91112            JMP     49D8
0736:37C7 E83E01            CALL    3908
0736:37CA E81307            CALL    3EE0
0736:37CD E8D906            CALL    3EA9
0736:37D0 8BDA              MOV     BX,DX
0736:37D2 E80B07            CALL    3EE0
0736:37D5 E8D106            CALL    3EA9
0736:37D8 E8FA06            CALL    3ED5
0736:37DB 87DA              XCHG    BX,DX
0736:37DD B451              MOV     AH,51
0736:37DF E8F700            CALL    38D9
0736:37E2 BE8C36            MOV     SI,368C
0736:37E5 E89E11            CALL    4986
0736:37E8 E9E211            JMP     49CD
0736:37EB E81A01            CALL    3908
0736:37EE E8EF06            CALL    3EE0
0736:37F1 E8B506            CALL    3EA9
0736:37F4 8BDA              MOV     BX,DX
0736:37F6 E8E806            CALL    3EE1
0736:37F9 E8B706            CALL    3EB3
0736:37FC 52                PUSH    DX
0736:37FD E8E106            CALL    3EE1
0736:3800 E8A606            CALL    3EA9
0736:3803 E8CF06            CALL    3ED5
0736:3806 58                POP     AX
0736:3807 50                PUSH    AX
0736:3808 B444              MOV     AH,44
0736:380A E8CC00            CALL    38D9
0736:380D BE9F36            MOV     SI,369F
0736:3810 E87311            CALL    4986
0736:3813 8BEF              MOV     BP,DI
0736:3815 BF7556            MOV     DI,5675
0736:3818 93                XCHG    AX,BX
0736:3819 E88211            CALL    499E
0736:381C BF9056            MOV     DI,5690
0736:381F 58                POP     AX
0736:3820 E87B11            CALL    499E
0736:3823 8BFD              MOV     DI,BP
0736:3825 E9A511            JMP     49CD
0736:3828 E8DD00            CALL    3908
0736:382B AC                LODSB
0736:382C E8A606            CALL    3ED5
0736:382F B44B              MOV     AH,4B
0736:3831 E8A500            CALL    38D9
0736:3834 83FB42            CMP     BX,+42
0736:3837 761C              JBE     3855
0736:3839 33D2              XOR     DX,DX
0736:383B B44C              MOV     AH,4C
0736:383D CD67              INT     67
0736:383F 80FC83            CMP     AH,83
0736:3842 740B              JZ      384F
0736:3844 0AE4              OR      AH,AH
0736:3846 7403              JZ      384B
0736:3848 E99500            JMP     38E0
0736:384B 93                XCHG    AX,BX
0736:384C E8DC00            CALL    392B
0736:384F FEC2              INC     DL
0736:3851 75E8              JNZ     383B
0736:3853 EB17              JMP     386C
0736:3855 B44D              MOV     AH,4D
0736:3857 BF6856            MOV     DI,5668
0736:385A E87C00            CALL    38D9
0736:385D 23DB              AND     BX,BX
0736:385F 740B              JZ      386C
0736:3861 8BF7              MOV     SI,DI
0736:3863 AD                LODSW
0736:3864 92                XCHG    AX,DX
0736:3865 AD                LODSW
0736:3866 E8C200            CALL    392B
0736:3869 4B                DEC     BX
0736:386A 75F7              JNZ     3863
0736:386C BAE531            MOV     DX,31E5
0736:386F E8E2FE            CALL    3754
0736:3872 B80058            MOV     AX,5800
0736:3875 BF6856            MOV     DI,5668
0736:3878 E85E00            CALL    38D9
0736:387B BA4237            MOV     DX,3742
0736:387E E32B              JCXZ    38AB
0736:3880 8BF7              MOV     SI,DI
0736:3882 51                PUSH    CX
0736:3883 AD                LODSW
0736:3884 BF0837            MOV     DI,3708
0736:3887 E80D11            CALL    4997
0736:388A AD                LODSW
0736:388B BFFB36            MOV     DI,36FB
0736:388E E80D11            CALL    499E
0736:3891 BAF036            MOV     DX,36F0
0736:3894 B91E00            MOV     CX,001E
0736:3897 E83E11            CALL    49D8
0736:389A 59                POP     CX
0736:389B F6C101            TEST    CL,01
0736:389E 7406              JZ      38A6
0736:38A0 BAE531            MOV     DX,31E5
0736:38A3 E8AEFE            CALL    3754
0736:38A6 E2DA              LOOPW   3882
0736:38A8 BAE531            MOV     DX,31E5
0736:38AB E8A6FE            CALL    3754
0736:38AE B442              MOV     AH,42
0736:38B0 E82600            CALL    38D9
0736:38B3 8BC2              MOV     AX,DX
0736:38B5 2BC3              SUB     AX,BX
0736:38B7 BB2137            MOV     BX,3721
0736:38BA E88800            CALL    3945
0736:38BD B44B              MOV     AH,4B
0736:38BF E81700            CALL    38D9
0736:38C2 93                XCHG    AX,BX
0736:38C3 B80254            MOV     AX,5402
0736:38C6 CD67              INT     67
0736:38C8 8BD3              MOV     DX,BX
0736:38CA 80FC00            CMP     AH,00
0736:38CD 7403              JZ      38D2
0736:38CF BAFF00            MOV     DX,00FF
0736:38D2 BB2537            MOV     BX,3725
0736:38D5 E86D00            CALL    3945
0736:38D8 C3                RET
0736:38D9 CD67              INT     67
0736:38DB 22E4              AND     AH,AH
0736:38DD 7801              JS      38E0
0736:38DF C3                RET
0736:38E0 8AC4              MOV     AL,AH
0736:38E2 3C8B              CMP     AL,8B
0736:38E4 7F0D              JG      38F3
0736:38E6 98                CBW
0736:38E7 8BD8              MOV     BX,AX
0736:38E9 D1E3              SHL     BX,1
0736:38EB 8BB79D36          MOV     SI,[BX+369D]
0736:38EF 0BF6              OR      SI,SI
0736:38F1 7509              JNZ     38FC
0736:38F3 BF9A35            MOV     DI,359A
0736:38F6 E8A510            CALL    499E
0736:38F9 BE9035            MOV     SI,3590
0736:38FC BF6856            MOV     DI,5668
0736:38FF E88410            CALL    4986
0736:3902 E8C810            CALL    49CD
0736:3905 E9A4E4            JMP     1DAC
0736:3908 06                PUSH    ES
0736:3909 B86735            MOV     AX,3567
0736:390C CD21              INT     21
0736:390E 8CC0              MOV     AX,ES
0736:3910 07                POP     ES
0736:3911 0BC3              OR      AX,BX
0736:3913 740A              JZ      391F
0736:3915 B446              MOV     AH,46
0736:3917 E8BFFF            CALL    38D9
0736:391A 22E4              AND     AH,AH
0736:391C 7501              JNZ     391F
0736:391E C3                RET
0736:391F BEDC34            MOV     SI,34DC
0736:3922 E86110            CALL    4986
0736:3925 E8A510            CALL    49CD
0736:3928 E981E4            JMP     1DAC
0736:392B BFDA36            MOV     DI,36DA
0736:392E E86610            CALL    4997
0736:3931 8BC2              MOV     AX,DX
0736:3933 BFD136            MOV     DI,36D1
0736:3936 E85E10            CALL    4997
0736:3939 52                PUSH    DX
0736:393A BACA36            MOV     DX,36CA
0736:393D B92600            MOV     CX,0026
0736:3940 E89510            CALL    49D8
0736:3943 5A                POP     DX
0736:3944 C3                RET
0736:3945 BF6856            MOV     DI,5668
0736:3948 E81E00            CALL    3969
0736:394B BE0E37            MOV     SI,370E
0736:394E E83510            CALL    4986
0736:3951 92                XCHG    AX,DX
0736:3952 E81400            CALL    3969
0736:3955 BE1B37            MOV     SI,371B
0736:3958 E82B10            CALL    4986
0736:395B 8BF3              MOV     SI,BX
0736:395D E82610            CALL    4986
0736:3960 BE2B37            MOV     SI,372B
0736:3963 E82010            CALL    4986
0736:3966 E96410            JMP     49CD
0736:3969 E82B10            CALL    4997
0736:396C 57                PUSH    DI
0736:396D 83EF04            SUB     DI,+04
0736:3970 B90300            MOV     CX,0003
0736:3973 B030              MOV     AL,30
0736:3975 AE                SCASB
0736:3976 7506              JNZ     397E
0736:3978 C645FF20          MOV     BYTE PTR [DI-01],20
0736:397C E2F7              LOOPW   3975
0736:397E 5F                POP     DI
0736:397F C3                RET
0736:3980 8BCE              MOV     CX,SI
0736:3982 81E96A55          SUB     CX,556A
0736:3986 030EAC54          ADD     CX,[54AC]
0736:398A BF6856            MOV     DI,5668
0736:398D 8BD7              MOV     DX,DI
0736:398F 83F97F            CMP     CX,+7F
0736:3992 7705              JA      3999
0736:3994 41                INC     CX
0736:3995 B020              MOV     AL,20
0736:3997 F3AA              REP     STOSB
0736:3999 BEEE31            MOV     SI,31EE
0736:399C B107              MOV     CL,07
0736:399E F3A4              REP     MOVSB
0736:39A0 E82A10            CALL    49CD
0736:39A3 FF267654          JMP     WORD PTR [5476]
0736:39A7 8C0E2A55          MOV     WORD PTR [552A],CS
0736:39AB C70634551D1D      MOV     WORD PTR [5534],1D1D
0736:39B1 8C162855          MOV     WORD PTR [5528],SS
0736:39B5 50                PUSH    AX
0736:39B6 89263055          MOV     [5530],SP
0736:39BA 58                POP     AX
0736:39BB E81700            CALL    39D5
0736:39BE C3                RET
0736:39BF B8004C            MOV     AX,4C00
0736:39C2 CD21              INT     21
0736:39C4 BE8054            MOV     SI,5480
0736:39C7 06                PUSH    ES
0736:39C8 33FF              XOR     DI,DI
0736:39CA 8EC7              MOV     ES,DI
0736:39CC BF8C00            MOV     DI,008C
0736:39CF A5                MOVSW
0736:39D0 A5                MOVSW
0736:39D1 A5                MOVSW
0736:39D2 A5                MOVSW
0736:39D3 07                POP     ES
0736:39D4 C3                RET
0736:39D5 E89C03            CALL    3D74
0736:39D8 8B1E7C54          MOV     BX,[547C]
0736:39DC E84FF3            CALL    2D2E
0736:39DF E8E2FF            CALL    39C4
0736:39E2 89267854          MOV     [5478],SP
0736:39E6 2B267A54          SUB     SP,[547A]
0736:39EA 89262E00          MOV     [002E],SP
0736:39EE FA                CLI
0736:39EF BC0455            MOV     SP,5504
0736:39F2 803EA15403        CMP     BYTE PTR [54A1],03
0736:39F7 720C              JB      3A05
0736:39F9 6661              POPAD
0736:39FB 8E262C55          MOV     FS,WORD PTR [552C]
0736:39FF 8E2E2E55          MOV     GS,WORD PTR [552E]
0736:3A03 EB12              JMP     3A17
0736:3A05 5F                POP     DI
0736:3A06 5E                POP     SI
0736:3A07 5E                POP     SI
0736:3A08 5D                POP     BP
0736:3A09 5D                POP     BP
0736:3A0A 83C406            ADD     SP,+06
0736:3A0D 5B                POP     BX
0736:3A0E 5A                POP     DX
0736:3A0F 5A                POP     DX
0736:3A10 59                POP     CX
0736:3A11 59                POP     CX
0736:3A12 58                POP     AX
0736:3A13 58                POP     AX
0736:3A14 83C402            ADD     SP,+02
0736:3A17 07                POP     ES
0736:3A18 07                POP     ES
0736:3A19 17                POP     SS
0736:3A1A 668B263055        MOV     ESP,[5530]
0736:3A1F C606A55400        MOV     BYTE PTR [54A5],00
0736:3A24 66FF363855        PUSH    DWORD PTR [5538]
0736:3A29 66FF362A55        PUSH    DWORD PTR [552A]
0736:3A2E 66FF363455        PUSH    DWORD PTR [5534]
0736:3A33 F606395502        TEST    BYTE PTR [5539],02
0736:3A38 8E1E2455          MOV     DS,WORD PTR [5524]
0736:3A3C 7401              JZ      3A3F
0736:3A3E FB                STI
0736:3A3F 66CF              IRETD
0736:3A41 FA                CLI
0736:3A42 2EC706CA54EC33    MOV     WORD PTR CS:[54CA],33EC
0736:3A49 2EC706CC545D01    MOV     WORD PTR CS:[54CC],015D
0736:3A50 8CC8              MOV     AX,CS
0736:3A52 8ED0              MOV     SS,AX
0736:3A54 8ED8              MOV     DS,AX
0736:3A56 EB6E              JMP     3AC6
0736:3A58 2EC706CA548133    MOV     WORD PTR CS:[54CA],3381
0736:3A5F EB10              JMP     3A71
0736:3A61 2EC706CA549033    MOV     WORD PTR CS:[54CA],3390
0736:3A68 EB07              JMP     3A71
0736:3A6A 2EC706CA54B333    MOV     WORD PTR CS:[54CA],33B3
0736:3A71 FA                CLI
0736:3A72 2E8F063455        POP     WORD PTR CS:[5534]
0736:3A77 2E8F062A55        POP     WORD PTR CS:[552A]
0736:3A7C 2E8F063855        POP     WORD PTR CS:[5538]
0736:3A81 2E8C162855        MOV     WORD PTR CS:[5528],SS
0736:3A86 662E89263055      MOV     CS:[5530],ESP
0736:3A8C 8CCC              MOV     SP,CS
0736:3A8E 8ED4              MOV     SS,SP
0736:3A90 BC2855            MOV     SP,5528
0736:3A93 06                PUSH    ES
0736:3A94 1E                PUSH    DS
0736:3A95 16                PUSH    SS
0736:3A96 1F                POP     DS
0736:3A97 803EA15403        CMP     BYTE PTR [54A1],03
0736:3A9C 7218              JB      3AB6
0736:3A9E 8C262C55          MOV     WORD PTR [552C],FS
0736:3AA2 8C2E2E55          MOV     WORD PTR [552E],GS
0736:3AA6 669C              PUSHFD
0736:3AA8 9D                POPF
0736:3AA9 8F063A55          POP     WORD PTR [553A]
0736:3AAD 6A00              PUSH    +00
0736:3AAF 9C                PUSHF
0736:3AB0 669D              POPFD
0736:3AB2 6660              PUSHAD
0736:3AB4 EB10              JMP     3AC6
0736:3AB6 50                PUSH    AX
0736:3AB7 50                PUSH    AX
0736:3AB8 51                PUSH    CX
0736:3AB9 51                PUSH    CX
0736:3ABA 52                PUSH    DX
0736:3ABB 52                PUSH    DX
0736:3ABC 53                PUSH    BX
0736:3ABD 53                PUSH    BX
0736:3ABE 83EC06            SUB     SP,+06
0736:3AC1 55                PUSH    BP
0736:3AC2 56                PUSH    SI
0736:3AC3 56                PUSH    SI
0736:3AC4 57                PUSH    DI
0736:3AC5 57                PUSH    DI
0736:3AC6 8B267854          MOV     SP,[5478]
0736:3ACA FC                CLD
0736:3ACB FB                STI
0736:3ACC E86DF2            CALL    2D3C
0736:3ACF 891E7C54          MOV     [547C],BX
0736:3AD3 E82200            CALL    3AF8
0736:3AD6 1E                PUSH    DS
0736:3AD7 07                POP     ES
0736:3AD8 E851F2            CALL    2D2C
0736:3ADB 80263955FE        AND     BYTE PTR [5539],FE
0736:3AE0 C606A55401        MOV     BYTE PTR [54A5],01
0736:3AE5 813ECA54EC33      CMP     WORD PTR [54CA],33EC
0736:3AEB 750A              JNZ     3AF7
0736:3AED B44D              MOV     AH,4D
0736:3AEF CD21              INT     21
0736:3AF1 BF0B34            MOV     DI,340B
0736:3AF4 E8A00E            CALL    4997
0736:3AF7 C3                RET
0736:3AF8 BF8054            MOV     DI,5480
0736:3AFB 1E                PUSH    DS
0736:3AFC 07                POP     ES
0736:3AFD 33F6              XOR     SI,SI
0736:3AFF 8EDE              MOV     DS,SI
0736:3B01 BE8C00            MOV     SI,008C
0736:3B04 56                PUSH    SI
0736:3B05 A5                MOVSW
0736:3B06 A5                MOVSW
0736:3B07 A5                MOVSW
0736:3B08 A5                MOVSW
0736:3B09 5F                POP     DI
0736:3B0A 06                PUSH    ES
0736:3B0B 1F                POP     DS
0736:3B0C 33F6              XOR     SI,SI
0736:3B0E 8EC6              MOV     ES,SI
0736:3B10 BE0E00            MOV     SI,000E
0736:3B13 A5                MOVSW
0736:3B14 A5                MOVSW
0736:3B15 A5                MOVSW
0736:3B16 A5                MOVSW
0736:3B17 C3                RET
0736:3B18 803EA05400        CMP     BYTE PTR [54A0],00
0736:3B1D 7509              JNZ     3B28
0736:3B1F 57                PUSH    DI
0736:3B20 BF8854            MOV     DI,5488
0736:3B23 E80D00            CALL    3B33
0736:3B26 5F                POP     DI
0736:3B27 C3                RET
0736:3B28 50                PUSH    AX
0736:3B29 52                PUSH    DX
0736:3B2A BA6D4C            MOV     DX,4C6D
0736:3B2D E824FC            CALL    3754
0736:3B30 5A                POP     DX
0736:3B31 58                POP     AX
0736:3B32 C3                RET
0736:3B33 1E                PUSH    DS
0736:3B34 56                PUSH    SI
0736:3B35 33F6              XOR     SI,SI
0736:3B37 8EDE              MOV     DS,SI
0736:3B39 BE8C00            MOV     SI,008C
0736:3B3C A5                MOVSW
0736:3B3D A5                MOVSW
0736:3B3E A5                MOVSW
0736:3B3F A5                MOVSW
0736:3B40 5E                POP     SI
0736:3B41 1F                POP     DS
0736:3B42 C3                RET
0736:3B43 56                PUSH    SI
0736:3B44 C606A05401        MOV     BYTE PTR [54A0],01
0736:3B49 BE8054            MOV     SI,5480
0736:3B4C EB09              JMP     3B57
0736:3B4E C606A05400        MOV     BYTE PTR [54A0],00
0736:3B53 56                PUSH    SI
0736:3B54 BE8854            MOV     SI,5488
0736:3B57 57                PUSH    DI
0736:3B58 33FF              XOR     DI,DI
0736:3B5A 8EC7              MOV     ES,DI
0736:3B5C BF8C00            MOV     DI,008C
0736:3B5F A5                MOVSW
0736:3B60 A5                MOVSW
0736:3B61 A5                MOVSW
0736:3B62 A5                MOVSW
0736:3B63 5F                POP     DI
0736:3B64 5E                POP     SI
0736:3B65 0E                PUSH    CS
0736:3B66 07                POP     ES
0736:3B67 C3                RET
0736:3B68 1E                PUSH    DS
0736:3B69 56                PUSH    SI
0736:3B6A C5369854          LDS     SI,[5498]
0736:3B6E 803C00            CMP     BYTE PTR [SI],00
0736:3B71 5E                POP     SI
0736:3B72 1F                POP     DS
0736:3B73 C3                RET
0736:3B74 53                PUSH    BX
0736:3B75 51                PUSH    CX
0736:3B76 52                PUSH    DX
0736:3B77 50                PUSH    AX
0736:3B78 B90100            MOV     CX,0001
0736:3B7B 8BD4              MOV     DX,SP
0736:3B7D E8580E            CALL    49D8
0736:3B80 58                POP     AX
0736:3B81 5A                POP     DX
0736:3B82 59                POP     CX
0736:3B83 5B                POP     BX
0736:3B84 C3                RET
0736:3B85 B008              MOV     AL,08
0736:3B87 E8EAFF            CALL    3B74
0736:3B8A B020              MOV     AL,20
0736:3B8C E8E5FF            CALL    3B74
0736:3B8F B008              MOV     AL,08
0736:3B91 EBE1              JMP     3B74
0736:3B93 B82020            MOV     AX,2020
0736:3B96 AB                STOSW
0736:3B97 B03A              MOV     AL,3A
0736:3B99 AA                STOSB
0736:3B9A BA6856            MOV     DX,5668
0736:3B9D 8BCF              MOV     CX,DI
0736:3B9F 2BCA              SUB     CX,DX
0736:3BA1 890EAC54          MOV     [54AC],CX
0736:3BA5 E89B00            CALL    3C43
0736:3BA8 9C                PUSHF
0736:3BA9 E82C0E            CALL    49D8
0736:3BAC 9D                POPF
0736:3BAD 723F              JB      3BEE
0736:3BAF C706CC545D01      MOV     WORD PTR [54CC],015D
0736:3BB5 8B0EB054          MOV     CX,[54B0]
0736:3BB9 2BCE              SUB     CX,SI
0736:3BBB 740C              JZ      3BC9
0736:3BBD AC                LODSB
0736:3BBE 3C0D              CMP     AL,0D
0736:3BC0 7416              JZ      3BD8
0736:3BC2 3C0A              CMP     AL,0A
0736:3BC4 7412              JZ      3BD8
0736:3BC6 AA                STOSB
0736:3BC7 E2F4              LOOPW   3BBD
0736:3BC9 E8A400            CALL    3C70
0736:3BCC 73E7              JAE     3BB5
0736:3BCE B00A              MOV     AL,0A
0736:3BD0 81FF6756          CMP     DI,5667
0736:3BD4 7202              JB      3BD8
0736:3BD6 4E                DEC     SI
0736:3BD7 4F                DEC     DI
0736:3BD8 8936AE54          MOV     [54AE],SI
0736:3BDC A2A754            MOV     [54A7],AL
0736:3BDF B00D              MOV     AL,0D
0736:3BE1 AA                STOSB
0736:3BE2 8BCF              MOV     CX,DI
0736:3BE4 BA6855            MOV     DX,5568
0736:3BE7 2BCA              SUB     CX,DX
0736:3BE9 E8EC0D            CALL    49D8
0736:3BEC EB0D              JMP     3BFB
0736:3BEE BA6655            MOV     DX,5566
0736:3BF1 E874FF            CALL    3B68
0736:3BF4 7511              JNZ     3C07
0736:3BF6 B40A              MOV     AH,0A
0736:3BF8 E84FF1            CALL    2D4A
0736:3BFB B00A              MOV     AL,0A
0736:3BFD E874FF            CALL    3B74
0736:3C00 BE6855            MOV     SI,5568
0736:3C03 E8FC02            CALL    3F02
0736:3C06 C3                RET
0736:3C07 57                PUSH    DI
0736:3C08 1E                PUSH    DS
0736:3C09 07                POP     ES
0736:3C0A 42                INC     DX
0736:3C0B 42                INC     DX
0736:3C0C 8BFA              MOV     DI,DX
0736:3C0E B400              MOV     AH,00
0736:3C10 CD16              INT     16
0736:3C12 3C00              CMP     AL,00
0736:3C14 74F8              JZ      3C0E
0736:3C16 3CE0              CMP     AL,E0
0736:3C18 74F4              JZ      3C0E
0736:3C1A 3C08              CMP     AL,08
0736:3C1C 741B              JZ      3C39
0736:3C1E 3C7F              CMP     AL,7F
0736:3C20 7417              JZ      3C39
0736:3C22 AA                STOSB
0736:3C23 E84EFF            CALL    3B74
0736:3C26 3C0D              CMP     AL,0D
0736:3C28 75E4              JNZ     3C0E
0736:3C2A 4F                DEC     DI
0736:3C2B 2BFA              SUB     DI,DX
0736:3C2D 8BC7              MOV     AX,DI
0736:3C2F 8BFA              MOV     DI,DX
0736:3C31 8845FF            MOV     [DI-01],AL
0736:3C34 4A                DEC     DX
0736:3C35 4A                DEC     DX
0736:3C36 5F                POP     DI
0736:3C37 EBC2              JMP     3BFB
0736:3C39 3BFA              CMP     DI,DX
0736:3C3B 74D1              JZ      3C0E
0736:3C3D 4F                DEC     DI
0736:3C3E E844FF            CALL    3B85
0736:3C41 EBCB              JMP     3C0E
0736:3C43 803EA75400        CMP     BYTE PTR [54A7],00
0736:3C48 7502              JNZ     3C4C
0736:3C4A F9                STC
0736:3C4B C3                RET
0736:3C4C BF6855            MOV     DI,5568
0736:3C4F 8B36AE54          MOV     SI,[54AE]
0736:3C53 3B36B054          CMP     SI,[54B0]
0736:3C57 7205              JB      3C5E
0736:3C59 E81400            CALL    3C70
0736:3C5C 720F              JB      3C6D
0736:3C5E 803EA7540D        CMP     BYTE PTR [54A7],0D
0736:3C63 7506              JNZ     3C6B
0736:3C65 803C0A            CMP     BYTE PTR [SI],0A
0736:3C68 7501              JNZ     3C6B
0736:3C6A 46                INC     SI
0736:3C6B F8                CLC
0736:3C6C C3                RET
0736:3C6D E902F6            JMP     3272
0736:3C70 50                PUSH    AX
0736:3C71 53                PUSH    BX
0736:3C72 51                PUSH    CX
0736:3C73 52                PUSH    DX
0736:3C74 8BF7              MOV     SI,DI
0736:3C76 B43F              MOV     AH,3F
0736:3C78 33DB              XOR     BX,BX
0736:3C7A B96756            MOV     CX,5667
0736:3C7D 8BD7              MOV     DX,DI
0736:3C7F 2BCA              SUB     CX,DX
0736:3C81 740E              JZ      3C91
0736:3C83 E8C4F0            CALL    2D4A
0736:3C86 7209              JB      3C91
0736:3C88 0BC0              OR      AX,AX
0736:3C8A 7405              JZ      3C91
0736:3C8C 03C2              ADD     AX,DX
0736:3C8E F8                CLC
0736:3C8F EB02              JMP     3C93
0736:3C91 92                XCHG    AX,DX
0736:3C92 F9                STC
0736:3C93 A3B054            MOV     [54B0],AX
0736:3C96 5A                POP     DX
0736:3C97 59                POP     CX
0736:3C98 5B                POP     BX
0736:3C99 58                POP     AX
0736:3C9A C3                RET
0736:3C9B E87AFE            CALL    3B18
0736:3C9E 8B1E2455          MOV     BX,[5524]
0736:3CA2 33C9              XOR     CX,CX
0736:3CA4 E8FE00            CALL    3DA5
0736:3CA7 53                PUSH    BX
0736:3CA8 2BCA              SUB     CX,DX
0736:3CAA 52                PUSH    DX
0736:3CAB 51                PUSH    CX
0736:3CAC E83202            CALL    3EE1
0736:3CAF 8B1E2455          MOV     BX,[5524]
0736:3CB3 E82C01            CALL    3DE2
0736:3CB6 59                POP     CX
0736:3CB7 8BF9              MOV     DI,CX
0736:3CB9 03FA              ADD     DI,DX
0736:3CBB 720A              JB      3CC7
0736:3CBD E81502            CALL    3ED5
0736:3CC0 8BFA              MOV     DI,DX
0736:3CC2 8EC3              MOV     ES,BX
0736:3CC4 5E                POP     SI
0736:3CC5 1F                POP     DS
0736:3CC6 C3                RET
0736:3CC7 E9B6FC            JMP     3980
0736:3CCA 8B1E2A55          MOV     BX,[552A]
0736:3CCE BA0001            MOV     DX,0100
0736:3CD1 3C0D              CMP     AL,0D
0736:3CD3 744E              JZ      3D23
0736:3CD5 E80A01            CALL    3DE2
0736:3CD8 E80602            CALL    3EE1
0736:3CDB 3C0D              CMP     AL,0D
0736:3CDD 7444              JZ      3D23
0736:3CDF 53                PUSH    BX
0736:3CE0 52                PUSH    DX
0736:3CE1 BB8000            MOV     BX,0080
0736:3CE4 F7DA              NEG     DX
0736:3CE6 7406              JZ      3CEE
0736:3CE8 B109              MOV     CL,09
0736:3CEA D3EA              SHR     DX,CL
0736:3CEC 8BFA              MOV     DI,DX
0736:3CEE E8C201            CALL    3EB3
0736:3CF1 E8ED01            CALL    3EE1
0736:3CF4 52                PUSH    DX
0736:3CF5 8816AB54          MOV     [54AB],DL
0736:3CF9 E88101            CALL    3E7D
0736:3CFC E8E201            CALL    3EE1
0736:3CFF 53                PUSH    BX
0736:3D00 52                PUSH    DX
0736:3D01 56                PUSH    SI
0736:3D02 E8A401            CALL    3EA9
0736:3D05 4A                DEC     DX
0736:3D06 3BD7              CMP     DX,DI
0736:3D08 73BD              JAE     3CC7
0736:3D0A 42                INC     DX
0736:3D0B 8BCA              MOV     CX,DX
0736:3D0D E8C501            CALL    3ED5
0736:3D10 803ED15400        CMP     BYTE PTR [54D1],00
0736:3D15 750D              JNZ     3D24
0736:3D17 5E                POP     SI
0736:3D18 5A                POP     DX
0736:3D19 5B                POP     BX
0736:3D1A 0BDB              OR      BX,BX
0736:3D1C 75A9              JNZ     3CC7
0736:3D1E 58                POP     AX
0736:3D1F 5B                POP     BX
0736:3D20 1F                POP     DS
0736:3D21 0BC9              OR      CX,CX
0736:3D23 C3                RET
0736:3D24 5B                POP     BX
0736:3D25 BBD254            MOV     BX,54D2
0736:3D28 8F07              POP     WORD PTR [BX]
0736:3D2A 8F4702            POP     WORD PTR [BX+02]
0736:3D2D 894F04            MOV     [BX+04],CX
0736:3D30 58                POP     AX
0736:3D31 8F4706            POP     WORD PTR [BX+06]
0736:3D34 5A                POP     DX
0736:3D35 33C9              XOR     CX,CX
0736:3D37 895708            MOV     [BX+08],DX
0736:3D3A 49                DEC     CX
0736:3D3B C3                RET
0736:3D3C E81500            CALL    3D54
0736:3D3F E89F01            CALL    3EE1
0736:3D42 B90100            MOV     CX,0001
0736:3D45 3C0D              CMP     AL,0D
0736:3D47 740A              JZ      3D53
0736:3D49 E85D01            CALL    3EA9
0736:3D4C E88601            CALL    3ED5
0736:3D4F 8BCA              MOV     CX,DX
0736:3D51 E33E              JCXZ    3D91
0736:3D53 C3                RET
0736:3D54 C606CE5400        MOV     BYTE PTR [54CE],00
0736:3D59 3C3D              CMP     AL,3D
0736:3D5B 7516              JNZ     3D73
0736:3D5D E8A201            CALL    3F02
0736:3D60 8B1E2A55          MOV     BX,[552A]
0736:3D64 E87B00            CALL    3DE2
0736:3D67 8916C454          MOV     [54C4],DX
0736:3D6B 891EC854          MOV     [54C8],BX
0736:3D6F FE06CE54          INC     BYTE PTR [54CE]
0736:3D73 C3                RET
0736:3D74 803ECE5400        CMP     BYTE PTR [54CE],00
0736:3D79 7411              JZ      3D8C
0736:3D7B A1C454            MOV     AX,[54C4]
0736:3D7E A33455            MOV     [5534],AX
0736:3D81 A1C854            MOV     AX,[54C8]
0736:3D84 A32A55            MOV     [552A],AX
0736:3D87 C606CE5400        MOV     BYTE PTR [54CE],00
0736:3D8C C3                RET
0736:3D8D E81901            CALL    3EA9
0736:3D90 C3                RET
0736:3D91 E9ECFB            JMP     3980
0736:3D94 52                PUSH    DX
0736:3D95 E81101            CALL    3EA9
0736:3D98 8BCA              MOV     CX,DX
0736:3D9A 5A                POP     DX
0736:3D9B 49                DEC     CX
0736:3D9C 03CA              ADD     CX,DX
0736:3D9E C3                RET
0736:3D9F 51                PUSH    CX
0736:3DA0 E83F00            CALL    3DE2
0736:3DA3 EB04              JMP     3DA9
0736:3DA5 51                PUSH    CX
0736:3DA6 E83900            CALL    3DE2
0736:3DA9 56                PUSH    SI
0736:3DAA E83401            CALL    3EE1
0736:3DAD 3C20              CMP     AL,20
0736:3DAF 770F              JA      3DC0
0736:3DB1 5E                POP     SI
0736:3DB2 59                POP     CX
0736:3DB3 E3DC              JCXZ    3D91
0736:3DB5 49                DEC     CX
0736:3DB6 03CA              ADD     CX,DX
0736:3DB8 7303              JAE     3DBD
0736:3DBA B9FFFF            MOV     CX,FFFF
0736:3DBD 4E                DEC     SI
0736:3DBE AC                LODSB
0736:3DBF C3                RET
0736:3DC0 0C20              OR      AL,20
0736:3DC2 3C6C              CMP     AL,6C
0736:3DC4 740D              JZ      3DD3
0736:3DC6 52                PUSH    DX
0736:3DC7 E8DF00            CALL    3EA9
0736:3DCA 8BCA              MOV     CX,DX
0736:3DCC 5A                POP     DX
0736:3DCD 3BD1              CMP     DX,CX
0736:3DCF 770E              JA      3DDF
0736:3DD1 EB08              JMP     3DDB
0736:3DD3 E80A01            CALL    3EE0
0736:3DD6 E8BBFF            CALL    3D94
0736:3DD9 7204              JB      3DDF
0736:3DDB 83C404            ADD     SP,+04
0736:3DDE C3                RET
0736:3DDF E99EFB            JMP     3980
0736:3DE2 E8A8FF            CALL    3D8D
0736:3DE5 56                PUSH    SI
0736:3DE6 E81A01            CALL    3F03
0736:3DE9 3C3A              CMP     AL,3A
0736:3DEB 7404              JZ      3DF1
0736:3DED 5E                POP     SI
0736:3DEE 4E                DEC     SI
0736:3DEF AC                LODSB
0736:3DF0 C3                RET
0736:3DF1 58                POP     AX
0736:3DF2 8BDA              MOV     BX,DX
0736:3DF4 E80B01            CALL    3F02
0736:3DF7 E893FF            CALL    3D8D
0736:3DFA C3                RET
0736:3DFB BF6856            MOV     DI,5668
0736:3DFE 3C0D              CMP     AL,0D
0736:3E00 74DD              JZ      3DDF
0736:3E02 3C27              CMP     AL,27
0736:3E04 740C              JZ      3E12
0736:3E06 3C22              CMP     AL,22
0736:3E08 7408              JZ      3E12
0736:3E0A E8A600            CALL    3EB3
0736:3E0D 8815              MOV     [DI],DL
0736:3E0F 47                INC     DI
0736:3E10 EB13              JMP     3E25
0736:3E12 8AE0              MOV     AH,AL
0736:3E14 AC                LODSB
0736:3E15 3AC4              CMP     AL,AH
0736:3E17 7407              JZ      3E20
0736:3E19 3C0D              CMP     AL,0D
0736:3E1B 74C2              JZ      3DDF
0736:3E1D AA                STOSB
0736:3E1E EBF4              JMP     3E14
0736:3E20 AC                LODSB
0736:3E21 3AC4              CMP     AL,AH
0736:3E23 74F8              JZ      3E1D
0736:3E25 E8B900            CALL    3EE1
0736:3E28 3C0D              CMP     AL,0D
0736:3E2A 75D6              JNZ     3E02
0736:3E2C C3                RET
0736:3E2D 50                PUSH    AX
0736:3E2E 57                PUSH    DI
0736:3E2F 51                PUSH    CX
0736:3E30 BF282E            MOV     DI,2E28
0736:3E33 B91000            MOV     CX,0010
0736:3E36 8A24              MOV     AH,[SI]
0736:3E38 25DFDF            AND     AX,DFDF
0736:3E3B 807C0141          CMP     BYTE PTR [SI+01],41
0736:3E3F 7311              JAE     3E52
0736:3E41 F2AF              REPNE   SCASW
0736:3E43 7533              JNZ     3E78
0736:3E45 33DB              XOR     BX,BX
0736:3E47 8B7D1E            MOV     DI,[DI+1E]
0736:3E4A 8B15              MOV     DX,[DI]
0736:3E4C 46                INC     SI
0736:3E4D F8                CLC
0736:3E4E 59                POP     CX
0736:3E4F 5F                POP     DI
0736:3E50 58                POP     AX
0736:3E51 C3                RET
0736:3E52 3C45              CMP     AL,45
0736:3E54 7522              JNZ     3E78
0736:3E56 8A4401            MOV     AL,[SI+01]
0736:3E59 86C4              XCHG    AL,AH
0736:3E5B 25DFDF            AND     AX,DFDF
0736:3E5E 3D4950            CMP     AX,5049
0736:3E61 7505              JNZ     3E68
0736:3E63 BF3455            MOV     DI,5534
0736:3E66 EB0A              JMP     3E72
0736:3E68 B90800            MOV     CX,0008
0736:3E6B F2AF              REPNE   SCASW
0736:3E6D 7509              JNZ     3E78
0736:3E6F 8B7D1E            MOV     DI,[DI+1E]
0736:3E72 8B5D02            MOV     BX,[DI+02]
0736:3E75 46                INC     SI
0736:3E76 EBD2              JMP     3E4A
0736:3E78 59                POP     CX
0736:3E79 5F                POP     DI
0736:3E7A 58                POP     AX
0736:3E7B F9                STC
0736:3E7C C3                RET
0736:3E7D E8ADFF            CALL    3E2D
0736:3E80 7202              JB      3E84
0736:3E82 AC                LODSB
0736:3E83 C3                RET
0736:3E84 E83400            CALL    3EBB
0736:3E87 721D              JB      3EA6
0736:3E89 98                CBW
0736:3E8A 92                XCHG    AX,DX
0736:3E8B 33DB              XOR     BX,BX
0736:3E8D AC                LODSB
0736:3E8E E82A00            CALL    3EBB
0736:3E91 7212              JB      3EA5
0736:3E93 F6C7F0            TEST    BH,F0
0736:3E96 750E              JNZ     3EA6
0736:3E98 B90400            MOV     CX,0004
0736:3E9B D1E2              SHL     DX,1
0736:3E9D D1D3              RCL     BX,1
0736:3E9F E2FA              LOOPW   3E9B
0736:3EA1 0AD0              OR      DL,AL
0736:3EA3 EBE8              JMP     3E8D
0736:3EA5 C3                RET
0736:3EA6 E9D7FA            JMP     3980
0736:3EA9 53                PUSH    BX
0736:3EAA E8D0FF            CALL    3E7D
0736:3EAD 23DB              AND     BX,BX
0736:3EAF 5B                POP     BX
0736:3EB0 75F4              JNZ     3EA6
0736:3EB2 C3                RET
0736:3EB3 E8F3FF            CALL    3EA9
0736:3EB6 22F6              AND     DH,DH
0736:3EB8 75EC              JNZ     3EA6
0736:3EBA C3                RET
0736:3EBB 50                PUSH    AX
0736:3EBC 2C30              SUB     AL,30
0736:3EBE 3C09              CMP     AL,09
0736:3EC0 760C              JBE     3ECE
0736:3EC2 58                POP     AX
0736:3EC3 50                PUSH    AX
0736:3EC4 0C20              OR      AL,20
0736:3EC6 2C61              SUB     AL,61
0736:3EC8 3C05              CMP     AL,05
0736:3ECA 7706              JA      3ED2
0736:3ECC 040A              ADD     AL,0A
0736:3ECE 44                INC     SP
0736:3ECF 44                INC     SP
0736:3ED0 F8                CLC
0736:3ED1 C3                RET
0736:3ED2 58                POP     AX
0736:3ED3 F9                STC
0736:3ED4 C3                RET
0736:3ED5 E82B00            CALL    3F03
0736:3ED8 3C0D              CMP     AL,0D
0736:3EDA 7501              JNZ     3EDD
0736:3EDC C3                RET
0736:3EDD E9A0FA            JMP     3980
0736:3EE0 AC                LODSB
0736:3EE1 E81F00            CALL    3F03
0736:3EE4 3C2C              CMP     AL,2C
0736:3EE6 750F              JNZ     3EF7
0736:3EE8 56                PUSH    SI
0736:3EE9 E81600            CALL    3F02
0736:3EEC 3C0D              CMP     AL,0D
0736:3EEE 7504              JNZ     3EF4
0736:3EF0 5E                POP     SI
0736:3EF1 B02C              MOV     AL,2C
0736:3EF3 C3                RET
0736:3EF4 83C402            ADD     SP,+02
0736:3EF7 C3                RET
0736:3EF8 AC                LODSB
0736:3EF9 24DF              AND     AL,DF
0736:3EFB 2C41              SUB     AL,41
0736:3EFD 3C19              CMP     AL,19
0736:3EFF 76F7              JBE     3EF8
0736:3F01 4E                DEC     SI
0736:3F02 AC                LODSB
0736:3F03 3C20              CMP     AL,20
0736:3F05 74FB              JZ      3F02
0736:3F07 3C09              CMP     AL,09
0736:3F09 74F7              JZ      3F02
0736:3F0B C3                RET
0736:3F0C 3C20              CMP     AL,20
0736:3F0E 740E              JZ      3F1E
0736:3F10 3C09              CMP     AL,09
0736:3F12 740A              JZ      3F1E
0736:3F14 3C2C              CMP     AL,2C
0736:3F16 7406              JZ      3F1E
0736:3F18 3C3B              CMP     AL,3B
0736:3F1A 7402              JZ      3F1E
0736:3F1C 3C3D              CMP     AL,3D
0736:3F1E C3                RET
0736:3F1F C606625500        MOV     BYTE PTR [5562],00
0736:3F24 89266055          MOV     [5560],SP
0736:3F28 33C0              XOR     AX,AX
0736:3F2A A35355            MOV     [5553],AX
0736:3F2D A35755            MOV     [5557],AX
0736:3F30 C6065B5503        MOV     BYTE PTR [555B],03
0736:3F35 C6065A5580        MOV     BYTE PTR [555A],80
0736:3F3A C7064D550000      MOV     WORD PTR [554D],0000
0736:3F40 E8D607            CALL    4719
0736:3F43 3C9B              CMP     AL,9B
0736:3F45 7508              JNZ     3F4F
0736:3F47 800E575540        OR      BYTE PTR [5557],40
0736:3F4C E8CA07            CALL    4719
0736:3F4F A25955            MOV     [5559],AL
0736:3F52 B400              MOV     AH,00
0736:3F54 8BD8              MOV     BX,AX
0736:3F56 A35C55            MOV     [555C],AX
0736:3F59 3DE001            CMP     AX,01E0
0736:3F5C 720A              JB      3F68
0736:3F5E 8A9F2A47          MOV     BL,[BX+472A]
0736:3F62 B700              MOV     BH,00
0736:3F64 81C3E001          ADD     BX,01E0
0736:3F68 8A8FE741          MOV     CL,[BX+41E7]
0736:3F6C B500              MOV     CH,00
0736:3F6E D1E3              SHL     BX,1
0736:3F70 8B9F4844          MOV     BX,[BX+4448]
0736:3F74 8BF1              MOV     SI,CX
0736:3F76 8BC3              MOV     AX,BX
0736:3F78 B10C              MOV     CL,0C
0736:3F7A D3E8              SHR     AX,CL
0736:3F7C 3A064D55          CMP     AL,[554D]
0736:3F80 7203              JB      3F85
0736:3F82 A24D55            MOV     [554D],AL
0736:3F85 80E70F            AND     BH,0F
0736:3F88 83FE0C            CMP     SI,+0C
0736:3F8B 7364              JAE     3FF1
0736:3F8D FF94424D          CALL    WORD PTR [SI+4D42]
0736:3F91 EBC1              JMP     3F54
0736:3F93 E88307            CALL    4719
0736:3F96 A25955            MOV     [5559],AL
0736:3F99 B400              MOV     AH,00
0736:3F9B 05E001            ADD     AX,01E0
0736:3F9E C3                RET
0736:3F9F E8AA06            CALL    464C
0736:3FA2 98                CBW
0736:3FA3 03C3              ADD     AX,BX
0736:3FA5 C3                RET
0736:3FA6 800E625510        OR      BYTE PTR [5562],10
0736:3FAB 800E4E5501        OR      BYTE PTR [554E],01
0736:3FB0 E8A306            CALL    4656
0736:3FB3 3CC0              CMP     AL,C0
0736:3FB5 72E8              JB      3F9F
0736:3FB7 B103              MOV     CL,03
0736:3FB9 D2E8              SHR     AL,CL
0736:3FBB 2C10              SUB     AL,10
0736:3FBD 98                CBW
0736:3FBE 03C3              ADD     AX,BX
0736:3FC0 C3                RET
0736:3FC1 A04755            MOV     AL,[5547]
0736:3FC4 2407              AND     AL,07
0736:3FC6 98                CBW
0736:3FC7 03C3              ADD     AX,BX
0736:3FC9 C3                RET
0736:3FCA 8AC3              MOV     AL,BL
0736:3FCC 80E3CF            AND     BL,CF
0736:3FCF 841E5755          TEST    [5557],BL
0736:3FD3 7519              JNZ     3FEE
0736:3FD5 081E5755          OR      [5557],BL
0736:3FD9 8AD8              MOV     BL,AL
0736:3FDB 2430              AND     AL,30
0736:3FDD 30065755          XOR     [5557],AL
0736:3FE1 F6C301            TEST    BL,01
0736:3FE4 7404              JZ      3FEA
0736:3FE6 883E5B55          MOV     [555B],BH
0736:3FEA 58                POP     AX
0736:3FEB E95EFF            JMP     3F4C
0736:3FEE E9FE05            JMP     45EF
0736:3FF1 56                PUSH    SI
0736:3FF2 8DB75238          LEA     SI,[BX+3852]
0736:3FF6 81FE8E38          CMP     SI,388E
0736:3FFA 7505              JNZ     4001
0736:3FFC E89606            CALL    4695
0736:3FFF 74ED              JZ      3FEE
0736:4001 E8C806            CALL    46CC
0736:4004 C70664550000      MOV     WORD PTR [5564],0000
0736:400A 5E                POP     SI
0736:400B 81C65C37          ADD     SI,375C
0736:400F 803C00            CMP     BYTE PTR [SI],00
0736:4012 7463              JZ      4077
0736:4014 C606635500        MOV     BYTE PTR [5563],00
0736:4019 AC                LODSB
0736:401A 3C40              CMP     AL,40
0736:401C 7237              JB      4055
0736:401E C606635520        MOV     BYTE PTR [5563],20
0736:4023 3C60              CMP     AL,60
0736:4025 731B              JAE     4042
0736:4027 3C50              CMP     AL,50
0736:4029 7309              JAE     4034
0736:402B B4FF              MOV     AH,FF
0736:402D F606595501        TEST    BYTE PTR [5559],01
0736:4032 7416              JZ      404A
0736:4034 800E585510        OR      BYTE PTR [5558],10
0736:4039 8A265755          MOV     AH,[5557]
0736:403D 80E410            AND     AH,10
0736:4040 EB08              JMP     404A
0736:4042 8AE0              MOV     AH,AL
0736:4044 80E4F0            AND     AH,F0
0736:4047 80EC70            SUB     AH,70
0736:404A 8AD8              MOV     BL,AL
0736:404C 83E30E            AND     BX,+0E
0736:404F FF97F64C          CALL    WORD PTR [BX+4CF6]
0736:4053 EB18              JMP     406D
0736:4055 98                CBW
0736:4056 93                XCHG    AX,BX
0736:4057 80FB28            CMP     BL,28
0736:405A 720D              JB      4069
0736:405C 8B87044D          MOV     AX,[BX+4D04]
0736:4060 AB                STOSW
0736:4061 80FC00            CMP     AH,00
0736:4064 7507              JNZ     406D
0736:4066 4F                DEC     DI
0736:4067 EB04              JMP     406D
0736:4069 FF97044D          CALL    WORD PTR [BX+4D04]
0736:406D 803C00            CMP     BYTE PTR [SI],00
0736:4070 7405              JZ      4077
0736:4072 B02C              MOV     AL,2C
0736:4074 AA                STOSB
0736:4075 EB9D              JMP     4014
0736:4077 A05855            MOV     AL,[5558]
0736:407A F6D0              NOT     AL
0736:407C 22065755          AND     AL,[5557]
0736:4080 7503              JNZ     4085
0736:4082 E9ED00            JMP     4172
0736:4085 B90B00            MOV     CX,000B
0736:4088 BB624A            MOV     BX,4A62
0736:408B BA1400            MOV     DX,0014
0736:408E B440              MOV     AH,40
0736:4090 84C4              TEST    AH,AL
0736:4092 7520              JNZ     40B4
0736:4094 B91400            MOV     CX,0014
0736:4097 BB8E4A            MOV     BX,4A8E
0736:409A BA2600            MOV     DX,0026
0736:409D B410              MOV     AH,10
0736:409F 84C4              TEST    AH,AL
0736:40A1 7511              JNZ     40B4
0736:40A3 B90600            MOV     CX,0006
0736:40A6 BBDE4A            MOV     BX,4ADE
0736:40A9 BA0A00            MOV     DX,000A
0736:40AC B420              MOV     AH,20
0736:40AE 84C4              TEST    AH,AL
0736:40B0 7502              JNZ     40B4
0736:40B2 EB21              JMP     40D5
0736:40B4 08265855          OR      [5558],AH
0736:40B8 57                PUSH    DI
0736:40B9 8BFB              MOV     DI,BX
0736:40BB 8ADC              MOV     BL,AH
0736:40BD A15C55            MOV     AX,[555C]
0736:40C0 F2AF              REPNE   SCASW
0736:40C2 750E              JNZ     40D2
0736:40C4 03FA              ADD     DI,DX
0736:40C6 8B35              MOV     SI,[DI]
0736:40C8 81C65238          ADD     SI,3852
0736:40CC E8FD05            CALL    46CC
0736:40CF 5F                POP     DI
0736:40D0 EBA5              JMP     4077
0736:40D2 E91A05            JMP     45EF
0736:40D5 A801              TEST    AL,01
0736:40D7 742D              JZ      4106
0736:40D9 A15C55            MOV     AX,[555C]
0736:40DC 80FC00            CMP     AH,00
0736:40DF 75F1              JNZ     40D2
0736:40E1 57                PUSH    DI
0736:40E2 B90900            MOV     CX,0009
0736:40E5 BF5837            MOV     DI,3758
0736:40E8 F2AE              REPNE   SCASB
0736:40EA 5F                POP     DI
0736:40EB 75E5              JNZ     40D2
0736:40ED B90300            MOV     CX,0003
0736:40F0 E86B06            CALL    475E
0736:40F3 57                PUSH    DI
0736:40F4 BF8456            MOV     DI,5684
0736:40F7 E87205            CALL    466C
0736:40FA B03A              MOV     AL,3A
0736:40FC AA                STOSB
0736:40FD 5F                POP     DI
0736:40FE 800E585501        OR      BYTE PTR [5558],01
0736:4103 E971FF            JMP     4077
0736:4106 A802              TEST    AL,02
0736:4108 7436              JZ      4140
0736:410A 2406              AND     AL,06
0736:410C 08065855          OR      [5558],AL
0736:4110 A15C55            MOV     AX,[555C]
0736:4113 80FC00            CMP     AH,00
0736:4116 75BA              JNZ     40D2
0736:4118 24FE              AND     AL,FE
0736:411A 57                PUSH    DI
0736:411B BF6137            MOV     DI,3761
0736:411E B90500            MOV     CX,0005
0736:4121 F2AE              REPNE   SCASB
0736:4123 BE0C40            MOV     SI,400C
0736:4126 7439              JZ      4161
0736:4128 B102              MOV     CL,02
0736:412A F2AE              REPNE   SCASB
0736:412C 75A4              JNZ     40D2
0736:412E BE1140            MOV     SI,4011
0736:4131 F606585504        TEST    BYTE PTR [5558],04
0736:4136 7529              JNZ     4161
0736:4138 BE1740            MOV     SI,4017
0736:413B EB24              JMP     4161
0736:413D E9AF04            JMP     45EF
0736:4140 A808              TEST    AL,08
0736:4142 74F9              JZ      413D
0736:4144 57                PUSH    DI
0736:4145 A15C55            MOV     AX,[555C]
0736:4148 BFF64A            MOV     DI,4AF6
0736:414B B92E00            MOV     CX,002E
0736:414E F2AF              REPNE   SCASW
0736:4150 75EB              JNZ     413D
0736:4152 F606585501        TEST    BYTE PTR [5558],01
0736:4157 74E4              JZ      413D
0736:4159 BEB43E            MOV     SI,3EB4
0736:415C 800E585508        OR      BYTE PTR [5558],08
0736:4161 5F                POP     DI
0736:4162 B90800            MOV     CX,0008
0736:4165 56                PUSH    SI
0736:4166 E8F505            CALL    475E
0736:4169 5E                POP     SI
0736:416A 57                PUSH    DI
0736:416B E85E05            CALL    46CC
0736:416E 5F                POP     DI
0736:416F E905FF            JMP     4077
0736:4172 8B0E6455          MOV     CX,[5564]
0736:4176 83F900            CMP     CX,+00
0736:4179 741D              JZ      4198
0736:417B A06255            MOV     AL,[5562]
0736:417E A810              TEST    AL,10
0736:4180 7516              JNZ     4198
0736:4182 A820              TEST    AL,20
0736:4184 7412              JZ      4198
0736:4186 87CF              XCHG    CX,DI
0736:4188 8BF7              MOV     SI,DI
0736:418A B020              MOV     AL,20
0736:418C AE                SCASB
0736:418D 75FD              JNZ     418C
0736:418F 83C704            ADD     DI,+04
0736:4192 87F7              XCHG    SI,DI
0736:4194 2BCE              SUB     CX,SI
0736:4196 F3A4              REP     MOVSB
0736:4198 57                PUSH    DI
0736:4199 BF6856            MOV     DI,5668
0736:419C A1C254            MOV     AX,[54C2]
0736:419F E8F507            CALL    4997
0736:41A2 B03A              MOV     AL,3A
0736:41A4 AA                STOSB
0736:41A5 A1BE54            MOV     AX,[54BE]
0736:41A8 E8EC07            CALL    4997
0736:41AB B020              MOV     AL,20
0736:41AD AA                STOSB
0736:41AE 8B1E5355          MOV     BX,[5553]
0736:41B2 BE8356            MOV     SI,5683
0736:41B5 2BF7              SUB     SI,DI
0736:41B7 D1EE              SHR     SI,1
0736:41B9 3BDE              CMP     BX,SI
0736:41BB 7E19              JLE     41D6
0736:41BD 2BDE              SUB     BX,SI
0736:41BF 53                PUSH    BX
0736:41C0 8BDE              MOV     BX,SI
0736:41C2 57                PUSH    DI
0736:41C3 E88205            CALL    4748
0736:41C6 E80408            CALL    49CD
0736:41C9 59                POP     CX
0736:41CA 5B                POP     BX
0736:41CB BF6856            MOV     DI,5668
0736:41CE 2BCF              SUB     CX,DI
0736:41D0 B020              MOV     AL,20
0736:41D2 F3AA              REP     STOSB
0736:41D4 EBDC              JMP     41B2
0736:41D6 E86F05            CALL    4748
0736:41D9 B020              MOV     AL,20
0736:41DB B98456            MOV     CX,5684
0736:41DE 2BCF              SUB     CX,DI
0736:41E0 7202              JB      41E4
0736:41E2 F3AA              REP     STOSB
0736:41E4 5F                POP     DI
0736:41E5 F606625508        TEST    BYTE PTR [5562],08
0736:41EA 740D              JZ      41F9
0736:41EC BE4A33            MOV     SI,334A
0736:41EF 807DFF20          CMP     BYTE PTR [DI-01],20
0736:41F3 7501              JNZ     41F6
0736:41F5 46                INC     SI
0736:41F6 E88D07            CALL    4986
0736:41F9 57                PUSH    DI
0736:41FA BF934C            MOV     DI,4C93
0736:41FD 8B0E5C55          MOV     CX,[555C]
0736:4201 E87805            CALL    477C
0736:4204 5F                POP     DI
0736:4205 E30E              JCXZ    4215
0736:4207 B8B756            MOV     AX,56B7
0736:420A 2BC1              SUB     AX,CX
0736:420C 51                PUSH    CX
0736:420D E8A307            CALL    49B3
0736:4210 59                POP     CX
0736:4211 F3A4              REP     MOVSB
0736:4213 EB6B              JMP     4280
0736:4215 A06255            MOV     AL,[5562]
0736:4218 3406              XOR     AL,06
0736:421A A806              TEST    AL,06
0736:421C 7562              JNZ     4280
0736:421E 803E5B5503        CMP     BYTE PTR [555B],03
0736:4223 775B              JA      4280
0736:4225 B8AD56            MOV     AX,56AD
0736:4228 803E5A5500        CMP     BYTE PTR [555A],00
0736:422D 7C07              JL      4236
0736:422F 7403              JZ      4234
0736:4231 83E804            SUB     AX,+04
0736:4234 48                DEC     AX
0736:4235 48                DEC     AX
0736:4236 E87A07            CALL    49B3
0736:4239 E83004            CALL    466C
0736:423C B03A              MOV     AL,3A
0736:423E AA                STOSB
0736:423F A15E55            MOV     AX,[555E]
0736:4242 E85207            CALL    4997
0736:4245 B03D              MOV     AL,3D
0736:4247 AA                STOSB
0736:4248 A05B55            MOV     AL,[555B]
0736:424B 98                CBW
0736:424C D1E0              SHL     AX,1
0736:424E 93                XCHG    AX,BX
0736:424F 8B9FDB4C          MOV     BX,[BX+4CDB]
0736:4253 06                PUSH    ES
0736:4254 8E07              MOV     ES,WORD PTR [BX]
0736:4256 8B1E5E55          MOV     BX,[555E]
0736:425A 268A07            MOV     AL,ES:[BX]
0736:425D 268A6701          MOV     AH,ES:[BX+01]
0736:4261 268A5702          MOV     DL,ES:[BX+02]
0736:4265 268A7703          MOV     DH,ES:[BX+03]
0736:4269 07                POP     ES
0736:426A 803E5A5500        CMP     BYTE PTR [555A],00
0736:426F 7C0C              JL      427D
0736:4271 7405              JZ      4278
0736:4273 92                XCHG    AX,DX
0736:4274 E82007            CALL    4997
0736:4277 92                XCHG    AX,DX
0736:4278 E81C07            CALL    4997
0736:427B EB03              JMP     4280
0736:427D E81E07            CALL    499E
0736:4280 E84307            CALL    49C6
0736:4283 A06255            MOV     AL,[5562]
0736:4286 A801              TEST    AL,01
0736:4288 7419              JZ      42A3
0736:428A A808              TEST    AL,08
0736:428C 7512              JNZ     42A0
0736:428E A15C55            MOV     AX,[555C]
0736:4291 83F817            CMP     AX,+17
0736:4294 740A              JZ      42A0
0736:4296 3D8E00            CMP     AX,008E
0736:4299 7405              JZ      42A0
0736:429B 3DFB00            CMP     AX,00FB
0736:429E 7503              JNZ     42A3
0736:42A0 E97CFC            JMP     3F1F
0736:42A3 C3                RET
0736:42A4 E8AF03            CALL    4656
0736:42A7 3CC0              CMP     AL,C0
0736:42A9 7203              JB      42AE
0736:42AB E9A101            JMP     444F
0736:42AE E83204            CALL    46E3
0736:42B1 800E585501        OR      BYTE PTR [5558],01
0736:42B6 F606575501        TEST    BYTE PTR [5557],01
0736:42BB 7406              JZ      42C3
0736:42BD E8AC03            CALL    466C
0736:42C0 B03A              MOV     AL,3A
0736:42C2 AA                STOSB
0736:42C3 A04755            MOV     AL,[5547]
0736:42C6 24C7              AND     AL,C7
0736:42C8 800E585520        OR      BYTE PTR [5558],20
0736:42CD F606575520        TEST    BYTE PTR [5557],20
0736:42D2 7403              JZ      42D7
0736:42D4 E99C00            JMP     4373
0736:42D7 800E625504        OR      BYTE PTR [5562],04
0736:42DC C7065E550000      MOV     WORD PTR [555E],0000
0736:42E2 3C06              CMP     AL,06
0736:42E4 93                XCHG    AX,BX
0736:42E5 B05B              MOV     AL,5B
0736:42E7 AA                STOSB
0736:42E8 747B              JZ      4365
0736:42EA 83E307            AND     BX,+07
0736:42ED 8A9F9D4C          MOV     BL,[BX+4C9D]
0736:42F1 F6C308            TEST    BL,08
0736:42F4 7519              JNZ     430F
0736:42F6 F6C304            TEST    BL,04
0736:42F9 7428              JZ      4323
0736:42FB B84250            MOV     AX,5042
0736:42FE 8B0E0C55          MOV     CX,[550C]
0736:4302 F606575501        TEST    BYTE PTR [5557],01
0736:4307 750D              JNZ     4316
0736:4309 FE0E5B55          DEC     BYTE PTR [555B]
0736:430D EB07              JMP     4316
0736:430F B84258            MOV     AX,5842
0736:4312 8B0E1455          MOV     CX,[5514]
0736:4316 890E5E55          MOV     [555E],CX
0736:431A AB                STOSW
0736:431B F6C303            TEST    BL,03
0736:431E 741A              JZ      433A
0736:4320 B02B              MOV     AL,2B
0736:4322 AA                STOSB
0736:4323 B85349            MOV     AX,4953
0736:4326 8B0E0855          MOV     CX,[5508]
0736:432A F6C301            TEST    BL,01
0736:432D 7406              JZ      4335
0736:432F B044              MOV     AL,44
0736:4331 8B0E0455          MOV     CX,[5504]
0736:4335 010E5E55          ADD     [555E],CX
0736:4339 AB                STOSW
0736:433A F6064755C0        TEST    BYTE PTR [5547],C0
0736:433F 742E              JZ      436F
0736:4341 F606475580        TEST    BYTE PTR [5547],80
0736:4346 751A              JNZ     4362
0736:4348 E8CE03            CALL    4719
0736:434B 98                CBW
0736:434C 01065E55          ADD     [555E],AX
0736:4350 3C00              CMP     AL,00
0736:4352 B42B              MOV     AH,2B
0736:4354 7D04              JGE     435A
0736:4356 B42D              MOV     AH,2D
0736:4358 F6D8              NEG     AL
0736:435A 8825              MOV     [DI],AH
0736:435C 47                INC     DI
0736:435D E83E06            CALL    499E
0736:4360 EB0D              JMP     436F
0736:4362 B02B              MOV     AL,2B
0736:4364 AA                STOSB
0736:4365 E8C803            CALL    4730
0736:4368 01065E55          ADD     [555E],AX
0736:436C E82806            CALL    4997
0736:436F B05D              MOV     AL,5D
0736:4371 AA                STOSB
0736:4372 C3                RET
0736:4373 3C05              CMP     AL,05
0736:4375 7509              JNZ     4380
0736:4377 B05B              MOV     AL,5B
0736:4379 AA                STOSB
0736:437A E8FC02            CALL    4679
0736:437D E99200            JMP     4412
0736:4380 50                PUSH    AX
0736:4381 2407              AND     AL,07
0736:4383 3C04              CMP     AL,04
0736:4385 7506              JNZ     438D
0736:4387 E88F03            CALL    4719
0736:438A A24855            MOV     [5548],AL
0736:438D 58                POP     AX
0736:438E A880              TEST    AL,80
0736:4390 7516              JNZ     43A8
0736:4392 A840              TEST    AL,40
0736:4394 7415              JZ      43AB
0736:4396 E88003            CALL    4719
0736:4399 3C00              CMP     AL,00
0736:439B 7D06              JGE     43A3
0736:439D F6D8              NEG     AL
0736:439F C6052D            MOV     BYTE PTR [DI],2D
0736:43A2 47                INC     DI
0736:43A3 E8F805            CALL    499E
0736:43A6 EB03              JMP     43AB
0736:43A8 E8CE02            CALL    4679
0736:43AB A04755            MOV     AL,[5547]
0736:43AE 2407              AND     AL,07
0736:43B0 3C04              CMP     AL,04
0736:43B2 7562              JNZ     4416
0736:43B4 A04855            MOV     AL,[5548]
0736:43B7 3C24              CMP     AL,24
0736:43B9 7504              JNZ     43BF
0736:43BB B004              MOV     AL,04
0736:43BD EB57              JMP     4416
0736:43BF 2407              AND     AL,07
0736:43C1 3C05              CMP     AL,05
0736:43C3 750C              JNZ     43D1
0736:43C5 F6064755C0        TEST    BYTE PTR [5547],C0
0736:43CA 7505              JNZ     43D1
0736:43CC E8AA02            CALL    4679
0736:43CF EB0C              JMP     43DD
0736:43D1 C7055B45          MOV     WORD PTR [DI],455B
0736:43D5 47                INC     DI
0736:43D6 47                INC     DI
0736:43D7 E8AE02            CALL    4688
0736:43DA B05D              MOV     AL,5D
0736:43DC AA                STOSB
0736:43DD A04855            MOV     AL,[5548]
0736:43E0 D0E8              SHR     AL,1
0736:43E2 D0E8              SHR     AL,1
0736:43E4 D0E8              SHR     AL,1
0736:43E6 2407              AND     AL,07
0736:43E8 3C04              CMP     AL,04
0736:43EA 7441              JZ      442D
0736:43EC C7055B45          MOV     WORD PTR [DI],455B
0736:43F0 47                INC     DI
0736:43F1 47                INC     DI
0736:43F2 E89302            CALL    4688
0736:43F5 8A264855          MOV     AH,[5548]
0736:43F9 F6C4C0            TEST    AH,C0
0736:43FC 7414              JZ      4412
0736:43FE B02A              MOV     AL,2A
0736:4400 AA                STOSB
0736:4401 B032              MOV     AL,32
0736:4403 F6C480            TEST    AH,80
0736:4406 7409              JZ      4411
0736:4408 B034              MOV     AL,34
0736:440A F6C440            TEST    AH,40
0736:440D 7402              JZ      4411
0736:440F B038              MOV     AL,38
0736:4411 AA                STOSB
0736:4412 B05D              MOV     AL,5D
0736:4414 AA                STOSB
0736:4415 C3                RET
0736:4416 C7055B45          MOV     WORD PTR [DI],455B
0736:441A 47                INC     DI
0736:441B 47                INC     DI
0736:441C E86902            CALL    4688
0736:441F B05D              MOV     AL,5D
0736:4421 AA                STOSB
0736:4422 C3                RET
0736:4423 E83002            CALL    4656
0736:4426 3CC0              CMP     AL,C0
0736:4428 7303              JAE     442D
0736:442A E981FE            JMP     42AE
0736:442D E9BF01            JMP     45EF
0736:4430 E82302            CALL    4656
0736:4433 3CC0              CMP     AL,C0
0736:4435 72F6              JB      442D
0736:4437 EB16              JMP     444F
0736:4439 E8A702            CALL    46E3
0736:443C B005              MOV     AL,05
0736:443E F606575520        TEST    BYTE PTR [5557],20
0736:4443 7501              JNZ     4446
0736:4445 40                INC     AX
0736:4446 A24755            MOV     [5547],AL
0736:4449 E965FE            JMP     42B1
0736:444C E8FD01            CALL    464C
0736:444F 2407              AND     AL,07
0736:4451 8A0E6355          MOV     CL,[5563]
0736:4455 080E6255          OR      [5562],CL
0736:4459 80FC00            CMP     AH,00
0736:445C 7C0D              JL      446B
0736:445E 7409              JZ      4469
0736:4460 80FC20            CMP     AH,20
0736:4463 7410              JZ      4475
0736:4465 C60545            MOV     BYTE PTR [DI],45
0736:4468 47                INC     DI
0736:4469 0408              ADD     AL,08
0736:446B 98                CBW
0736:446C D1E0              SHL     AX,1
0736:446E 93                XCHG    AX,BX
0736:446F 8B87A54C          MOV     AX,[BX+4CA5]
0736:4473 AB                STOSW
0736:4474 C3                RET
0736:4475 50                PUSH    AX
0736:4476 B84D4D            MOV     AX,4D4D
0736:4479 AB                STOSW
0736:447A 58                POP     AX
0736:447B 0430              ADD     AL,30
0736:447D AA                STOSB
0736:447E C3                RET
0736:447F A05955            MOV     AL,[5559]
0736:4482 EBCB              JMP     444F
0736:4484 B000              MOV     AL,00
0736:4486 EBC7              JMP     444F
0736:4488 B420              MOV     AH,20
0736:448A EB21              JMP     44AD
0736:448C B8464C            MOV     AX,4C46
0736:448F AB                STOSW
0736:4490 B04F              MOV     AL,4F
0736:4492 AA                STOSB
0736:4493 B84154            MOV     AX,5441
0736:4496 EB0B              JMP     44A3
0736:4498 B8444F            MOV     AX,4F44
0736:449B AB                STOSW
0736:449C B85542            MOV     AX,4255
0736:449F AB                STOSW
0736:44A0 B84C45            MOV     AX,454C
0736:44A3 AB                STOSW
0736:44A4 E86602            CALL    470D
0736:44A7 EB2B              JMP     44D4
0736:44A9 B854FF            MOV     AX,FF54
0736:44AC AA                STOSB
0736:44AD E8A601            CALL    4656
0736:44B0 3CC0              CMP     AL,C0
0736:44B2 732A              JAE     44DE
0736:44B4 80266255FD        AND     BYTE PTR [5562],FD
0736:44B9 E9F2FD            JMP     42AE
0736:44BC E8D601            CALL    4695
0736:44BF 7406              JZ      44C7
0736:44C1 E83E02            CALL    4702
0736:44C4 83EF04            SUB     DI,+04
0736:44C7 B84641            MOV     AX,4146
0736:44CA AB                STOSW
0736:44CB B85220            MOV     AX,2052
0736:44CE AB                STOSW
0736:44CF 80266255FD        AND     BYTE PTR [5562],FD
0736:44D4 E87F01            CALL    4656
0736:44D7 3CC0              CMP     AL,C0
0736:44D9 7303              JAE     44DE
0736:44DB E9D3FD            JMP     42B1
0736:44DE E90E01            JMP     45EF
0736:44E1 E84C02            CALL    4730
0736:44E4 50                PUSH    AX
0736:44E5 E8AD01            CALL    4695
0736:44E8 7404              JZ      44EE
0736:44EA E84302            CALL    4730
0736:44ED 50                PUSH    AX
0736:44EE E83F02            CALL    4730
0736:44F1 E8A304            CALL    4997
0736:44F4 B03A              MOV     AL,3A
0736:44F6 AA                STOSB
0736:44F7 E89B01            CALL    4695
0736:44FA 7404              JZ      4500
0736:44FC 58                POP     AX
0736:44FD E89704            CALL    4997
0736:4500 58                POP     AX
0736:4501 E89304            CALL    4997
0736:4504 C3                RET
0736:4505 E81102            CALL    4719
0736:4508 98                CBW
0736:4509 EB28              JMP     4533
0736:450B E82202            CALL    4730
0736:450E E88401            CALL    4695
0736:4511 7420              JZ      4533
0736:4513 50                PUSH    AX
0736:4514 E8EB01            CALL    4702
0736:4517 83EF04            SUB     DI,+04
0736:451A 5A                POP     DX
0736:451B E81202            CALL    4730
0736:451E 8B1EBE54          MOV     BX,[54BE]
0736:4522 031E5355          ADD     BX,[5553]
0736:4526 03D3              ADD     DX,BX
0736:4528 1306C054          ADC     AX,[54C0]
0736:452C E86804            CALL    4997
0736:452F 92                XCHG    AX,DX
0736:4530 E96404            JMP     4997
0736:4533 0306BE54          ADD     AX,[54BE]
0736:4537 03065355          ADD     AX,[5553]
0736:453B E95904            JMP     4997
0736:453E 58                POP     AX
0736:453F A04755            MOV     AL,[5547]
0736:4542 2407              AND     AL,07
0736:4544 3C01              CMP     AL,01
0736:4546 7403              JZ      454B
0736:4548 E9C9FA            JMP     4014
0736:454B E929FB            JMP     4077
0736:454E A04755            MOV     AL,[5547]
0736:4551 2407              AND     AL,07
0736:4553 93                XCHG    AX,BX
0736:4554 B85354            MOV     AX,5453
0736:4557 AB                STOSW
0736:4558 B028              MOV     AL,28
0736:455A AA                STOSB
0736:455B B83029            MOV     AX,2930
0736:455E 0AC3              OR      AL,BL
0736:4560 AB                STOSW
0736:4561 C3                RET
0736:4562 BB4352            MOV     BX,5243
0736:4565 E8E400            CALL    464C
0736:4568 3C04              CMP     AL,04
0736:456A 7713              JA      457F
0736:456C 7505              JNZ     4573
0736:456E C6064D5505        MOV     BYTE PTR [554D],05
0736:4573 813E5C550202      CMP     WORD PTR [555C],0202
0736:4579 7524              JNZ     459F
0736:457B 3C01              CMP     AL,01
0736:457D 7520              JNZ     459F
0736:457F EB6E              JMP     45EF
0736:4581 E8C800            CALL    464C
0736:4584 BB4452            MOV     BX,5244
0736:4587 B9FFFF            MOV     CX,FFFF
0736:458A EB13              JMP     459F
0736:458C E8BD00            CALL    464C
0736:458F 3C03              CMP     AL,03
0736:4591 725C              JB      45EF
0736:4593 3C06              CMP     AL,06
0736:4595 7305              JAE     459C
0736:4597 C6064D5504        MOV     BYTE PTR [554D],04
0736:459C BB5452            MOV     BX,5254
0736:459F 93                XCHG    AX,BX
0736:45A0 AB                STOSW
0736:45A1 93                XCHG    AX,BX
0736:45A2 0C30              OR      AL,30
0736:45A4 AA                STOSB
0736:45A5 C3                RET
0736:45A6 E8A300            CALL    464C
0736:45A9 3C06              CMP     AL,06
0736:45AB 7342              JAE     45EF
0736:45AD 3C02              CMP     AL,02
0736:45AF 7405              JZ      45B6
0736:45B1 80266255FE        AND     BYTE PTR [5562],FE
0736:45B6 3C04              CMP     AL,04
0736:45B8 7205              JB      45BF
0736:45BA C6064D5503        MOV     BYTE PTR [554D],03
0736:45BF 0410              ADD     AL,10
0736:45C1 E9A7FE            JMP     446B
0736:45C4 E85201            CALL    4719
0736:45C7 3C00              CMP     AL,00
0736:45C9 93                XCHG    AX,BX
0736:45CA B02B              MOV     AL,2B
0736:45CC 7D04              JGE     45D2
0736:45CE F6DB              NEG     BL
0736:45D0 B02D              MOV     AL,2D
0736:45D2 AA                STOSB
0736:45D3 93                XCHG    AX,BX
0736:45D4 EB03              JMP     45D9
0736:45D6 E84001            CALL    4719
0736:45D9 E9C203            JMP     499E
0736:45DC BB4D4D            MOV     BX,4D4D
0736:45DF E86A00            CALL    464C
0736:45E2 2407              AND     AL,07
0736:45E4 EBB9              JMP     459F
0736:45E6 800E625510        OR      BYTE PTR [5562],10
0736:45EB 58                POP     AX
0736:45EC E925FA            JMP     4014
0736:45EF 8B266055          MOV     SP,[5560]
0736:45F3 B84F23            MOV     AX,234F
0736:45F6 50                PUSH    AX
0736:45F7 C70653550000      MOV     WORD PTR [5553],0000
0736:45FD C70657550000      MOV     WORD PTR [5557],0000
0736:4603 C6065A5580        MOV     BYTE PTR [555A],80
0736:4608 C7064D550000      MOV     WORD PTR [554D],0000
0736:460E 80266255FB        AND     BYTE PTR [5562],FB
0736:4613 E80301            CALL    4719
0736:4616 BFE34C            MOV     DI,4CE3
0736:4619 B90A00            MOV     CX,000A
0736:461C F2AE              REPNE   SCASB
0736:461E 740B              JZ      462B
0736:4620 FF0E5355          DEC     WORD PTR [5553]
0736:4624 BBB401            MOV     BX,01B4
0736:4627 BE7100            MOV     SI,0071
0736:462A C3                RET
0736:462B 800E625508        OR      BYTE PTR [5562],08
0736:4630 BB0900            MOV     BX,0009
0736:4633 2BD9              SUB     BX,CX
0736:4635 D1E3              SHL     BX,1
0736:4637 83FB0C            CMP     BX,+0C
0736:463A 7208              JB      4644
0736:463C 8B9FE14C          MOV     BX,[BX+4CE1]
0736:4640 BE0C00            MOV     SI,000C
0736:4643 C3                RET
0736:4644 8DB7BC00          LEA     SI,[BX+00BC]
0736:4648 BBF307            MOV     BX,07F3
0736:464B C3                RET
0736:464C E80700            CALL    4656
0736:464F B103              MOV     CL,03
0736:4651 D2E8              SHR     AL,CL
0736:4653 2407              AND     AL,07
0736:4655 C3                RET
0736:4656 F606585580        TEST    BYTE PTR [5558],80
0736:465B 750B              JNZ     4668
0736:465D 800E585580        OR      BYTE PTR [5558],80
0736:4662 E8B400            CALL    4719
0736:4665 A24755            MOV     [5547],AL
0736:4668 A04755            MOV     AL,[5547]
0736:466B C3                RET
0736:466C A05B55            MOV     AL,[555B]
0736:466F 98                CBW
0736:4670 D1E0              SHL     AX,1
0736:4672 93                XCHG    AX,BX
0736:4673 8B87C54C          MOV     AX,[BX+4CC5]
0736:4677 AB                STOSW
0736:4678 C3                RET
0736:4679 E8B400            CALL    4730
0736:467C 50                PUSH    AX
0736:467D E8B000            CALL    4730
0736:4680 E81403            CALL    4997
0736:4683 58                POP     AX
0736:4684 E81003            CALL    4997
0736:4687 C3                RET
0736:4688 98                CBW
0736:4689 D1E0              SHL     AX,1
0736:468B 93                XCHG    AX,BX
0736:468C 50                PUSH    AX
0736:468D 8B87B54C          MOV     AX,[BX+4CB5]
0736:4691 AB                STOSW
0736:4692 58                POP     AX
0736:4693 93                XCHG    AX,BX
0736:4694 C3                RET
0736:4695 800E585510        OR      BYTE PTR [5558],10
0736:469A F606575510        TEST    BYTE PTR [5557],10
0736:469F C3                RET
0736:46A0 80FC00            CMP     AH,00
0736:46A3 7C20              JL      46C5
0736:46A5 9C                PUSHF
0736:46A6 F606625510        TEST    BYTE PTR [5562],10
0736:46AB 7406              JZ      46B3
0736:46AD E83300            CALL    46E3
0736:46B0 83EF04            SUB     DI,+04
0736:46B3 E87A00            CALL    4730
0736:46B6 9D                POPF
0736:46B7 7408              JZ      46C1
0736:46B9 50                PUSH    AX
0736:46BA E87300            CALL    4730
0736:46BD E8D702            CALL    4997
0736:46C0 58                POP     AX
0736:46C1 E8D302            CALL    4997
0736:46C4 C3                RET
0736:46C5 E85100            CALL    4719
0736:46C8 E8D302            CALL    499E
0736:46CB C3                RET
0736:46CC BF8456            MOV     DI,5684
0736:46CF AC                LODSB
0736:46D0 8AE0              MOV     AH,AL
0736:46D2 247F              AND     AL,7F
0736:46D4 AA                STOSB
0736:46D5 22E4              AND     AH,AH
0736:46D7 79F6              JNS     46CF
0736:46D9 B020              MOV     AL,20
0736:46DB AA                STOSB
0736:46DC 81FF8C56          CMP     DI,568C
0736:46E0 72F9              JB      46DB
0736:46E2 C3                RET
0736:46E3 88265A55          MOV     [555A],AH
0736:46E7 893E6455          MOV     [5564],DI
0736:46EB B051              MOV     AL,51
0736:46ED 80FC20            CMP     AH,20
0736:46F0 7412              JZ      4704
0736:46F2 80FC00            CMP     AH,00
0736:46F5 7F0B              JG      4702
0736:46F7 740C              JZ      4705
0736:46F9 B84259            MOV     AX,5942
0736:46FC AB                STOSW
0736:46FD B85445            MOV     AX,4554
0736:4700 EB0A              JMP     470C
0736:4702 B044              MOV     AL,44
0736:4704 AA                STOSB
0736:4705 B8574F            MOV     AX,4F57
0736:4708 AB                STOSW
0736:4709 B85244            MOV     AX,4452
0736:470C AB                STOSW
0736:470D B82050            MOV     AX,5020
0736:4710 AB                STOSW
0736:4711 B85452            MOV     AX,5254
0736:4714 AB                STOSW
0736:4715 B020              MOV     AL,20
0736:4717 AA                STOSB
0736:4718 C3                RET
0736:4719 1E                PUSH    DS
0736:471A 56                PUSH    SI
0736:471B 8B36BE54          MOV     SI,[54BE]
0736:471F 8E1EC254          MOV     DS,WORD PTR [54C2]
0736:4723 2E03365355        ADD     SI,CS:[5553]
0736:4728 AC                LODSB
0736:4729 5E                POP     SI
0736:472A 1F                POP     DS
0736:472B FF065355          INC     WORD PTR [5553]
0736:472F C3                RET
0736:4730 1E                PUSH    DS
0736:4731 56                PUSH    SI
0736:4732 8B36BE54          MOV     SI,[54BE]
0736:4736 8E1EC254          MOV     DS,WORD PTR [54C2]
0736:473A 2E03365355        ADD     SI,CS:[5553]
0736:473F AD                LODSW
0736:4740 5E                POP     SI
0736:4741 1F                POP     DS
0736:4742 8306535502        ADD     WORD PTR [5553],+02
0736:4747 C3                RET
0736:4748 8B36BE54          MOV     SI,[54BE]
0736:474C 8E1EC254          MOV     DS,WORD PTR [54C2]
0736:4750 AC                LODSB
0736:4751 E84A02            CALL    499E
0736:4754 4B                DEC     BX
0736:4755 75F9              JNZ     4750
0736:4757 16                PUSH    SS
0736:4758 1F                POP     DS
0736:4759 8936BE54          MOV     [54BE],SI
0736:475D C3                RET
0736:475E 833E645500        CMP     WORD PTR [5564],+00
0736:4763 7404              JZ      4769
0736:4765 010E6455          ADD     [5564],CX
0736:4769 8BF7              MOV     SI,DI
0736:476B 03F9              ADD     DI,CX
0736:476D 8BCF              MOV     CX,DI
0736:476F 81E98456          SUB     CX,5684
0736:4773 57                PUSH    DI
0736:4774 FD                STD
0736:4775 4E                DEC     SI
0736:4776 4F                DEC     DI
0736:4777 F3A4              REP     MOVSB
0736:4779 5F                POP     DI
0736:477A FC                CLD
0736:477B C3                RET
0736:477C BE5433            MOV     SI,3354
0736:477F F6064E5501        TEST    BYTE PTR [554E],01
0736:4784 741E              JZ      47A4
0736:4786 C6440937          MOV     BYTE PTR [SI+09],37
0736:478A A0A654            MOV     AL,[54A6]
0736:478D 803EA45400        CMP     BYTE PTR [54A4],00
0736:4792 7517              JNZ     47AB
0736:4794 A0A154            MOV     AL,[54A1]
0736:4797 3A064D55          CMP     AL,[554D]
0736:479B 7214              JB      47B1
0736:479D BE5F33            MOV     SI,335F
0736:47A0 B91800            MOV     CX,0018
0736:47A3 C3                RET
0736:47A4 C6440936          MOV     BYTE PTR [SI+09],36
0736:47A8 A0A154            MOV     AL,[54A1]
0736:47AB 3A064D55          CMP     AL,[554D]
0736:47AF 730C              JAE     47BD
0736:47B1 A04D55            MOV     AL,[554D]
0736:47B4 0430              ADD     AL,30
0736:47B6 884407            MOV     [SI+07],AL
0736:47B9 B90B00            MOV     CX,000B
0736:47BC C3                RET
0736:47BD BE7733            MOV     SI,3377
0736:47C0 8BC1              MOV     AX,CX
0736:47C2 B90500            MOV     CX,0005
0736:47C5 F2AF              REPNE   SCASW
0736:47C7 7511              JNZ     47DA
0736:47C9 BFAC4B            MOV     DI,4BAC
0736:47CC 2BF9              SUB     DI,CX
0736:47CE 33C9              XOR     CX,CX
0736:47D0 A0A654            MOV     AL,[54A6]
0736:47D3 3A05              CMP     AL,[DI]
0736:47D5 7E03              JLE     47DA
0736:47D7 B90A00            MOV     CX,000A
0736:47DA C3                RET
0736:47DB BE282E            MOV     SI,2E28
0736:47DE BF6856            MOV     DI,5668
0736:47E1 B90800            MOV     CX,0008
0736:47E4 F606A25401        TEST    BYTE PTR [54A2],01
0736:47E9 7402              JZ      47ED
0736:47EB B106              MOV     CL,06
0736:47ED E85500            CALL    4845
0736:47F0 E8D301            CALL    49C6
0736:47F3 BF6856            MOV     DI,5668
0736:47F6 F606A25401        TEST    BYTE PTR [54A2],01
0736:47FB 7513              JNZ     4810
0736:47FD 56                PUSH    SI
0736:47FE 83C604            ADD     SI,+04
0736:4801 B104              MOV     CL,04
0736:4803 E84600            CALL    484C
0736:4806 5E                POP     SI
0736:4807 41                INC     CX
0736:4808 E83A00            CALL    4845
0736:480B E85E01            CALL    496C
0736:480E EB15              JMP     4825
0736:4810 B104              MOV     CL,04
0736:4812 E84900            CALL    485E
0736:4815 56                PUSH    SI
0736:4816 E85301            CALL    496C
0736:4819 E8AA01            CALL    49C6
0736:481C 5E                POP     SI
0736:481D BF6856            MOV     DI,5668
0736:4820 B106              MOV     CL,06
0736:4822 E82700            CALL    484C
0736:4825 E89E01            CALL    49C6
0736:4828 BE3455            MOV     SI,5534
0736:482B BFBE54            MOV     DI,54BE
0736:482E A5                MOVSW
0736:482F A5                MOVSW
0736:4830 A12A55            MOV     AX,[552A]
0736:4833 AB                STOSW
0736:4834 C606625503        MOV     BYTE PTR [5562],03
0736:4839 E8E8F6            CALL    3F24
0736:483C 66A13455          MOV     EAX,[5534]
0736:4840 66A3BE54          MOV     [54BE],EAX
0736:4844 C3                RET
0736:4845 F606A25401        TEST    BYTE PTR [54A2],01
0736:484A 7512              JNZ     485E
0736:484C A5                MOVSW
0736:484D B03D              MOV     AL,3D
0736:484F AA                STOSB
0736:4850 8B5C1E            MOV     BX,[SI+1E]
0736:4853 8B07              MOV     AX,[BX]
0736:4855 E83F01            CALL    4997
0736:4858 B020              MOV     AL,20
0736:485A AA                STOSB
0736:485B E2EF              LOOPW   484C
0736:485D C3                RET
0736:485E B045              MOV     AL,45
0736:4860 AA                STOSB
0736:4861 A5                MOVSW
0736:4862 B03D              MOV     AL,3D
0736:4864 AA                STOSB
0736:4865 8B5C1E            MOV     BX,[SI+1E]
0736:4868 668B07            MOV     EAX,[BX]
0736:486B E82001            CALL    498E
0736:486E B020              MOV     AL,20
0736:4870 AA                STOSB
0736:4871 E2EB              LOOPW   485E
0736:4873 C3                RET
0736:4874 BF6856            MOV     DI,5668
0736:4877 BE4E4D            MOV     SI,4D4E
0736:487A BB6855            MOV     BX,5568
0736:487D 66DD37            FSAVED  [BX]
0736:4880 B90300            MOV     CX,0003
0736:4883 A5                MOVSW
0736:4884 B03D              MOV     AL,3D
0736:4886 AA                STOSB
0736:4887 87F3              XCHG    SI,BX
0736:4889 66AD              LODSD
0736:488B 87F3              XCHG    SI,BX
0736:488D 50                PUSH    AX
0736:488E E80601            CALL    4997
0736:4891 B020              MOV     AL,20
0736:4893 AA                STOSB
0736:4894 E2ED              LOOPW   4883
0736:4896 53                PUSH    BX
0736:4897 A5                MOVSW
0736:4898 A5                MOVSW
0736:4899 87F3              XCHG    SI,BX
0736:489B 66AD              LODSD
0736:489D AD                LODSW
0736:489E 87F3              XCHG    SI,BX
0736:48A0 25FF07            AND     AX,07FF
0736:48A3 E8F100            CALL    4997
0736:48A6 B020              MOV     AL,20
0736:48A8 AA                STOSB
0736:48A9 5B                POP     BX
0736:48AA B102              MOV     CL,02
0736:48AC 51                PUSH    CX
0736:48AD A5                MOVSW
0736:48AE A4                MOVSB
0736:48AF 87F3              XCHG    SI,BX
0736:48B1 66AD              LODSD
0736:48B3 668BD0            MOV     EDX,EAX
0736:48B6 66AD              LODSD
0736:48B8 87F3              XCHG    SI,BX
0736:48BA B10C              MOV     CL,0C
0736:48BC 66D3E8            SHR     EAX,CL
0736:48BF 803EA15403        CMP     BYTE PTR [54A1],03
0736:48C4 7205              JB      48CB
0736:48C6 E8CE00            CALL    4997
0736:48C9 EB03              JMP     48CE
0736:48CB E8DB00            CALL    49A9
0736:48CE 8BC2              MOV     AX,DX
0736:48D0 E8C400            CALL    4997
0736:48D3 B020              MOV     AL,20
0736:48D5 AA                STOSB
0736:48D6 59                POP     CX
0736:48D7 E2D3              LOOPW   48AC
0736:48D9 87F3              XCHG    SI,BX
0736:48DB E8E800            CALL    49C6
0736:48DE 5D                POP     BP
0736:48DF 58                POP     AX
0736:48E0 5A                POP     DX
0736:48E1 B10A              MOV     CL,0A
0736:48E3 D3E8              SHR     AX,CL
0736:48E5 240E              AND     AL,0E
0736:48E7 8AC8              MOV     CL,AL
0736:48E9 D3CD              ROR     BP,CL
0736:48EB B130              MOV     CL,30
0736:48ED BF6856            MOV     DI,5668
0736:48F0 51                PUSH    CX
0736:48F1 B85354            MOV     AX,5453
0736:48F4 AB                STOSW
0736:48F5 8AC1              MOV     AL,CL
0736:48F7 B43D              MOV     AH,3D
0736:48F9 AB                STOSW
0736:48FA 57                PUSH    DI
0736:48FB A801              TEST    AL,01
0736:48FD B020              MOV     AL,20
0736:48FF B91600            MOV     CX,0016
0736:4902 F3AA              REP     STOSB
0736:4904 7404              JZ      490A
0736:4906 B80D0A            MOV     AX,0A0D
0736:4909 AB                STOSW
0736:490A B024              MOV     AL,24
0736:490C AA                STOSB
0736:490D 5F                POP     DI
0736:490E 8BC5              MOV     AX,BP
0736:4910 D1CD              ROR     BP,1
0736:4912 D1CD              ROR     BP,1
0736:4914 2403              AND     AL,03
0736:4916 741D              JZ      4935
0736:4918 56                PUSH    SI
0736:4919 BE5E4D            MOV     SI,4D5E
0736:491C B105              MOV     CL,05
0736:491E 3C03              CMP     AL,03
0736:4920 740E              JZ      4930
0736:4922 BE634D            MOV     SI,4D63
0736:4925 B103              MOV     CL,03
0736:4927 3C02              CMP     AL,02
0736:4929 7405              JZ      4930
0736:492B B030              MOV     AL,30
0736:492D AA                STOSB
0736:492E B100              MOV     CL,00
0736:4930 F3A4              REP     MOVSB
0736:4932 5E                POP     SI
0736:4933 EB20              JMP     4955
0736:4935 8B4408            MOV     AX,[SI+08]
0736:4938 E85C00            CALL    4997
0736:493B B02E              MOV     AL,2E
0736:493D AA                STOSB
0736:493E 8B4406            MOV     AX,[SI+06]
0736:4941 E85300            CALL    4997
0736:4944 8B4404            MOV     AX,[SI+04]
0736:4947 E84D00            CALL    4997
0736:494A 8B4402            MOV     AX,[SI+02]
0736:494D E84700            CALL    4997
0736:4950 8B04              MOV     AX,[SI]
0736:4952 E84200            CALL    4997
0736:4955 BA6856            MOV     DX,5668
0736:4958 E8F9ED            CALL    3754
0736:495B 59                POP     CX
0736:495C 83C60A            ADD     SI,+0A
0736:495F FEC1              INC     CL
0736:4961 80F938            CMP     CL,38
0736:4964 7587              JNZ     48ED
0736:4966 66DD266855        FRSTORD [5568]
0736:496B C3                RET
0736:496C BE682E            MOV     SI,2E68
0736:496F B90800            MOV     CX,0008
0736:4972 AD                LODSW
0736:4973 85063855          TEST    [5538],AX
0736:4977 8B440E            MOV     AX,[SI+0E]
0736:497A 7403              JZ      497F
0736:497C 8B441E            MOV     AX,[SI+1E]
0736:497F AB                STOSW
0736:4980 B020              MOV     AL,20
0736:4982 AA                STOSB
0736:4983 E2ED              LOOPW   4972
0736:4985 C3                RET
0736:4986 AC                LODSB
0736:4987 AA                STOSB
0736:4988 AC                LODSB
0736:4989 3C00              CMP     AL,00
0736:498B 75FA              JNZ     4987
0736:498D C3                RET
0736:498E 50                PUSH    AX
0736:498F 66C1E810          SHR     EAX,10
0736:4993 E80100            CALL    4997
0736:4996 58                POP     AX
0736:4997 50                PUSH    AX
0736:4998 8AC4              MOV     AL,AH
0736:499A E80100            CALL    499E
0736:499D 58                POP     AX
0736:499E 50                PUSH    AX
0736:499F 51                PUSH    CX
0736:49A0 B104              MOV     CL,04
0736:49A2 D2E8              SHR     AL,CL
0736:49A4 E80200            CALL    49A9
0736:49A7 59                POP     CX
0736:49A8 58                POP     AX
0736:49A9 240F              AND     AL,0F
0736:49AB 0490              ADD     AL,90
0736:49AD 27                DAA
0736:49AE 1440              ADC     AL,40
0736:49B0 27                DAA
0736:49B1 AA                STOSB
0736:49B2 C3                RET
0736:49B3 50                PUSH    AX
0736:49B4 2BC7              SUB     AX,DI
0736:49B6 7706              JA      49BE
0736:49B8 E80B00            CALL    49C6
0736:49BB BF6856            MOV     DI,5668
0736:49BE 59                POP     CX
0736:49BF 2BCF              SUB     CX,DI
0736:49C1 B020              MOV     AL,20
0736:49C3 F3AA              REP     STOSB
0736:49C5 C3                RET
0736:49C6 4F                DEC     DI
0736:49C7 803D20            CMP     BYTE PTR [DI],20
0736:49CA 74FA              JZ      49C6
0736:49CC 47                INC     DI
0736:49CD B80D0A            MOV     AX,0A0D
0736:49D0 AB                STOSW
0736:49D1 8BCF              MOV     CX,DI
0736:49D3 BA6856            MOV     DX,5668
0736:49D6 2BCA              SUB     CX,DX
0736:49D8 E88DF1            CALL    3B68
0736:49DB 7509              JNZ     49E6
0736:49DD BB0100            MOV     BX,0001
0736:49E0 B440              MOV     AH,40
0736:49E2 E865E3            CALL    2D4A
0736:49E5 C3                RET
0736:49E6 E30E              JCXZ    49F6
0736:49E8 56                PUSH    SI
0736:49E9 8BF2              MOV     SI,DX
0736:49EB AC                LODSB
0736:49EC BB0700            MOV     BX,0007
0736:49EF B40E              MOV     AH,0E
0736:49F1 CD10              INT     10
0736:49F3 E2F6              LOOPW   49EB
0736:49F5 5E                POP     SI
0736:49F6 C3                RET
0736:49F7 BF0455            MOV     DI,5504
0736:49FA B91C00            MOV     CX,001C
0736:49FD 33C0              XOR     AX,AX
0736:49FF F3AB              REP     STOSW
0736:4A01 B448              MOV     AH,48
0736:4A03 BBFFFF            MOV     BX,FFFF
0736:4A06 CD21              INT     21
0736:4A08 83FB11            CMP     BX,+11
0736:4A0B 727F              JB      4A8C
0736:4A0D B448              MOV     AH,48
0736:4A0F CD21              INT     21
0736:4A11 7279              JB      4A8C
0736:4A13 C606355501        MOV     BYTE PTR [5535],01
0736:4A18 E81EE4            CALL    2E39
0736:4A1B 53                PUSH    BX
0736:4A1C BF2455            MOV     DI,5524
0736:4A1F AB                STOSW
0736:4A20 AB                STOSW
0736:4A21 AB                STOSW
0736:4A22 AB                STOSW
0736:4A23 E8C8E4            CALL    2EEE
0736:4A26 8B1E2A55          MOV     BX,[552A]
0736:4A2A 8EC3              MOV     ES,BX
0736:4A2C 58                POP     AX
0736:4A2D 8BD0              MOV     DX,AX
0736:4A2F 03D3              ADD     DX,BX
0736:4A31 2689160200        MOV     ES:[0002],DX
0736:4A36 3D0010            CMP     AX,1000
0736:4A39 7602              JBE     4A3D
0736:4A3B 33C0              XOR     AX,AX
0736:4A3D B104              MOV     CL,04
0736:4A3F D3E0              SHL     AX,CL
0736:4A41 48                DEC     AX
0736:4A42 48                DEC     AX
0736:4A43 A33055            MOV     [5530],AX
0736:4A46 97                XCHG    AX,DI
0736:4A47 33C0              XOR     AX,AX
0736:4A49 AB                STOSW
0736:4A4A B455              MOV     AH,55
0736:4A4C 8CC2              MOV     DX,ES
0736:4A4E 268B360200        MOV     SI,ES:[0002]
0736:4A53 F8                CLC
0736:4A54 CD21              INT     21
0736:4A56 26C7060A009F1D    MOV     WORD PTR ES:[000A],1D9F
0736:4A5D 268C0E0C00        MOV     WORD PTR ES:[000C],CS
0736:4A62 803ECF5400        CMP     BYTE PTR [54CF],00
0736:4A67 750A              JNZ     4A73
0736:4A69 FE06CF54          INC     BYTE PTR [54CF]
0736:4A6D 26C6060001C3      MOV     BYTE PTR ES:[0100],C3
0736:4A73 8C067C54          MOV     WORD PTR [547C],ES
0736:4A77 8CC0              MOV     AX,ES
0736:4A79 48                DEC     AX
0736:4A7A 8EC0              MOV     ES,AX
0736:4A7C 40                INC     AX
0736:4A7D 26A30100          MOV     ES:[0001],AX
0736:4A81 26C606080000      MOV     BYTE PTR ES:[0008],00
0736:4A87 1E                PUSH    DS
0736:4A88 07                POP     ES
0736:4A89 E8A0E2            CALL    2D2C
0736:4A8C C3                RET
0736:4A8D 00B301DE          ADD     [BP+DI+DE01],DH
0736:4A91 1C35              SBB     AL,35
0736:4A93 0C2D              OR      AL,2D
0736:4A95 0D000E            OR      AX,0E00
0736:4A98 220F              AND     CL,[BX]
0736:4A9A 99                CWD
0736:4A9B 0F                DB      0F
0736:4A9C F9                STC
0736:4A9D 0F                DB      0F
0736:4A9E 3D10DE            CMP     AX,DE10
0736:4AA1 1CDE              SBB     AL,DE
0736:4AA3 1CCA              SBB     AL,CA
0736:4AA5 106012            ADC     [BX+SI+12],AH
0736:4AA8 4D                DEC     BP
0736:4AA9 132F              ADC     BP,[BX]
0736:4AAB 14DA              ADC     AL,DA
0736:4AAD 14D0              ADC     AL,D0
0736:4AAF 155116            ADC     AX,1651
0736:4AB2 4E                DEC     SI
0736:4AB3 17                POP     SS
0736:4AB4 F8                CLC
0736:4AB5 17                POP     SS
0736:4AB6 FE                DB      FE
0736:4AB7 18DE              SBB     DH,BL
0736:4AB9 1C75              SBB     AL,75
0736:4ABB 19FF              SBB     DI,DI
0736:4ABD 1A00              SBB     AL,[BX+SI]
0736:4ABF B61D              MOV     DH,1D
0736:4AC1 01BF1D03          ADD     [BX+031D],DI
0736:4AC5 C81D2203          ENTER   221D,03
0736:4AC9 014158            ADD     [BX+DI+58],AX
0736:4ACC 42                INC     DX
0736:4ACD 58                POP     AX
0736:4ACE 43                INC     BX
0736:4ACF 58                POP     AX
0736:4AD0 44                INC     SP
0736:4AD1 58                POP     AX
0736:4AD2 53                PUSH    BX
0736:4AD3 50                PUSH    AX
0736:4AD4 42                INC     DX
0736:4AD5 50                PUSH    AX
0736:4AD6 53                PUSH    BX
0736:4AD7 49                DEC     CX
0736:4AD8 44                INC     SP
0736:4AD9 49                DEC     CX
0736:4ADA 49                DEC     CX
0736:4ADB 50                PUSH    AX
0736:4ADC 46                INC     SI
0736:4ADD 4C                DEC     SP
0736:4ADE 44                INC     SP
0736:4ADF 53                PUSH    BX
0736:4AE0 45                INC     BP
0736:4AE1 53                PUSH    BX
0736:4AE2 53                PUSH    BX
0736:4AE3 53                PUSH    BX
0736:4AE4 43                INC     BX
0736:4AE5 53                PUSH    BX
0736:4AE6 46                INC     SI
0736:4AE7 53                PUSH    BX
0736:4AE8 47                INC     DI
0736:4AE9 53                PUSH    BX
0736:4AEA 205514            AND     [DI+14],DL
0736:4AED 55                PUSH    BP
0736:4AEE 1C55              SBB     AL,55
0736:4AF0 185530            SBB     [DI+30],DL
0736:4AF3 55                PUSH    BP
0736:4AF4 0C55              OR      AL,55
0736:4AF6 085504            OR      [DI+04],DL
0736:4AF9 55                PUSH    BP
0736:4AFA 3455              XOR     AL,55
0736:4AFC 385524            CMP     [DI+24],DL
0736:4AFF 55                PUSH    BP
0736:4B00 26                SEG     ES (unused)
0736:4B01 55                PUSH    BP
0736:4B02 28552A            SUB     [DI+2A],DL
0736:4B05 55                PUSH    BP
0736:4B06 2C55              SUB     AL,55
0736:4B08 2E                SEG     CS (unused)
0736:4B09 55                PUSH    BP
0736:4B0A 0008              ADD     [BX+SI],CL
0736:4B0C 0004              ADD     [SI],AL
0736:4B0E 0002              ADD     [BP+SI],AL
0736:4B10 800040            ADD     BYTE PTR [BX+SI],40
0736:4B13 0010              ADD     [BX+SI],DL
0736:4B15 0004              ADD     [SI],AL
0736:4B17 0001              ADD     [BX+DI],AL
0736:4B19 004E56            ADD     [BP+56],CL
0736:4B1C 55                PUSH    BP
0736:4B1D 50                PUSH    AX
0736:4B1E 44                INC     SP
0736:4B1F 49                DEC     CX
0736:4B20 50                PUSH    AX
0736:4B21 4C                DEC     SP
0736:4B22 4E                DEC     SI
0736:4B23 5A                POP     DX
0736:4B24 4E                DEC     SI
0736:4B25 41                INC     CX
0736:4B26 50                PUSH    AX
0736:4B27 4F                DEC     DI
0736:4B28 4E                DEC     SI
0736:4B29 43                INC     BX
0736:4B2A 4F                DEC     DI
0736:4B2B 56                PUSH    SI
0736:4B2C 44                INC     SP
0736:4B2D 4E                DEC     SI
0736:4B2E 45                INC     BP
0736:4B2F 49                DEC     CX
0736:4B30 4E                DEC     SI
0736:4B31 47                INC     DI
0736:4B32 5A                POP     DX
0736:4B33 52                PUSH    DX
0736:4B34 41                INC     CX
0736:4B35 43                INC     BX
0736:4B36 50                PUSH    AX
0736:4B37 45                INC     BP
0736:4B38 43                INC     BX
0736:4B39 59                POP     CX
0736:4B3A 66                DB      66
0736:4B3B 67                DB      67
0736:4B3C 26                SEG     ES (unused)
0736:4B3D 2E                SEG     CS (unused)
0736:4B3E 36                SEG     SS (unused)
0736:4B3F 3E                SEG     DS (unused)
0736:4B40 64                SEG     FS (unused)
0736:4B41 65                SEG     GS (unused)
0736:4B42 F2                REPNE   (unused)
0736:4B43 F3AC              REP     LODSB
0736:4B45 AD                LODSW
0736:4B46 AA                STOSB
0736:4B47 AB                STOSW
0736:4B48 A4                MOVSB
0736:4B49 A5                MOVSW
0736:4B4A A6                CMPSB
0736:4B4B A7                CMPSW
0736:4B4C AE                SCASB
0736:4B4D AF                SCASW
0736:4B4E 6C                INSB
0736:4B4F 6D                INSW
0736:4B50 6E                OUTSB
0736:4B51 6F                OUTSW
0736:4B52 CC                INT     3
0736:4B53 CDE0              INT     E0
0736:4B55 E1E2              LOOPZW  4B39
0736:4B57 E89A82            CALL    CDF4
0736:4B5A 818080808080      ADD     WORD PTR [BX+SI+8080],8080
0736:4B60 8080800000        ADD     BYTE PTR [BX+SI+0080],00
0736:4B65 0000              ADD     [BX+SI],AL
0736:4B67 0000              ADD     [BX+SI],AL
0736:4B69 0000              ADD     [BX+SI],AL
0736:4B6B 0000              ADD     [BX+SI],AL
0736:4B6D 0000              ADD     [BX+SI],AL
0736:4B6F 0000              ADD     [BX+SI],AL
0736:4B71 0001              ADD     [BX+DI],AL
0736:4B73 0101              ADD     [BX+DI],AX
0736:4B75 014244            ADD     [BP+SI+44],AX
0736:4B78 2D3A44            SUB     AX,443A
0736:4B7B 4F                DEC     DI
0736:4B7C 53                PUSH    BX
0736:4B7D 204465            AND     [SI+65],AL
0736:4B80 627567            BOUND   SI,[DI+67]
0736:4B83 207631            AND     [BP+31],DH
0736:4B86 2E3235            XOR     DH,CS:[DI]
0736:4B89 206865            AND     [BX+SI+65],CH
0736:4B8C 6C                INSB
0736:4B8D 7020              JO      4BAF
0736:4B8F 7363              JAE     4BF4
0736:4B91 7265              JB      4BF8
0736:4B93 656E              GS:OUTSB
0736:4B95 0D0A61            OR      AX,610A
0736:4B98 7373              JAE     4C0D
0736:4B9A 65                SEG     GS (unused)
0736:4B9B 6D                INSW
0736:4B9C 626C65            BOUND   BP,[SI+65]
0736:4B9F 094120            OR      [BX+DI+20],AX
0736:4BA2 5B                POP     BX
0736:4BA3 61                POPA
0736:4BA4 64                SEG     FS (unused)
0736:4BA5 64                SEG     FS (unused)
0736:4BA6 7265              JB      4C0D
0736:4BA8 7373              JAE     4C1D
0736:4BAA 5D                POP     BP
0736:4BAB 0D0A63            OR      AX,630A
0736:4BAE 6F                OUTSW
0736:4BAF 6D                INSW
0736:4BB0 7061              JO      4C13
0736:4BB2 7265              JB      4C19
0736:4BB4 0909              OR      [BX+DI],CX
0736:4BB6 43                INC     BX
0736:4BB7 207261            AND     [BP+SI+61],DH
0736:4BBA 6E                OUTSB
0736:4BBB 6765206164        AND     GS:64[ECX],AH
0736:4BC0 64                SEG     FS (unused)
0736:4BC1 7265              JB      4C28
0736:4BC3 7373              JAE     4C38
0736:4BC5 0D0A64            OR      AX,640A
0736:4BC8 756D              JNZ     4C37
0736:4BCA 7009              JO      4BD5
0736:4BCC 094420            OR      [SI+20],AX
0736:4BCF 5B                POP     BX
0736:4BD0 7261              JB      4C33
0736:4BD2 6E                OUTSB
0736:4BD3 67                DB      67
0736:4BD4 65                SEG     GS (unused)
0736:4BD5 5D                POP     BP
0736:4BD6 0D0A64            OR      AX,640A
0736:4BD9 756D              JNZ     4C48
0736:4BDB 7020              JO      4BFD
0736:4BDD 4D                DEC     BP
0736:4BDE 43                INC     BX
0736:4BDF 42                INC     DX
0736:4BE0 206368            AND     [BP+DI+68],AH
0736:4BE3 61                POPA
0736:4BE4 696E09444D        IMUL    BP,[BP+09],4D44
0736:4BE9 0D0A65            OR      AX,650A
0736:4BEC 6E                OUTSB
0736:4BED 7465              JZ      4C54
0736:4BEF 7209              JB      4BFA
0736:4BF1 094520            OR      [DI+20],AX
0736:4BF4 61                POPA
0736:4BF5 64                SEG     FS (unused)
0736:4BF6 64                SEG     FS (unused)
0736:4BF7 7265              JB      4C5E
0736:4BF9 7373              JAE     4C6E
0736:4BFB 205B6C            AND     [BP+DI+6C],BL
0736:4BFE 6973745D0D        IMUL    SI,[BP+DI+74],0D5D
0736:4C03 0A6669            OR      AH,[BP+69]
0736:4C06 6C                INSB
0736:4C07 6C                INSB
0736:4C08 0909              OR      [BX+DI],CX
0736:4C0A 46                INC     SI
0736:4C0B 207261            AND     [BP+SI+61],DH
0736:4C0E 6E                OUTSB
0736:4C0F 6765206C6973      AND     GS:73[ECX][EBP*2],CH
0736:4C15 740D              JZ      4C24
0736:4C17 0A676F            OR      AH,[BX+6F]
0736:4C1A 0909              OR      [BX+DI],CX
0736:4C1C 47                INC     DI
0736:4C1D 205B3D            AND     [BP+DI+3D],BL
0736:4C20 61                POPA
0736:4C21 64                SEG     FS (unused)
0736:4C22 64                SEG     FS (unused)
0736:4C23 7265              JB      4C8A
0736:4C25 7373              JAE     4C9A
0736:4C27 5D                POP     BP
0736:4C28 205B62            AND     [BP+DI+62],BL
0736:4C2B 7265              JB      4C92
0736:4C2D 61                POPA
0736:4C2E 6B707473          IMUL    SI,[BX+SI+74],+73
0736:4C32 5D                POP     BP
0736:4C33 0D0A68            OR      AX,680A
0736:4C36 65                SEG     GS (unused)
0736:4C37 7820              JS      4C59
0736:4C39 61                POPA
0736:4C3A 64                SEG     FS (unused)
0736:4C3B 64                SEG     FS (unused)
0736:4C3C 2F                DAS
0736:4C3D 7375              JAE     4CB4
0736:4C3F 6209              BOUND   CX,[BX+DI]
0736:4C41 48                DEC     AX
0736:4C42 207661            AND     [BP+61],DH
0736:4C45 6C                INSB
0736:4C46 7565              JNZ     4CAD
0736:4C48 3120              XOR     [BX+SI],SP
0736:4C4A 7661              JBE     4CAD
0736:4C4C 6C                INSB
0736:4C4D 7565              JNZ     4CB4
0736:4C4F 320D              XOR     CL,[DI]
0736:4C51 0A696E            OR      CH,[BX+DI+6E]
0736:4C54 7075              JO      4CCB
0736:4C56 7409              JZ      4C61
0736:4C58 09495B            OR      [BX+DI+5B],CX
0736:4C5B 57                PUSH    DI
0736:4C5C 7C44              JL      4CA2
0736:4C5E 5D                POP     BP
0736:4C5F 20706F            AND     [BX+SI+6F],DH
0736:4C62 7274              JB      4CD8
0736:4C64 0D0A6C            OR      AX,6C0A
0736:4C67 6F                OUTSW
0736:4C68 61                POPA
0736:4C69 64207072          AND     FS:[BX+SI+72],DH
0736:4C6D 6F                OUTSW
0736:4C6E 67                DB      67
0736:4C6F 7261              JB      4CD2
0736:4C71 6D                INSW
0736:4C72 094C20            OR      [SI+20],CX
0736:4C75 5B                POP     BX
0736:4C76 61                POPA
0736:4C77 64                SEG     FS (unused)
0736:4C78 64                SEG     FS (unused)
0736:4C79 7265              JB      4CE0
0736:4C7B 7373              JAE     4CF0
0736:4C7D 5D                POP     BP
0736:4C7E 0D0A6C            OR      AX,6C0A
0736:4C81 6F                OUTSW
0736:4C82 61                POPA
0736:4C83 64207365          AND     FS:[BP+DI+65],DH
0736:4C87 63746F            ARPL    [SI+6F],SI
0736:4C8A 7273              JB      4CFF
0736:4C8C 094C20            OR      [SI+20],CX
0736:4C8F 61                POPA
0736:4C90 64                SEG     FS (unused)
0736:4C91 64                SEG     FS (unused)
0736:4C92 7265              JB      4CF9
0736:4C94 7373              JAE     4D09
0736:4C96 206472            AND     [SI+72],AH
0736:4C99 6976652073        IMUL    SI,[BP+65],7320
0736:4C9E 6563746F          ARPL    GS:[SI+6F],SI
0736:4CA2 7220              JB      4CC4
0736:4CA4 636F75            ARPL    [BX+75],BP
0736:4CA7 6E                OUTSB
0736:4CA8 740D              JZ      4CB7
0736:4CAA 0A6D6F            OR      CH,[DI+6F]
0736:4CAD 7665              JBE     4D14
0736:4CAF 0909              OR      [BX+DI],CX
0736:4CB1 4D                DEC     BP
0736:4CB2 207261            AND     [BP+SI+61],DH
0736:4CB5 6E                OUTSB
0736:4CB6 6765206164        AND     GS:64[ECX],AH
0736:4CBB 64                SEG     FS (unused)
0736:4CBC 7265              JB      4D23
0736:4CBE 7373              JAE     4D33
0736:4CC0 0D0A38            OR      AX,380A
0736:4CC3 307838            XOR     [BX+SI+38],BH
0736:4CC6 36206D6F          AND     SS:[DI+6F],CH
0736:4CCA 64                SEG     FS (unused)
0736:4CCB 65094D20          OR      GS:[DI+20],CX
0736:4CCF 5B                POP     BX
0736:4CD0 785D              JS      4D2F
0736:4CD2 2028              AND     [BX+SI],CH
0736:4CD4 783D              JS      4D13
0736:4CD6 302E2E36          XOR     [362E],CH
0736:4CDA 290D              SUB     [DI],CX
0736:4CDC 0A7365            OR      DH,[BP+DI+65]
0736:4CDF 7420              JZ      4D01
0736:4CE1 46                INC     SI
0736:4CE2 50                PUSH    AX
0736:4CE3 55                PUSH    BP
0736:4CE4 206D6F            AND     [DI+6F],CH
0736:4CE7 64                SEG     FS (unused)
0736:4CE8 65094D43          OR      GS:[DI+43],CX
0736:4CEC 205B32            AND     [BP+DI+32],BL
0736:4CEF 7C4E              JL      4D3F
0736:4CF1 5D                POP     BP
0736:4CF2 2028              AND     [BX+SI],CH
0736:4CF4 323D              XOR     BH,[DI]
0736:4CF6 3238              XOR     BH,[BX+SI]
0736:4CF8 37                AAA
0736:4CF9 2C4E              SUB     AL,4E
0736:4CFB 3D6E6F            CMP     AX,6F6E
0736:4CFE 204650            AND     [BP+50],AL
0736:4D01 55                PUSH    BP
0736:4D02 290D              SUB     [DI],CX
0736:4D04 0A7365            OR      DH,[BP+DI+65]
0736:4D07 7420              JZ      4D29
0736:4D09 6E                OUTSB
0736:4D0A 61                POPA
0736:4D0B 6D                INSW
0736:4D0C 65094E20          OR      GS:[BP+20],CX
0736:4D10 5B                POP     BX
0736:4D11 5B                POP     BX
0736:4D12 64                SEG     FS (unused)
0736:4D13 7269              JB      4D7E
0736:4D15 7665              JBE     4D7C
0736:4D17 3A5D5B            CMP     BL,[DI+5B]
0736:4D1A 7061              JO      4D7D
0736:4D1C 7468              JZ      4D86
0736:4D1E 5D                POP     BP
0736:4D1F 7072              JO      4D93
0736:4D21 6F                OUTSW
0736:4D22 67                DB      67
0736:4D23 6E                OUTSB
0736:4D24 61                POPA
0736:4D25 6D                INSW
0736:4D26 65205B61          AND     GS:[BP+DI+61],BL
0736:4D2A 7267              JB      4D93
0736:4D2C 6C                INSB
0736:4D2D 6973745D5D        IMUL    SI,[BP+DI+74],5D5D
0736:4D32 0D0A6F            OR      AX,6F0A
0736:4D35 7574              JNZ     4DAB
0736:4D37 7075              JO      4DAE
0736:4D39 7409              JZ      4D44
0736:4D3B 094F5B            OR      [BX+5B],CX
0736:4D3E 57                PUSH    DI
0736:4D3F 7C44              JL      4D85
0736:4D41 5D                POP     BP
0736:4D42 20706F            AND     [BX+SI+6F],DH
0736:4D45 7274              JB      4DBB
0736:4D47 207661            AND     [BP+61],DH
0736:4D4A 6C                INSB
0736:4D4B 7565              JNZ     4DB2
0736:4D4D 0D0A70            OR      AX,700A
0736:4D50 726F              JB      4DC1
0736:4D52 636565            ARPL    [DI+65],SP
0736:4D55 640909            OR      FS:[BX+DI],CX
0736:4D58 50                PUSH    AX
0736:4D59 205B3D            AND     [BP+DI+3D],BL
0736:4D5C 61                POPA
0736:4D5D 64                SEG     FS (unused)
0736:4D5E 64                SEG     FS (unused)
0736:4D5F 7265              JB      4DC6
0736:4D61 7373              JAE     4DD6
0736:4D63 5D                POP     BP
0736:4D64 205B63            AND     [BP+DI+63],BL
0736:4D67 6F                OUTSW
0736:4D68 756E              JNZ     4DD8
0736:4D6A 745D              JZ      4DC9
0736:4D6C 0D0A71            OR      AX,710A
0736:4D6F 7569              JNZ     4DDA
0736:4D71 7409              JZ      4D7C
0736:4D73 09510D            OR      [BX+DI+0D],DX
0736:4D76 0A7265            OR      DH,[BP+SI+65]
0736:4D79 676973746572      IMUL    SI,74[EBX],7265
0736:4D7F 095220            OR      [BP+SI+20],DX
0736:4D82 5B                POP     BX
0736:4D83 7265              JB      4DEA
0736:4D85 676973746572      IMUL    SI,74[EBX],7265
0736:4D8B 205B76            AND     [BP+DI+76],BL
0736:4D8E 61                POPA
0736:4D8F 6C                INSB
0736:4D90 7565              JNZ     4DF7
0736:4D92 5D                POP     BP
0736:4D93 5D                POP     BP
0736:4D94 0D0A46            OR      AX,460A
0736:4D97 50                PUSH    AX
0736:4D98 55                PUSH    BP
0736:4D99 207265            AND     [BP+SI+65],DH
0736:4D9C 676973746572      IMUL    SI,74[EBX],7265
0736:4DA2 09524E            OR      [BP+SI+4E],DX
0736:4DA5 0D0A74            OR      AX,740A
0736:4DA8 6F                OUTSW
0736:4DA9 67676C            INSB
0736:4DAC 652033            AND     GS:[BP+DI],DH
0736:4DAF 38362072          CMP     [7220],DH
0736:4DB3 65                SEG     GS (unused)
0736:4DB4 67                DB      67
0736:4DB5 7309              JAE     4DC0
0736:4DB7 52                PUSH    DX
0736:4DB8 58                POP     AX
0736:4DB9 0D0A73            OR      AX,730A
0736:4DBC 65                SEG     GS (unused)
0736:4DBD 61                POPA
0736:4DBE 7263              JB      4E23
0736:4DC0 680909            PUSH    WORD 0909
0736:4DC3 53                PUSH    BX
0736:4DC4 207261            AND     [BP+SI+61],DH
0736:4DC7 6E                OUTSB
0736:4DC8 6765206C6973      AND     GS:73[ECX][EBP*2],CH
0736:4DCE 740D              JZ      4DDD
0736:4DD0 0A7472            OR      DH,[SI+72]
0736:4DD3 61                POPA
0736:4DD4 636509            ARPL    [DI+09],SP
0736:4DD7 095420            OR      [SI+20],DX
0736:4DDA 5B                POP     BX
0736:4DDB 3D6164            CMP     AX,6461
0736:4DDE 64                SEG     FS (unused)
0736:4DDF 7265              JB      4E46
0736:4DE1 7373              JAE     4E56
0736:4DE3 5D                POP     BP
0736:4DE4 205B63            AND     [BP+DI+63],BL
0736:4DE7 6F                OUTSW
0736:4DE8 756E              JNZ     4E58
0736:4DEA 745D              JZ      4E49
0736:4DEC 0D0A74            OR      AX,740A
0736:4DEF 7261              JB      4E52
0736:4DF1 636520            ARPL    [DI+20],SP
0736:4DF4 6D                INSW
0736:4DF5 6F                OUTSW
0736:4DF6 64                SEG     FS (unused)
0736:4DF7 6509544D          OR      GS:[SI+4D],DX
0736:4DFB 205B30            AND     [BP+DI+30],BL
0736:4DFE 7C31              JL      4E31
0736:4E00 5D                POP     BP
0736:4E01 0D0A75            OR      AX,750A
0736:4E04 6E                OUTSB
0736:4E05 61                POPA
0736:4E06 7373              JAE     4E7B
0736:4E08 65                SEG     GS (unused)
0736:4E09 6D                INSW
0736:4E0A 626C65            BOUND   BP,[SI+65]
0736:4E0D 095520            OR      [DI+20],DX
0736:4E10 5B                POP     BX
0736:4E11 7261              JB      4E74
0736:4E13 6E                OUTSB
0736:4E14 67                DB      67
0736:4E15 65                SEG     GS (unused)
0736:4E16 5D                POP     BP
0736:4E17 0D0A77            OR      AX,770A
0736:4E1A 7269              JB      4E85
0736:4E1C 7465              JZ      4E83
0736:4E1E 207072            AND     [BX+SI+72],DH
0736:4E21 6F                OUTSW
0736:4E22 67                DB      67
0736:4E23 7261              JB      4E86
0736:4E25 6D                INSW
0736:4E26 095720            OR      [BX+20],DX
0736:4E29 5B                POP     BX
0736:4E2A 61                POPA
0736:4E2B 64                SEG     FS (unused)
0736:4E2C 64                SEG     FS (unused)
0736:4E2D 7265              JB      4E94
0736:4E2F 7373              JAE     4EA4
0736:4E31 5D                POP     BP
0736:4E32 0D0A77            OR      AX,770A
0736:4E35 7269              JB      4EA0
0736:4E37 7465              JZ      4E9E
0736:4E39 207365            AND     [BP+DI+65],DH
0736:4E3C 63746F            ARPL    [SI+6F],SI
0736:4E3F 7273              JB      4EB4
0736:4E41 095720            OR      [BX+20],DX
0736:4E44 61                POPA
0736:4E45 64                SEG     FS (unused)
0736:4E46 64                SEG     FS (unused)
0736:4E47 7265              JB      4EAE
0736:4E49 7373              JAE     4EBE
0736:4E4B 206472            AND     [SI+72],AH
0736:4E4E 6976652073        IMUL    SI,[BP+65],7320
0736:4E53 6563746F          ARPL    GS:[SI+6F],SI
0736:4E57 7220              JB      4E79
0736:4E59 636F75            ARPL    [BX+75],BP
0736:4E5C 6E                OUTSB
0736:4E5D 740D              JZ      4E6C
0736:4E5F 0A6578            OR      AH,[DI+78]
0736:4E62 7061              JO      4EC5
0736:4E64 6E                OUTSB
0736:4E65 64                SEG     FS (unused)
0736:4E66 65                SEG     GS (unused)
0736:4E67 64206D65          AND     FS:[DI+65],CH
0736:4E6B 6D                INSW
0736:4E6C 095841            OR      [BX+SI+41],BX
0736:4E6F 2F                DAS
0736:4E70 58                POP     AX
0736:4E71 44                INC     SP
0736:4E72 2F                DAS
0736:4E73 58                POP     AX
0736:4E74 4D                DEC     BP
0736:4E75 2F                DAS
0736:4E76 58                POP     AX
0736:4E77 52                PUSH    DX
0736:4E78 2F                DAS
0736:4E79 58                POP     AX
0736:4E7A 53                PUSH    BX
0736:4E7B 2C58              SUB     AL,58
0736:4E7D 3F                AAS
0736:4E7E 20666F            AND     [BP+6F],AH
0736:4E81 7220              JB      4EA3
0736:4E83 68656C            PUSH    WORD 6C65
0736:4E86 700D              JO      4E95
0736:4E88 0A24              OR      AH,[SI]
0736:4E8A 5B                POP     BX
0736:4E8B 6D                INSW
0736:4E8C 6F                OUTSW
0736:4E8D 7265              JB      4EF4
0736:4E8F 5D                POP     BP
0736:4E90 5E                POP     SI
0736:4E91 204572            AND     [DI+72],AL
0736:4E94 726F              JB      4F05
0736:4E96 7257              JB      4EEF
0736:4E98 7269              JB      4F03
0736:4E9A 7465              JZ      4F01
0736:4E9C 207072            AND     [BX+SI+72],DH
0736:4E9F 6F                OUTSW
0736:4EA0 7465              JZ      4F07
0736:4EA2 637420            ARPL    [SI+20],SI
0736:4EA5 65                SEG     GS (unused)
0736:4EA6 7272              JB      4F1A
0736:4EA8 6F                OUTSW
0736:4EA9 7200              JB      4EAB
0736:4EAB 55                PUSH    BP
0736:4EAC 6E                OUTSB
0736:4EAD 6B6E6F77          IMUL    BP,[BP+6F],+77
0736:4EB1 6E                OUTSB
0736:4EB2 20756E            AND     [DI+6E],DH
0736:4EB5 6974206572        IMUL    SI,[SI+20],7265
0736:4EBA 726F              JB      4F2B
0736:4EBC 7200              JB      4EBE
0736:4EBE 44                INC     SP
0736:4EBF 7269              JB      4F2A
0736:4EC1 7665              JBE     4F28
0736:4EC3 206E6F            AND     [BP+6F],CH
0736:4EC6 7420              JZ      4EE8
0736:4EC8 7265              JB      4F2F
0736:4ECA 61                POPA
0736:4ECB 64                SEG     FS (unused)
0736:4ECC 7900              JNS     4ECE
0736:4ECE 55                PUSH    BP
0736:4ECF 6E                OUTSB
0736:4ED0 6B6E6F77          IMUL    BP,[BP+6F],+77
0736:4ED4 6E                OUTSB
0736:4ED5 20636F            AND     [BP+DI+6F],AH
0736:4ED8 6D                INSW
0736:4ED9 6D                INSW
0736:4EDA 61                POPA
0736:4EDB 6E                OUTSB
0736:4EDC 64004461          ADD     FS:[SI+61],AL
0736:4EE0 7461              JZ      4F43
0736:4EE2 206572            AND     [DI+72],AH
0736:4EE5 726F              JB      4F56
0736:4EE7 7220              JB      4F09
0736:4EE9 284352            SUB     [BP+DI+52],AL
0736:4EEC 43                INC     BX
0736:4EED 2900              SUB     [BX+SI],AX
0736:4EEF 53                PUSH    BX
0736:4EF0 65                SEG     GS (unused)
0736:4EF1 656B2065          IMUL    SP,GS:[BX+SI],+65
0736:4EF5 7272              JB      4F69
0736:4EF7 6F                OUTSW
0736:4EF8 7200              JB      4EFA
0736:4EFA 55                PUSH    BP
0736:4EFB 6E                OUTSB
0736:4EFC 6B6E6F77          IMUL    BP,[BP+6F],+77
0736:4F00 6E                OUTSB
0736:4F01 206D65            AND     [DI+65],CH
0736:4F04 646961207479      IMUL    SP,FS:[BX+DI+20],7974
0736:4F0A 7065              JO      4F71
0736:4F0C 005365            ADD     [BP+DI+65],DL
0736:4F0F 63746F            ARPL    [SI+6F],SI
0736:4F12 7220              JB      4F34
0736:4F14 6E                OUTSB
0736:4F15 6F                OUTSW
0736:4F16 7420              JZ      4F38
0736:4F18 666F              OUTSD
0736:4F1A 756E              JNZ     4F8A
0736:4F1C 6400556E          ADD     FS:[DI+6E],DL
0736:4F20 6B6E6F77          IMUL    BP,[BP+6F],+77
0736:4F24 6E                OUTSB
0736:4F25 206572            AND     [DI+72],AH
0736:4F28 726F              JB      4F99
0736:4F2A 7200              JB      4F2C
0736:4F2C 57                PUSH    DI
0736:4F2D 7269              JB      4F98
0736:4F2F 7465              JZ      4F96
0736:4F31 206661            AND     [BP+61],AH
0736:4F34 756C              JNZ     4FA2
0736:4F36 7400              JZ      4F38
0736:4F38 52                PUSH    DX
0736:4F39 65                SEG     GS (unused)
0736:4F3A 61                POPA
0736:4F3B 64206661          AND     FS:[BP+61],AH
0736:4F3F 756C              JNZ     4FAD
0736:4F41 7400              JZ      4F43
0736:4F43 47                INC     DI
0736:4F44 656E              GS:OUTSB
0736:4F46 65                SEG     GS (unused)
0736:4F47 7261              JB      4FAA
0736:4F49 6C                INSB
0736:4F4A 206661            AND     [BP+61],AH
0736:4F4D 696C757265        IMUL    BP,[SI+75],6572
0736:4F52 0000              ADD     [BX+SI],AL
0736:4F54 1427              ADC     AL,27
0736:4F56 37                AAA
0736:4F57 47                INC     DI
0736:4F58 875863            XCHG    BX,[BX+SI+63]
0736:4F5B 7687              JBE     4EE4
0736:4F5D 95                XCHG    AX,BP
0736:4F5E A1AC20            MOV     AX,[20AC]
0736:4F61 7265              JB      4FC8
0736:4F63 61                POPA
0736:4F64 640020            ADD     FS:[BX+SI],AH
0736:4F67 7772              JA      4FDB
0736:4F69 697400696E        IMUL    SI,[SI+00],6E69
0736:4F6E 6720647269        AND     69[EDX][ESI*2],AH
0736:4F73 7665              JBE     4FDA
0736:4F75 2000              AND     [BX+SI],AL
0736:4F77 3830              CMP     [BX+SI],DH
0736:4F79 38362F38          CMP     [382F],DH
0736:4F7D 3800              CMP     [BX+SI],AL
0736:4F7F 7838              JS      4FB9
0736:4F81 360020            ADD     SS:[BX+SI],AH
0736:4F84 7769              JA      4FEF
0736:4F86 7468              JZ      4FF0
0736:4F88 6F                OUTSW
0736:4F89 7574              JNZ     4FFF
0736:4F8B 20636F            AND     [BP+DI+6F],AH
0736:4F8E 7072              JO      5002
0736:4F90 6F                OUTSW
0736:4F91 636573            ARPL    [DI+73],SP
0736:4F94 736F              JAE     5005
0736:4F96 7200              JB      4F98
0736:4F98 207769            AND     [BX+69],DH
0736:4F9B 7468              JZ      5005
0736:4F9D 20636F            AND     [BP+DI+6F],AH
0736:4FA0 7072              JO      5014
0736:4FA2 6F                OUTSW
0736:4FA3 636573            ARPL    [DI+73],SP
0736:4FA6 736F              JAE     5017
0736:4FA8 7200              JB      4FAA
0736:4FAA 207769            AND     [BX+69],DH
0736:4FAD 7468              JZ      5017
0736:4FAF 2032              AND     [BP+SI],DH
0736:4FB1 3837              CMP     [BX],DH
0736:4FB3 0033              ADD     [BP+DI],DH
0736:4FB5 38362072          CMP     [7220],DH
0736:4FB9 65                SEG     GS (unused)
0736:4FBA 67                DB      67
0736:4FBB 7320              JAE     4FDD
0736:4FBD 6F                OUTSW
0736:4FBE 007472            ADD     [SI+72],DH
0736:4FC1 61                POPA
0736:4FC2 636520            ARPL    [DI+20],SP
0736:4FC5 6D                INSW
0736:4FC6 6F                OUTSW
0736:4FC7 64                SEG     FS (unused)
0736:4FC8 65206973          AND     GS:[BX+DI+73],CH
0736:4FCC 2000              AND     [BX+SI],AL
0736:4FCE 202D              AND     [DI],CH
0736:4FD0 20494E            AND     [BX+DI+4E],CL
0736:4FD3 54                PUSH    SP
0736:4FD4 7320              JAE     4FF6
0736:4FD6 61                POPA
0736:4FD7 7265              JB      503E
0736:4FD9 2000              AND     [BX+SI],AL
0736:4FDB 7472              JZ      504F
0736:4FDD 61                POPA
0736:4FDE 636564            ARPL    [DI+64],SP
0736:4FE1 007072            ADD     [BX+SI+72],DH
0736:4FE4 6F                OUTSW
0736:4FE5 636573            ARPL    [DI+73],SP
0736:4FE8 7365              JAE     504F
0736:4FEA 640020            ADD     FS:[BX+SI],AH
0736:4FED 28756E            SUB     [DI+6E],DH
0736:4FF0 7573              JNZ     5065
0736:4FF2 65                SEG     GS (unused)
0736:4FF3 642900            SUB     FS:[BX+SI],AX
0736:4FF6 5B                POP     BX
0736:4FF7 6E                OUTSB
0736:4FF8 65                SEG     GS (unused)
0736:4FF9 65                SEG     GS (unused)
0736:4FFA 64                SEG     FS (unused)
0736:4FFB 7320              JAE     501D
0736:4FFD 7838              JS      5037
0736:4FFF 36                SEG     SS (unused)
0736:5000 5D                POP     BP
0736:5001 5B                POP     BX
0736:5002 6E                OUTSB
0736:5003 65                SEG     GS (unused)
0736:5004 65                SEG     GS (unused)
0736:5005 64                SEG     FS (unused)
0736:5006 7320              JAE     5028
0736:5008 6D                INSW
0736:5009 61                POPA
0736:500A 7468              JZ      5074
0736:500C 20636F            AND     [BP+DI+6F],AH
0736:500F 7072              JO      5083
0736:5011 6F                OUTSW
0736:5012 636573            ARPL    [DI+73],SP
0736:5015 736F              JAE     5086
0736:5017 725D              JB      5076
0736:5019 5B                POP     BX
0736:501A 6F                OUTSW
0736:501B 62736F            BOUND   SI,[BP+DI+6F]
0736:501E 6C                INSB
0736:501F 65                SEG     GS (unused)
0736:5020 7465              JZ      5087
0736:5022 5D                POP     BP
0736:5023 44                INC     SP
0736:5024 6976696465        IMUL    SI,[BP+69],6564
0736:5029 206572            AND     [DI+72],AH
0736:502C 726F              JB      509D
0736:502E 720D              JB      503D
0736:5030 0A24              OR      AH,[SI]
0736:5032 55                PUSH    BP
0736:5033 6E                OUTSB
0736:5034 65                SEG     GS (unused)
0736:5035 7870              JS      50A7
0736:5037 65637465          ARPL    GS:[SI+65],SI
0736:503B 64207369          AND     FS:[BP+DI+69],DH
0736:503F 6E                OUTSB
0736:5040 67                DB      67
0736:5041 6C                INSB
0736:5042 65                SEG     GS (unused)
0736:5043 2D7374            SUB     AX,7473
0736:5046 65                SEG     GS (unused)
0736:5047 7020              JO      5069
0736:5049 696E746572        IMUL    BP,[BP+74],7265
0736:504E 7275              JB      50C5
0736:5050 7074              JO      50C6
0736:5052 0D0A24            OR      AX,240A
0736:5055 55                PUSH    BP
0736:5056 6E                OUTSB
0736:5057 65                SEG     GS (unused)
0736:5058 7870              JS      50CA
0736:505A 65637465          ARPL    GS:[SI+65],SI
0736:505E 64206272          AND     FS:[BP+SI+72],AH
0736:5062 65                SEG     GS (unused)
0736:5063 61                POPA
0736:5064 6B706F69          IMUL    SI,[BX+SI+6F],+69
0736:5068 6E                OUTSB
0736:5069 7420              JZ      508B
0736:506B 696E746572        IMUL    BP,[BP+74],7265
0736:5070 7275              JB      50E7
0736:5072 7074              JO      50E8
0736:5074 0D0A24            OR      AX,240A
0736:5077 43                INC     BX
0736:5078 61                POPA
0736:5079 6E                OUTSB
0736:507A 27                DAA
0736:507B 7420              JZ      509D
0736:507D 7772              JA      50F1
0736:507F 6974652062        IMUL    SI,[SI+65],6220
0736:5084 7265              JB      50EB
0736:5086 61                POPA
0736:5087 6B706F69          IMUL    SI,[BX+SI+6F],+69
0736:508B 6E                OUTSB
0736:508C 7400              JZ      508E
0736:508E 0D0A50            OR      AX,500A
0736:5091 726F              JB      5102
0736:5093 67                DB      67
0736:5094 7261              JB      50F7
0736:5096 6D                INSW
0736:5097 207465            AND     [SI+65],DH
0736:509A 726D              JB      5109
0736:509C 696E617465        IMUL    BP,[BP+61],6574
0736:50A1 64206E6F          AND     FS:[BP+6F],CH
0736:50A5 726D              JB      5114
0736:50A7 61                POPA
0736:50A8 6C                INSB
0736:50A9 6C                INSB
0736:50AA 7920              JNS     50CC
0736:50AC 285F5F            SUB     [BX+5F],BL
0736:50AF 5F                POP     DI
0736:50B0 5F                POP     DI
0736:50B1 290D              SUB     [DI],CX
0736:50B3 0A24              OR      AH,[SI]
0736:50B5 45                INC     BP
0736:50B6 58                POP     AX
0736:50B7 45                INC     BP
0736:50B8 20616E            AND     [BX+DI+6E],AH
0736:50BB 64204845          AND     FS:[BX+SI+45],CL
0736:50BF 58                POP     AX
0736:50C0 206669            AND     [BP+69],AH
0736:50C3 6C                INSB
0736:50C4 65                SEG     GS (unused)
0736:50C5 7320              JAE     50E7
0736:50C7 63616E            ARPL    [BX+DI+6E],SP
0736:50CA 6E                OUTSB
0736:50CB 6F                OUTSW
0736:50CC 7420              JZ      50EE
0736:50CE 626520            BOUND   SP,[DI+20]
0736:50D1 7772              JA      5145
0736:50D3 697474656E        IMUL    SI,[SI+74],6E65
0736:50D8 0D0A24            OR      AX,240A
0736:50DB 43                INC     BX
0736:50DC 61                POPA
0736:50DD 6E                OUTSB
0736:50DE 6E                OUTSB
0736:50DF 6F                OUTSW
0736:50E0 7420              JZ      5102
0736:50E2 7772              JA      5156
0736:50E4 6974653A20        IMUL    SI,[SI+65],203A
0736:50E9 6E                OUTSB
0736:50EA 6F                OUTSW
0736:50EB 206669            AND     [BP+69],AH
0736:50EE 6C                INSB
0736:50EF 65206E61          AND     GS:[BP+61],CH
0736:50F3 6D                INSW
0736:50F4 65206769          AND     GS:[BX+69],AH
0736:50F8 7665              JBE     515F
0736:50FA 6E                OUTSB
0736:50FB 0D0A24            OR      AX,240A
0736:50FE 57                PUSH    DI
0736:50FF 7269              JB      516A
0736:5101 7469              JZ      516C
0736:5103 6E                OUTSB
0736:5104 67                DB      67
0736:5105 2024              AND     [SI],AH
0736:5107 206279            AND     [BP+SI+79],AH
0736:510A 7465              JZ      5171
0736:510C 730D              JAE     511B
0736:510E 0A24              OR      AH,[SI]
0736:5110 44                INC     SP
0736:5111 69736B2066        IMUL    SI,[BP+DI+6B],6620
0736:5116 756C              JNZ     5184
0736:5118 6C                INSB
0736:5119 0D0A24            OR      AX,240A
0736:511C 45                INC     BP
0736:511D 7272              JB      5191
0736:511F 6F                OUTSW
0736:5120 7220              JB      5142
0736:5122 5F                POP     DI
0736:5123 5F                POP     DI
0736:5124 5F                POP     DI
0736:5125 5F                POP     DI
0736:5126 206F70            AND     [BX+70],CH
0736:5129 656E              GS:OUTSB
0736:512B 696E672066        IMUL    BP,[BP+67],6620
0736:5130 696C650D0A        IMUL    BP,[SI+65],0A0D
0736:5135 2446              AND     AL,46
0736:5137 696C65206E        IMUL    BP,[SI+65],6E20
0736:513C 6F                OUTSW
0736:513D 7420              JZ      515F
0736:513F 666F              OUTSD
0736:5141 756E              JNZ     51B1
0736:5143 64                SEG     FS (unused)
0736:5144 0D0A24            OR      AX,240A
0736:5147 50                PUSH    AX
0736:5148 61                POPA
0736:5149 7468              JZ      51B3
0736:514B 206E6F            AND     [BP+6F],CH
0736:514E 7420              JZ      5170
0736:5150 666F              OUTSD
0736:5152 756E              JNZ     51C2
0736:5154 64                SEG     FS (unused)
0736:5155 0D0A24            OR      AX,240A
0736:5158 41                INC     CX
0736:5159 636365            ARPL    [BP+DI+65],SP
0736:515C 7373              JAE     51D1
0736:515E 206465            AND     [SI+65],AH
0736:5161 6E                OUTSB
0736:5162 6965640D0A        IMUL    SP,[DI+64],0A0D
0736:5167 2449              AND     AL,49
0736:5169 6E                OUTSB
0736:516A 7375              JAE     51E1
0736:516C 6666696369656E    IMUL    SP,[BP+DI+69],6E65
0736:5173 7420              JZ      5195
0736:5175 6D                INSW
0736:5176 65                SEG     GS (unused)
0736:5177 6D                INSW
0736:5178 6F                OUTSW
0736:5179 7279              JB      51F4
0736:517B 0D0A24            OR      AX,240A
0736:517E 45                INC     BP
0736:517F 4D                DEC     BP
0736:5180 53                PUSH    BX
0736:5181 206E6F            AND     [BP+6F],CH
0736:5184 7420              JZ      51A6
0736:5186 696E737461        IMUL    BP,[BP+73],6174
0736:518B 6C                INSB
0736:518C 6C                INSB
0736:518D 65                SEG     GS (unused)
0736:518E 6400454D          ADD     FS:[DI+4D],AL
0736:5192 53                PUSH    BX
0736:5193 20696E            AND     [BX+DI+6E],CH
0736:5196 7465              JZ      51FD
0736:5198 726E              JB      5208
0736:519A 61                POPA
0736:519B 6C                INSB
0736:519C 206572            AND     [DI+72],AH
0736:519F 726F              JB      5210
0736:51A1 7200              JB      51A3
0736:51A3 48                DEC     AX
0736:51A4 61                POPA
0736:51A5 6E                OUTSB
0736:51A6 64                SEG     FS (unused)
0736:51A7 6C                INSB
0736:51A8 65206E6F          AND     GS:[BP+6F],CH
0736:51AC 7420              JZ      51CE
0736:51AE 666F              OUTSD
0736:51B0 756E              JNZ     5220
0736:51B2 64004E6F          ADD     FS:[BP+6F],CL
0736:51B6 206672            AND     [BP+72],AH
0736:51B9 65                SEG     GS (unused)
0736:51BA 65206861          AND     GS:[BX+SI+61],CH
0736:51BE 6E                OUTSB
0736:51BF 64                SEG     FS (unused)
0736:51C0 6C                INSB
0736:51C1 65                SEG     GS (unused)
0736:51C2 7300              JAE     51C4
0736:51C4 54                PUSH    SP
0736:51C5 6F                OUTSW
0736:51C6 7461              JZ      5229
0736:51C8 6C                INSB
0736:51C9 207061            AND     [BX+SI+61],DH
0736:51CC 67                DB      67
0736:51CD 65                SEG     GS (unused)
0736:51CE 7320              JAE     51F0
0736:51D0 65                SEG     GS (unused)
0736:51D1 7863              JS      5236
0736:51D3 65                SEG     GS (unused)
0736:51D4 65                SEG     GS (unused)
0736:51D5 64                SEG     FS (unused)
0736:51D6 65                SEG     GS (unused)
0736:51D7 64004672          ADD     FS:[BP+72],AL
0736:51DB 65                SEG     GS (unused)
0736:51DC 65207061          AND     GS:[BX+SI+61],DH
0736:51E0 67                DB      67
0736:51E1 65                SEG     GS (unused)
0736:51E2 7320              JAE     5204
0736:51E4 65                SEG     GS (unused)
0736:51E5 7863              JS      524A
0736:51E7 65                SEG     GS (unused)
0736:51E8 65                SEG     GS (unused)
0736:51E9 64                SEG     FS (unused)
0736:51EA 65                SEG     GS (unused)
0736:51EB 64005061          ADD     FS:[BX+SI+61],DL
0736:51EF 7261              JB      5252
0736:51F1 6D                INSW
0736:51F2 65                SEG     GS (unused)
0736:51F3 7465              JZ      525A
0736:51F5 7220              JB      5217
0736:51F7 65                SEG     GS (unused)
0736:51F8 7272              JB      526C
0736:51FA 6F                OUTSW
0736:51FB 7200              JB      51FD
0736:51FD 4C                DEC     SP
0736:51FE 6F                OUTSW
0736:51FF 676963616C20      IMUL    SP,61[EBX],206C
0736:5205 7061              JO      5268
0736:5207 6765206F75        AND     GS:75[EDI],CH
0736:520C 7420              JZ      522E
0736:520E 6F                OUTSW
0736:520F 66                DB      66
0736:5210 207261            AND     [BP+SI+61],DH
0736:5213 6E                OUTSB
0736:5214 6765005068        ADD     GS:68[EAX],DL
0736:5219 7973              JNS     528E
0736:521B 6963616C20        IMUL    SP,[BP+DI+61],206C
0736:5220 7061              JO      5283
0736:5222 6765206F75        AND     GS:75[EDI],CH
0736:5227 7420              JZ      5249
0736:5229 6F                OUTSW
0736:522A 66                DB      66
0736:522B 207261            AND     [BP+SI+61],DH
0736:522E 6E                OUTSB
0736:522F 676500454D        ADD     GS:4D[EBP],AL
0736:5234 53                PUSH    BX
0736:5235 206572            AND     [DI+72],AH
0736:5238 726F              JB      52A9
0736:523A 7220              JB      525C
0736:523C 5F                POP     DI
0736:523D 5F                POP     DI
0736:523E 00EE              ADD     DH,CH
0736:5240 34EE              XOR     AL,EE
0736:5242 3400              XOR     AL,00
0736:5244 0001              ADD     [BX+DI],AL
0736:5246 350000            XOR     AX,0000
0736:5249 1235              ADC     DH,[DI]
0736:524B 0000              ADD     [BX+SI],AL
0736:524D 2235              AND     DH,[DI]
0736:524F 37                AAA
0736:5250 354B35            XOR     AX,354B
0736:5253 5B                POP     BX
0736:5254 357535            XOR     AX,3575
0736:5257 45                INC     BP
0736:5258 7870              JS      52CA
0736:525A 61                POPA
0736:525B 6E                OUTSB
0736:525C 64                SEG     FS (unused)
0736:525D 65                SEG     GS (unused)
0736:525E 64206D65          AND     FS:[DI+65],CH
0736:5262 6D                INSW
0736:5263 6F                OUTSW
0736:5264 7279              JB      52DF
0736:5266 2028              AND     [BX+SI],CH
0736:5268 45                INC     BP
0736:5269 4D                DEC     BP
0736:526A 53                PUSH    BX
0736:526B 2920              SUB     [BX+SI],SP
0736:526D 636F6D            ARPL    [BX+6D],BP
0736:5270 6D                INSW
0736:5271 61                POPA
0736:5272 6E                OUTSB
0736:5273 64                SEG     FS (unused)
0736:5274 733A              JAE     52B0
0736:5276 0D0A20            OR      AX,200A
0736:5279 20416C            AND     [BX+DI+6C],AL
0736:527C 6C                INSB
0736:527D 6F                OUTSW
0736:527E 636174            ARPL    [BX+DI+74],SP
0736:5281 65095841          OR      GS:[BX+SI+41],BX
0736:5285 20636F            AND     [BP+DI+6F],AH
0736:5288 756E              JNZ     52F8
0736:528A 740D              JZ      5299
0736:528C 0A20              OR      AH,[BX+SI]
0736:528E 204465            AND     [SI+65],AL
0736:5291 61                POPA
0736:5292 6C                INSB
0736:5293 6C                INSB
0736:5294 6F                OUTSW
0736:5295 636174            ARPL    [BX+DI+74],SP
0736:5298 65095844          OR      GS:[BX+SI+44],BX
0736:529C 206861            AND     [BX+SI+61],CH
0736:529F 6E                OUTSB
0736:52A0 64                SEG     FS (unused)
0736:52A1 6C                INSB
0736:52A2 65                SEG     GS (unused)
0736:52A3 0D0A20            OR      AX,200A
0736:52A6 204D61            AND     [DI+61],CL
0736:52A9 7020              JO      52CB
0736:52AB 6D                INSW
0736:52AC 65                SEG     GS (unused)
0736:52AD 6D                INSW
0736:52AE 6F                OUTSW
0736:52AF 7279              JB      532A
0736:52B1 09584D            OR      [BX+SI+4D],BX
0736:52B4 206C6F            AND     [SI+6F],CH
0736:52B7 676963616C2D      IMUL    SP,61[EBX],2D6C
0736:52BD 7061              JO      5320
0736:52BF 6765207068        AND     GS:68[EAX],DH
0736:52C4 7973              JNS     5339
0736:52C6 6963616C2D        IMUL    SP,[BP+DI+61],2D6C
0736:52CB 7061              JO      532E
0736:52CD 6765206861        AND     GS:61[EAX],CH
0736:52D2 6E                OUTSB
0736:52D3 64                SEG     FS (unused)
0736:52D4 6C                INSB
0736:52D5 65                SEG     GS (unused)
0736:52D6 0D0A20            OR      AX,200A
0736:52D9 205265            AND     [BP+SI+65],DL
0736:52DC 61                POPA
0736:52DD 6C                INSB
0736:52DE 6C                INSB
0736:52DF 6F                OUTSW
0736:52E0 636174            ARPL    [BX+DI+74],SP
0736:52E3 65095852          OR      GS:[BX+SI+52],BX
0736:52E7 206861            AND     [BX+SI+61],CH
0736:52EA 6E                OUTSB
0736:52EB 64                SEG     FS (unused)
0736:52EC 6C                INSB
0736:52ED 6520636F          AND     GS:[BP+DI+6F],AH
0736:52F1 756E              JNZ     5361
0736:52F3 740D              JZ      5302
0736:52F5 0A20              OR      AH,[BX+SI]
0736:52F7 205368            AND     [BP+DI+68],DL
0736:52FA 6F                OUTSW
0736:52FB 7720              JA      531D
0736:52FD 7374              JAE     5373
0736:52FF 61                POPA
0736:5300 7475              JZ      5377
0736:5302 7309              JAE     530D
0736:5304 58                POP     AX
0736:5305 53                PUSH    BX
0736:5306 0D0A48            OR      AX,480A
0736:5309 61                POPA
0736:530A 6E                OUTSB
0736:530B 64                SEG     FS (unused)
0736:530C 6C                INSB
0736:530D 65206372          AND     GS:[BP+DI+72],AH
0736:5311 65                SEG     GS (unused)
0736:5312 61                POPA
0736:5313 7465              JZ      537A
0736:5315 643A20            CMP     AH,FS:[BX+SI]
0736:5318 004861            ADD     [BX+SI+61],CL
0736:531B 6E                OUTSB
0736:531C 64                SEG     FS (unused)
0736:531D 6C                INSB
0736:531E 65206465          AND     GS:[SI+65],AH
0736:5322 61                POPA
0736:5323 6C                INSB
0736:5324 6C                INSB
0736:5325 6F                OUTSW
0736:5326 636174            ARPL    [BX+DI+74],SP
0736:5329 65                SEG     GS (unused)
0736:532A 643A20            CMP     AH,FS:[BX+SI]
0736:532D 004861            ADD     [BX+SI+61],CL
0736:5330 6E                OUTSB
0736:5331 64                SEG     FS (unused)
0736:5332 6C                INSB
0736:5333 65207265          AND     GS:[BP+SI+65],DH
0736:5337 61                POPA
0736:5338 6C                INSB
0736:5339 6C                INSB
0736:533A 6F                OUTSW
0736:533B 636174            ARPL    [BX+DI+74],SP
0736:533E 65                SEG     GS (unused)
0736:533F 64004C6F          ADD     FS:[SI+6F],CL
0736:5343 676963616C20      IMUL    SP,61[EBX],206C
0736:5349 7061              JO      53AC
0736:534B 6765205F5F        AND     GS:5F[EDI],BL
0736:5350 206D61            AND     [DI+61],CH
0736:5353 7070              JO      53C5
0736:5355 65                SEG     GS (unused)
0736:5356 6420746F          AND     FS:[SI+6F],DH
0736:535A 207068            AND     [BX+SI+68],DH
0736:535D 7973              JNS     53D2
0736:535F 6963616C20        IMUL    SP,[BP+DI+61],206C
0736:5364 7061              JO      53C7
0736:5366 6765205F5F        AND     GS:5F[EDI],BL
0736:536B 004861            ADD     [BX+SI+61],CL
0736:536E 6E                OUTSB
0736:536F 64                SEG     FS (unused)
0736:5370 6C                INSB
0736:5371 65205F5F          AND     GS:[BX+5F],BL
0736:5375 5F                POP     DI
0736:5376 5F                POP     DI
0736:5377 206861            AND     [BX+SI+61],CH
0736:537A 7320              JAE     539C
0736:537C 5F                POP     DI
0736:537D 5F                POP     DI
0736:537E 5F                POP     DI
0736:537F 5F                POP     DI
0736:5380 207061            AND     [BX+SI+61],DH
0736:5383 67                DB      67
0736:5384 65                SEG     GS (unused)
0736:5385 7320              JAE     53A7
0736:5387 61                POPA
0736:5388 6C                INSB
0736:5389 6C                INSB
0736:538A 6F                OUTSW
0736:538B 636174            ARPL    [BX+DI+74],SP
0736:538E 65                SEG     GS (unused)
0736:538F 64                SEG     FS (unused)
0736:5390 0D0A70            OR      AX,700A
0736:5393 687973            PUSH    WORD 7379
0736:5396 2E207061          AND     CS:[BX+SI+61],DH
0736:539A 6765205F5F        AND     GS:5F[EDI],BL
0736:539F 203D              AND     [DI],BH
0736:53A1 207365            AND     [BP+DI+65],DH
0736:53A4 67                DB      67
0736:53A5 6D                INSW
0736:53A6 656E              GS:OUTSB
0736:53A8 7420              JZ      53CA
0736:53AA 5F                POP     DI
0736:53AB 5F                POP     DI
0736:53AC 5F                POP     DI
0736:53AD 5F                POP     DI
0736:53AE 2020              AND     [BX+SI],AH
0736:53B0 206F66            AND     [BX+66],CH
0736:53B3 206120            AND     [BX+DI+20],AH
0736:53B6 746F              JZ      5427
0736:53B8 7461              JZ      541B
0736:53BA 6C                INSB
0736:53BB 2000              AND     [BX+SI],AL
0736:53BD 20454D            AND     [DI+4D],AL
0736:53C0 53                PUSH    BX
0736:53C1 2000              AND     [BX+SI],AL
0736:53C3 7061              JO      5426
0736:53C5 67006861          ADD     61[EAX],CH
0736:53C9 6E                OUTSB
0736:53CA 64                SEG     FS (unused)
0736:53CB 6C                INSB
0736:53CC 006573            ADD     [DI+73],AH
0736:53CF 206861            AND     [BX+SI+61],CH
0736:53D2 7665              JBE     5439
0736:53D4 206265            AND     [BP+SI+65],AH
0736:53D7 656E              GS:OUTSB
0736:53D9 20616C            AND     [BX+DI+6C],AH
0736:53DC 6C                INSB
0736:53DD 6F                OUTSW
0736:53DE 636174            ARPL    [BX+DI+74],SP
0736:53E1 65                SEG     GS (unused)
0736:53E2 64006E6F          ADD     FS:[BP+6F],CH
0736:53E6 206D61            AND     [DI+61],CH
0736:53E9 7070              JO      545B
0736:53EB 61                POPA
0736:53EC 626C65            BOUND   BP,[SI+65]
0736:53EF 207061            AND     [BX+SI+61],DH
0736:53F2 67                DB      67
0736:53F3 65                SEG     GS (unused)
0736:53F4 730D              JAE     5403
0736:53F6 0A0D              OR      CL,[DI]
0736:53F8 0A24              OR      AH,[SI]
0736:53FA 6E                OUTSB
0736:53FB 6F                OUTSW
0736:53FC A4                MOVSB
0736:53FD A5                MOVSW
0736:53FE A6                CMPSB
0736:53FF A7                CMPSW
0736:5400 AC                LODSB
0736:5401 AD                LODSW
0736:5402 D7                XLATB
0736:5403 6C                INSB
0736:5404 6E                OUTSB
0736:5405 A4                MOVSB
0736:5406 AA                STOSB
0736:5407 AC                LODSB
0736:5408 A6                CMPSB
0736:5409 AE                SCASB
0736:540A 004E40            ADD     [BP+40],CL
0736:540D 004240            ADD     [BP+SI+40],AL
0736:5410 005220            ADD     [BP+SI+20],DL
0736:5413 00424A            ADD     [BP+SI+4A],AL
0736:5416 004A42            ADD     [BP+SI+42],CL
0736:5419 00727A            ADD     [BP+SI+7A],DH
0736:541C 005A54            ADD     [BP+SI+54],BL
0736:541F 005A52            ADD     [BP+SI+52],BL
0736:5422 008C0052          ADD     [SI+5200],CL
0736:5426 5A                POP     DX
0736:5427 005222            ADD     [BP+SI+22],DL
0736:542A 0012              ADD     [BP+SI],DL
0736:542C 000E000C          ADD     [0C00],CL
0736:5430 0002              ADD     [BP+SI],AL
0736:5432 004200            ADD     [BP+SI+00],AL
0736:5435 5C                POP     SP
0736:5436 007022            ADD     [BX+SI+22],DH
0736:5439 0004              ADD     [SI],AL
0736:543B 00060030          ADD     [3000],AL
0736:543F 16                PUSH    SS
0736:5440 00163000          ADD     [0030],DL
0736:5444 1416              ADC     AL,16
0736:5446 3000              XOR     [BX+SI],AL
0736:5448 8400              TEST    [BX+SI],AL
0736:544A 7400              JZ      544C
0736:544C 0800              OR      [BX+SI],AL
0736:544E 16                PUSH    SS
0736:544F 0014              ADD     [SI],DL
0736:5451 16                PUSH    SS
0736:5452 000A              ADD     [BP+SI],CL
0736:5454 007E00            ADD     [BP+00],BH
0736:5457 5A                POP     DX
0736:5458 52                PUSH    DX
0736:5459 2000              AND     [BX+SI],AL
0736:545B 56                PUSH    SI
0736:545C 5A                POP     DX
0736:545D 2000              AND     [BX+SI],AL
0736:545F 5A                POP     DX
0736:5460 52                PUSH    DX
0736:5461 50                PUSH    AX
0736:5462 00565A            ADD     [BP+5A],DL
0736:5465 50                PUSH    AX
0736:5466 004E22            ADD     [BP+22],CL
0736:5469 004E2C            ADD     [BP+2C],CL
0736:546C 002A              ADD     [BP+SI],CH
0736:546E 0022              ADD     [BP+SI],AH
0736:5470 0010              ADD     [BX+SI],DL
0736:5472 005200            ADD     [BP+SI+00],DL
0736:5475 7200              JB      5477
0736:5477 52                PUSH    DX
0736:5478 1E                PUSH    DS
0736:5479 001E5200          ADD     [0052],BL
0736:547D 4E                DEC     SI
0736:547E 48                DEC     AX
0736:547F 00484E            ADD     [BX+SI+4E],CL
0736:5482 006C60            ADD     [SI+60],CH
0736:5485 005C50            ADD     [SI+50],BL
0736:5488 005A26            ADD     [BP+SI+26],BL
0736:548B 6200              BOUND   AX,[BX+SI]
0736:548D 5A                POP     DX
0736:548E 26                SEG     ES (unused)
0736:548F 7200              JB      5491
0736:5491 224E00            AND     CL,[BP+00]
0736:5494 2C4E              SUB     AL,4E
0736:5496 005400            ADD     [SI+00],DL
0736:5499 26                SEG     ES (unused)
0736:549A 50                PUSH    AX
0736:549B 00262000          ADD     [0020],AH
0736:549F 42                INC     DX
0736:54A0 2800              SUB     [BX+SI],AL
0736:54A2 42                INC     DX
0736:54A3 2E004222          ADD     CS:[BP+SI+22],AL
0736:54A7 007000            ADD     [BX+SI+00],DH
0736:54AA 6200              BOUND   AX,[BX+SI]
0736:54AC 52                PUSH    DX
0736:54AD 5A                POP     DX
0736:54AE 2200              AND     AL,[BX+SI]
0736:54B0 52                PUSH    DX
0736:54B1 5A                POP     DX
0736:54B2 2E005E5C          ADD     CS:[BP+5C],BL
0736:54B6 005C5E            ADD     [SI+5E],BL
0736:54B9 00360032          ADD     [3200],DH
0736:54BD 003C              ADD     [SI],BH
0736:54BF 0034              ADD     [SI],DH
0736:54C1 0038              ADD     [BX+SI],BH
0736:54C3 003A              ADD     [BP+SI],BH
0736:54C5 00861800          ADD     [BP+0018],AL
0736:54C9 18860086          SBB     [BP+8600],AL
0736:54CD 1A00              SBB     AL,[BX+SI]
0736:54CF 1A860086          SBB     AL,[BP+8600]
0736:54D3 1C00              SBB     AL,00
0736:54D5 1C86              SBB     AL,86
0736:54D7 00830080          ADD     [BP+DI+8000],AL
0736:54DB 00BA01FF          ADD     [BP+SI+FF01],BH
0736:54DF 00C7              ADD     BH,AL
0736:54E1 01FE              ADD     SI,DI
0736:54E3 00F6              ADD     DH,DH
0736:54E5 0001              ADD     [BX+DI],AL
0736:54E7 0100              ADD     [BX+SI],AX
0736:54E9 01C6              ADD     SI,AX
0736:54EB 008F00D0          ADD     [BX+D000],CL
0736:54EF 00D2              ADD     DL,DL
0736:54F1 00C0              ADD     AL,AL
0736:54F3 0000              ADD     [BX+SI],AL
0736:54F5 004141            ADD     [BX+DI+41],AL
0736:54F8 C10300            ROL     WORD PTR [BP+DI],00
0736:54FB 41                INC     CX
0736:54FC 41                INC     CX
0736:54FD C407              LES     AX,[BX]
0736:54FF 004141            ADD     [BX+DI+41],AL
0736:5502 CD0B              INT     0B
0736:5504 004141            ADD     [BX+DI+41],AL
0736:5507 D30E0041          ROR     WORD PTR [4100],CL
0736:550B 44                INC     SP
0736:550C C3                RET
0736:550D 1C00              SBB     AL,00
0736:550F 41                INC     CX
0736:5510 44                INC     SP
0736:5511 C42A              LES     BP,[BP+SI]
0736:5513 00414E            ADD     [BX+DI+4E],AL
0736:5516 C438              LES     DI,[BX+SI]
0736:5518 004152            ADD     [BX+DI+52],AL
0736:551B 50                PUSH    AX
0736:551C CC                INT     3
0736:551D 3C00              CMP     AL,00
0736:551F 42                INC     DX
0736:5520 4F                DEC     DI
0736:5521 55                PUSH    BP
0736:5522 4E                DEC     SI
0736:5523 C44000            LES     AX,[BX+SI+00]
0736:5526 42                INC     DX
0736:5527 53                PUSH    BX
0736:5528 C6440042          MOV     BYTE PTR [SI+00],42
0736:552C 53                PUSH    BX
0736:552D D24800            ROR     BYTE PTR [BX+SI+00],CL
0736:5530 42                INC     DX
0736:5531 53                PUSH    BX
0736:5532 57                PUSH    DI
0736:5533 41                INC     CX
0736:5534 D04D00            ROR     BYTE PTR [DI+00],1
0736:5537 42                INC     DX
0736:5538 D454              AAM     54
0736:553A 004254            ADD     [BP+SI+54],AL
0736:553D C3                RET
0736:553E 5D                POP     BP
0736:553F 004254            ADD     [BP+SI+54],AL
0736:5542 D26600            SHL     BYTE PTR [BP+00],CL
0736:5545 42                INC     DX
0736:5546 54                PUSH    SP
0736:5547 D36F00            SHR     WORD PTR [BX+00],CL
0736:554A 43                INC     BX
0736:554B 41                INC     CX
0736:554C 4C                DEC     SP
0736:554D CC                INT     3
0736:554E 7800              JS      5550
0736:5550 43                INC     BX
0736:5551 42                INC     DX
0736:5552 D7                XLATB
0736:5553 7900              JNS     5555
0736:5555 43                INC     BX
0736:5556 57                PUSH    DI
0736:5557 44                INC     SP
0736:5558 C57D00            LDS     DI,[DI+00]
0736:555B 43                INC     BX
0736:555C 4C                DEC     SP
0736:555D C3                RET
0736:555E 800043            ADD     BYTE PTR [BX+SI],43
0736:5561 4C                DEC     SP
0736:5562 C4830043          LES     AX,[BP+DI+4300]
0736:5566 4C                DEC     SP
0736:5567 C9                LEAVE
0736:5568 8600              XCHG    AL,[BX+SI]
0736:556A 43                INC     BX
0736:556B 4C                DEC     SP
0736:556C 54                PUSH    SP
0736:556D D38A0043          ROR     WORD PTR [BP+SI+4300],CL
0736:5571 4D                DEC     BP
0736:5572 C3                RET
0736:5573 8D00              LEA     AX,[BX+SI]
0736:5575 43                INC     BX
0736:5576 4D                DEC     BP
0736:5577 4F                DEC     DI
0736:5578 56                PUSH    SI
0736:5579 C19100434D        RCL     WORD PTR [BX+DI+4300],4D
0736:557E 4F                DEC     DI
0736:557F 56                PUSH    SI
0736:5580 41                INC     CX
0736:5581 C5950043          LDS     DX,[DI+4300]
0736:5585 4D                DEC     BP
0736:5586 4F                DEC     DI
0736:5587 56                PUSH    SI
0736:5588 C29900            RET     0099
0736:558B 43                INC     BX
0736:558C 4D                DEC     BP
0736:558D 4F                DEC     DI
0736:558E 56                PUSH    SI
0736:558F 42                INC     DX
0736:5590 C59D0043          LDS     BX,[DI+4300]
0736:5594 4D                DEC     BP
0736:5595 4F                DEC     DI
0736:5596 56                PUSH    SI
0736:5597 C3                RET
0736:5598 A10043            MOV     AX,[4300]
0736:559B 4D                DEC     BP
0736:559C 4F                DEC     DI
0736:559D 56                PUSH    SI
0736:559E C5A50043          LDS     SP,[DI+4300]
0736:55A2 4D                DEC     BP
0736:55A3 4F                DEC     DI
0736:55A4 56                PUSH    SI
0736:55A5 C7                DB      C7
0736:55A6 A90043            TEST    AX,4300
0736:55A9 4D                DEC     BP
0736:55AA 4F                DEC     DI
0736:55AB 56                PUSH    SI
0736:55AC 47                INC     DI
0736:55AD C5AD0043          LDS     BP,[DI+4300]
0736:55B1 4D                DEC     BP
0736:55B2 4F                DEC     DI
0736:55B3 56                PUSH    SI
0736:55B4 CC                INT     3
0736:55B5 B100              MOV     CL,00
0736:55B7 43                INC     BX
0736:55B8 4D                DEC     BP
0736:55B9 4F                DEC     DI
0736:55BA 56                PUSH    SI
0736:55BB 4C                DEC     SP
0736:55BC C5B50043          LDS     SI,[DI+4300]
0736:55C0 4D                DEC     BP
0736:55C1 4F                DEC     DI
0736:55C2 56                PUSH    SI
0736:55C3 4E                DEC     SI
0736:55C4 C1B900434D        SAR     WORD PTR [BX+DI+4300],4D
0736:55C9 4F                DEC     DI
0736:55CA 56                PUSH    SI
0736:55CB 4E                DEC     SI
0736:55CC 41                INC     CX
0736:55CD C5BD0043          LDS     DI,[DI+4300]
0736:55D1 4D                DEC     BP
0736:55D2 4F                DEC     DI
0736:55D3 56                PUSH    SI
0736:55D4 4E                DEC     SI
0736:55D5 C2C100            RET     00C1
0736:55D8 43                INC     BX
0736:55D9 4D                DEC     BP
0736:55DA 4F                DEC     DI
0736:55DB 56                PUSH    SI
0736:55DC 4E                DEC     SI
0736:55DD 42                INC     DX
0736:55DE C5                DB      C5
0736:55DF C500              LDS     AX,[BX+SI]
0736:55E1 43                INC     BX
0736:55E2 4D                DEC     BP
0736:55E3 4F                DEC     DI
0736:55E4 56                PUSH    SI
0736:55E5 4E                DEC     SI
0736:55E6 C3                RET
0736:55E7 C9                LEAVE
0736:55E8 00434D            ADD     [BP+DI+4D],AL
0736:55EB 4F                DEC     DI
0736:55EC 56                PUSH    SI
0736:55ED 4E                DEC     SI
0736:55EE C5                DB      C5
0736:55EF CD00              INT     00
0736:55F1 43                INC     BX
0736:55F2 4D                DEC     BP
0736:55F3 4F                DEC     DI
0736:55F4 56                PUSH    SI
0736:55F5 4E                DEC     SI
0736:55F6 C7                DB      C7
0736:55F7 D100              ROL     WORD PTR [BX+SI],1
0736:55F9 43                INC     BX
0736:55FA 4D                DEC     BP
0736:55FB 4F                DEC     DI
0736:55FC 56                PUSH    SI
0736:55FD 4E                DEC     SI
0736:55FE 47                INC     DI
0736:55FF C5                DB      C5
0736:5600 D500              AAD     00
0736:5602 43                INC     BX
0736:5603 4D                DEC     BP
0736:5604 4F                DEC     DI
0736:5605 56                PUSH    SI
0736:5606 4E                DEC     SI
0736:5607 CC                INT     3
0736:5608 D900              FLD     FLOAT PTR [BX+SI]
0736:560A 43                INC     BX
0736:560B 4D                DEC     BP
0736:560C 4F                DEC     DI
0736:560D 56                PUSH    SI
0736:560E 4E                DEC     SI
0736:560F 4C                DEC     SP
0736:5610 C5                DB      C5
0736:5611 DD00              FLD     DOUBLE PTR [BX+SI]
0736:5613 43                INC     BX
0736:5614 4D                DEC     BP
0736:5615 4F                DEC     DI
0736:5616 56                PUSH    SI
0736:5617 4E                DEC     SI
0736:5618 CF                IRET
0736:5619 E100              LOOPZW  561B
0736:561B 43                INC     BX
0736:561C 4D                DEC     BP
0736:561D 4F                DEC     DI
0736:561E 56                PUSH    SI
0736:561F 4E                DEC     SI
0736:5620 D0E5              SHL     CH,1
0736:5622 00434D            ADD     [BP+DI+4D],AL
0736:5625 4F                DEC     DI
0736:5626 56                PUSH    SI
0736:5627 4E                DEC     SI
0736:5628 D3E9              SHR     CX,CL
0736:562A 00434D            ADD     [BP+DI+4D],AL
0736:562D 4F                DEC     DI
0736:562E 56                PUSH    SI
0736:562F 4E                DEC     SI
0736:5630 DA                DB      DA
0736:5631 ED                IN      AX,DX
0736:5632 00434D            ADD     [BP+DI+4D],AL
0736:5635 4F                DEC     DI
0736:5636 56                PUSH    SI
0736:5637 CF                IRET
0736:5638 F1                DB      F1
0736:5639 00434D            ADD     [BP+DI+4D],AL
0736:563C 4F                DEC     DI
0736:563D 56                PUSH    SI
0736:563E D0                DB      D0
0736:563F F5                CMC
0736:5640 00434D            ADD     [BP+DI+4D],AL
0736:5643 4F                DEC     DI
0736:5644 56                PUSH    SI
0736:5645 50                PUSH    AX
0736:5646 C5                DB      C5
0736:5647 F9                STC
0736:5648 00434D            ADD     [BP+DI+4D],AL
0736:564B 4F                DEC     DI
0736:564C 56                PUSH    SI
0736:564D 50                PUSH    AX
0736:564E CF                IRET
0736:564F FD                STD
0736:5650 00434D            ADD     [BP+DI+4D],AL
0736:5653 4F                DEC     DI
0736:5654 56                PUSH    SI
0736:5655 D301              ROL     WORD PTR [BX+DI],CL
0736:5657 01434D            ADD     [BP+DI+4D],AX
0736:565A 4F                DEC     DI
0736:565B 56                PUSH    SI
0736:565C DA05              FIADD   DWORD PTR [DI]
0736:565E 01434D            ADD     [BP+DI+4D],AX
0736:5661 D010              RCL     BYTE PTR [BX+SI],1
0736:5663 01434D            ADD     [BP+DI+4D],AX
0736:5666 50                PUSH    AX
0736:5667 53                PUSH    BX
0736:5668 C21301            RET     0113
0736:566B 43                INC     BX
0736:566C 4D                DEC     BP
0736:566D 50                PUSH    AX
0736:566E 53                PUSH    BX
0736:566F D7                XLATB
0736:5670 1401              ADC     AL,01
0736:5672 43                INC     BX
0736:5673 4D                DEC     BP
0736:5674 50                PUSH    AX
0736:5675 53                PUSH    BX
0736:5676 C418              LES     BX,[BX+SI]
0736:5678 01434D            ADD     [BP+DI+4D],AX
0736:567B 50                PUSH    AX
0736:567C 58                POP     AX
0736:567D 43                INC     BX
0736:567E 48                DEC     AX
0736:567F C7                DB      C7
0736:5680 1D0143            SBB     AX,4301
0736:5683 4D                DEC     BP
0736:5684 50                PUSH    AX
0736:5685 58                POP     AX
0736:5686 43                INC     BX
0736:5687 48                DEC     AX
0736:5688 47                INC     DI
0736:5689 38C2              CMP     DL,AL
0736:568B 2101              AND     [BX+DI],AX
0736:568D 43                INC     BX
0736:568E 50                PUSH    AX
0736:568F 55                PUSH    BP
0736:5690 49                DEC     CX
0736:5691 C425              LES     SP,[DI]
0736:5693 014357            ADD     [BP+DI+57],AX
0736:5696 C4260143          LES     SP,[4301]
0736:569A 44                INC     SP
0736:569B D12A              SHR     WORD PTR [BP+SI],1
0736:569D 014441            ADD     [SI+41],AX
0736:56A0 C12D01            SHR     WORD PTR [DI],01
0736:56A3 44                INC     SP
0736:56A4 41                INC     CX
0736:56A5 D3                DB      D3
0736:56A6 3001              XOR     [BX+DI],AL
0736:56A8 44                INC     SP
0736:56A9 C23101            RET     0131
0736:56AC 44                INC     SP
0736:56AD C432              LES     SI,[BP+SI]
0736:56AF 014445            ADD     [SI+45],AX
0736:56B2 C3                RET
0736:56B3 3801              CMP     [BX+DI],AL
0736:56B5 44                INC     SP
0736:56B6 49                DEC     CX
0736:56B7 D6                DB      D6
0736:56B8 3B01              CMP     AX,[BX+DI]
0736:56BA 44                INC     SP
0736:56BB D7                XLATB
0736:56BC 3C01              CMP     AL,01
0736:56BE 45                INC     BP
0736:56BF 4E                DEC     SI
0736:56C0 54                PUSH    SP
0736:56C1 45                INC     BP
0736:56C2 D24001            ROL     BYTE PTR [BX+SI+01],CL
0736:56C5 46                INC     SI
0736:56C6 32584D            XOR     BL,[BX+SI+4D]
0736:56C9 B144              MOV     CL,44
0736:56CB 014641            ADD     [BP+41],AX
0736:56CE 42                INC     DX
0736:56CF D34801            ROR     WORD PTR [BX+SI+01],CL
0736:56D2 46                INC     SI
0736:56D3 41                INC     CX
0736:56D4 44                INC     SP
0736:56D5 C45301            LES     DX,[BP+DI+01]
0736:56D8 46                INC     SI
0736:56D9 41                INC     CX
0736:56DA 44                INC     SP
0736:56DB 44                INC     SP
0736:56DC D05A01            RCR     BYTE PTR [BP+SI+01],1
0736:56DF 46                INC     SI
0736:56E0 49                DEC     CX
0736:56E1 41                INC     CX
0736:56E2 44                INC     SP
0736:56E3 C45F01            LES     BX,[BX+01]
0736:56E6 46                INC     SI
0736:56E7 42                INC     DX
0736:56E8 4C                DEC     SP
0736:56E9 C46201            LES     SP,[BP+SI+01]
0736:56EC 46                INC     SI
0736:56ED 42                INC     DX
0736:56EE 53                PUSH    BX
0736:56EF 54                PUSH    SP
0736:56F0 D06501            SHL     BYTE PTR [DI+01],1
0736:56F3 46                INC     SI
0736:56F4 43                INC     BX
0736:56F5 48                DEC     AX
0736:56F6 D36901            SHR     WORD PTR [BX+DI+01],CL
0736:56F9 46                INC     SI
0736:56FA 43                INC     BX
0736:56FB 4C                DEC     SP
0736:56FC 45                INC     BP
0736:56FD D86A01            FSUBR   FLOAT PTR [BP+SI+01]
0736:5700 46                INC     SI
0736:5701 4E                DEC     SI
0736:5702 43                INC     BX
0736:5703 4C                DEC     SP
0736:5704 45                INC     BP
0736:5705 D86E01            FSUBR   FLOAT PTR [BP+01]
0736:5708 46                INC     SI
0736:5709 43                INC     BX
0736:570A 4D                DEC     BP
0736:570B 4F                DEC     DI
0736:570C 56                PUSH    SI
0736:570D C1                DB      C1
0736:570E 7301              JAE     5711
0736:5710 46                INC     SI
0736:5711 43                INC     BX
0736:5712 4D                DEC     BP
0736:5713 4F                DEC     DI
0736:5714 56                PUSH    SI
0736:5715 41                INC     CX
0736:5716 C57801            LDS     DI,[BX+SI+01]
0736:5719 46                INC     SI
0736:571A 43                INC     BX
0736:571B 4D                DEC     BP
0736:571C 4F                DEC     DI
0736:571D 56                PUSH    SI
0736:571E C27D01            RET     017D
0736:5721 46                INC     SI
0736:5722 43                INC     BX
0736:5723 4D                DEC     BP
0736:5724 4F                DEC     DI
0736:5725 56                PUSH    SI
0736:5726 42                INC     DX
0736:5727 C5820146          LDS     AX,[BP+SI+4601]
0736:572B 43                INC     BX
0736:572C 4D                DEC     BP
0736:572D 4F                DEC     DI
0736:572E 56                PUSH    SI
0736:572F C5870146          LDS     AX,[BX+4601]
0736:5733 43                INC     BX
0736:5734 4D                DEC     BP
0736:5735 4F                DEC     DI
0736:5736 56                PUSH    SI
0736:5737 4E                DEC     SI
0736:5738 C18C014643        ROR     WORD PTR [SI+4601],43
0736:573D 4D                DEC     BP
0736:573E 4F                DEC     DI
0736:573F 56                PUSH    SI
0736:5740 4E                DEC     SI
0736:5741 41                INC     CX
0736:5742 C5910146          LDS     DX,[BX+DI+4601]
0736:5746 43                INC     BX
0736:5747 4D                DEC     BP
0736:5748 4F                DEC     DI
0736:5749 56                PUSH    SI
0736:574A 4E                DEC     SI
0736:574B C29601            RET     0196
0736:574E 46                INC     SI
0736:574F 43                INC     BX
0736:5750 4D                DEC     BP
0736:5751 4F                DEC     DI
0736:5752 56                PUSH    SI
0736:5753 4E                DEC     SI
0736:5754 42                INC     DX
0736:5755 C59B0146          LDS     BX,[BP+DI+4601]
0736:5759 43                INC     BX
0736:575A 4D                DEC     BP
0736:575B 4F                DEC     DI
0736:575C 56                PUSH    SI
0736:575D 4E                DEC     SI
0736:575E C5A00146          LDS     SP,[BX+SI+4601]
0736:5762 43                INC     BX
0736:5763 4D                DEC     BP
0736:5764 4F                DEC     DI
0736:5765 56                PUSH    SI
0736:5766 4E                DEC     SI
0736:5767 D5A5              AAD     A5
0736:5769 014643            ADD     [BP+43],AX
0736:576C 4D                DEC     BP
0736:576D 4F                DEC     DI
0736:576E 56                PUSH    SI
0736:576F 4E                DEC     SI
0736:5770 DAAA0146          FISUBR  DWORD PTR [BP+SI+4601]
0736:5774 43                INC     BX
0736:5775 4D                DEC     BP
0736:5776 4F                DEC     DI
0736:5777 56                PUSH    SI
0736:5778 D5AF              AAD     AF
0736:577A 014643            ADD     [BP+43],AX
0736:577D 4D                DEC     BP
0736:577E 4F                DEC     DI
0736:577F 56                PUSH    SI
0736:5780 DAB40146          FIDIV   DWORD PTR [SI+4601]
0736:5784 43                INC     BX
0736:5785 4F                DEC     DI
0736:5786 CDBF              INT     BF
0736:5788 014643            ADD     [BP+43],AX
0736:578B 4F                DEC     DI
0736:578C 4D                DEC     BP
0736:578D C9                LEAVE
0736:578E C8014643          ENTER   4601,43
0736:5792 4F                DEC     DI
0736:5793 4D                DEC     BP
0736:5794 49                DEC     CX
0736:5795 D0D1              RCL     CL,1
0736:5797 014643            ADD     [BP+43],AX
0736:579A 4F                DEC     DI
0736:579B 4D                DEC     BP
0736:579C D0DC              RCR     AH,1
0736:579E 014643            ADD     [BP+43],AX
0736:57A1 4F                DEC     DI
0736:57A2 4D                DEC     BP
0736:57A3 50                PUSH    AX
0736:57A4 D0E0              SHL     AL,1
0736:57A6 014643            ADD     [BP+43],AX
0736:57A9 4F                DEC     DI
0736:57AA D3E5              SHL     BP,CL
0736:57AC 014644            ADD     [BP+44],AX
0736:57AF 45                INC     BP
0736:57B0 43                INC     BX
0736:57B1 53                PUSH    BX
0736:57B2 54                PUSH    SP
0736:57B3 D0E9              SHR     CL,1
0736:57B5 014644            ADD     [BP+44],AX
0736:57B8 49                DEC     CX
0736:57B9 53                PUSH    BX
0736:57BA C9                LEAVE
0736:57BB EA01464E44        JMP     444E:4601
0736:57C0 49                DEC     CX
0736:57C1 53                PUSH    BX
0736:57C2 C9                LEAVE
0736:57C3 EE                OUT     DX,AL
0736:57C4 014644            ADD     [BP+44],AX
0736:57C7 49                DEC     CX
0736:57C8 D6                DB      D6
0736:57C9 F9                STC
0736:57CA 014644            ADD     [BP+44],AX
0736:57CD 49                DEC     CX
0736:57CE 56                PUSH    SI
0736:57CF D000              ROL     BYTE PTR [BX+SI],1
0736:57D1 024649            ADD     AL,[BP+49]
0736:57D4 44                INC     SP
0736:57D5 49                DEC     CX
0736:57D6 D6                DB      D6
0736:57D7 050246            ADD     AX,4602
0736:57DA 44                INC     SP
0736:57DB 49                DEC     CX
0736:57DC 56                PUSH    SI
0736:57DD D210              RCL     BYTE PTR [BX+SI],CL
0736:57DF 024644            ADD     AL,[BP+44]
0736:57E2 49                DEC     CX
0736:57E3 56                PUSH    SI
0736:57E4 52                PUSH    DX
0736:57E5 D017              RCL     BYTE PTR [BX],1
0736:57E7 024649            ADD     AL,[BP+49]
0736:57EA 44                INC     SP
0736:57EB 49                DEC     CX
0736:57EC 56                PUSH    SI
0736:57ED D21C              RCR     BYTE PTR [SI],CL
0736:57EF 024645            ADD     AL,[BP+45]
0736:57F2 4E                DEC     SI
0736:57F3 C9                LEAVE
0736:57F4 1D0246            SBB     AX,4602
0736:57F7 4E                DEC     SI
0736:57F8 45                INC     BP
0736:57F9 4E                DEC     SI
0736:57FA C9                LEAVE
0736:57FB 2102              AND     [BP+SI],AX
0736:57FD 46                INC     SI
0736:57FE 46                INC     SI
0736:57FF 52                PUSH    DX
0736:5800 45                INC     BP
0736:5801 C525              LDS     SP,[DI]
0736:5803 024649            ADD     AL,[BP+49]
0736:5806 43                INC     BX
0736:5807 4F                DEC     DI
0736:5808 CD2A              INT     2A
0736:580A 024649            ADD     AL,[BP+49]
0736:580D 43                INC     BX
0736:580E 4F                DEC     DI
0736:580F 4D                DEC     BP
0736:5810 D02F              SHR     BYTE PTR [BX],1
0736:5812 024649            ADD     AL,[BP+49]
0736:5815 4C                DEC     SP
0736:5816 C4360246          LES     SI,[4602]
0736:581A 49                DEC     CX
0736:581B 4E                DEC     SI
0736:581C 43                INC     BX
0736:581D 53                PUSH    BX
0736:581E 54                PUSH    SP
0736:581F D03A              SAR     BYTE PTR [BP+SI],1
0736:5821 024649            ADD     AL,[BP+49]
0736:5824 4E                DEC     SI
0736:5825 49                DEC     CX
0736:5826 D43B              AAM     3B
0736:5828 02464E            ADD     AL,[BP+4E]
0736:582B 49                DEC     CX
0736:582C 4E                DEC     SI
0736:582D 49                DEC     CX
0736:582E D43F              AAM     3F
0736:5830 024649            ADD     AL,[BP+49]
0736:5833 53                PUSH    BX
0736:5834 D444              AAM     44
0736:5836 024649            ADD     AL,[BP+49]
0736:5839 53                PUSH    BX
0736:583A 54                PUSH    SP
0736:583B D04B02            ROR     BYTE PTR [BP+DI+02],1
0736:583E 46                INC     SI
0736:583F 4C                DEC     SP
0736:5840 C45502            LES     DX,[DI+02]
0736:5843 46                INC     SI
0736:5844 4C                DEC     SP
0736:5845 44                INC     SP
0736:5846 B159              MOV     CL,59
0736:5848 02464C            ADD     AL,[BP+4C]
0736:584B 44                INC     SP
0736:584C 4C                DEC     SP
0736:584D 32D4              XOR     DL,AH
0736:584F 5D                POP     BP
0736:5850 02464C            ADD     AL,[BP+4C]
0736:5853 44                INC     SP
0736:5854 4C                DEC     SP
0736:5855 32C5              XOR     AL,CH
0736:5857 61                POPA
0736:5858 02464C            ADD     AL,[BP+4C]
0736:585B 44                INC     SP
0736:585C 50                PUSH    AX
0736:585D C9                LEAVE
0736:585E 6502464C          ADD     AL,GS:[BP+4C]
0736:5862 44                INC     SP
0736:5863 4C                DEC     SP
0736:5864 47                INC     DI
0736:5865 B269              MOV     DL,69
0736:5867 02464C            ADD     AL,[BP+4C]
0736:586A 44                INC     SP
0736:586B 4C                DEC     SP
0736:586C 4E                DEC     SI
0736:586D B26D              MOV     DL,6D
0736:586F 02464C            ADD     AL,[BP+4C]
0736:5872 44                INC     SP
0736:5873 DA7102            FIDIV   DWORD PTR [BX+DI+02]
0736:5876 46                INC     SI
0736:5877 4C                DEC     SP
0736:5878 44                INC     SP
0736:5879 43                INC     BX
0736:587A D7                XLATB
0736:587B 7202              JB      587F
0736:587D 46                INC     SI
0736:587E 4E                DEC     SI
0736:587F 4C                DEC     SP
0736:5880 44                INC     SP
0736:5881 43                INC     BX
0736:5882 D7                XLATB
0736:5883 7502              JNZ     5887
0736:5885 46                INC     SI
0736:5886 4C                DEC     SP
0736:5887 44                INC     SP
0736:5888 45                INC     BP
0736:5889 4E                DEC     SI
0736:588A D6                DB      D6
0736:588B 7802              JS      588F
0736:588D 46                INC     SI
0736:588E 4C                DEC     SP
0736:588F 44                INC     SP
0736:5890 45                INC     BP
0736:5891 4E                DEC     SI
0736:5892 56                PUSH    SI
0736:5893 D7                XLATB
0736:5894 7902              JNS     5898
0736:5896 46                INC     SI
0736:5897 4C                DEC     SP
0736:5898 44                INC     SP
0736:5899 45                INC     BP
0736:589A 4E                DEC     SI
0736:589B 56                PUSH    SI
0736:589C C47D02            LES     DI,[DI+02]
0736:589F 46                INC     SI
0736:58A0 4D                DEC     BP
0736:58A1 55                PUSH    BP
0736:58A2 CC                INT     3
0736:58A3 8802              MOV     [BP+SI],AL
0736:58A5 46                INC     SI
0736:58A6 4D                DEC     BP
0736:58A7 55                PUSH    BP
0736:58A8 4C                DEC     SP
0736:58A9 D08F0246          ROR     BYTE PTR [BX+4602],1
0736:58AD 49                DEC     CX
0736:58AE 4D                DEC     BP
0736:58AF 55                PUSH    BP
0736:58B0 CC                INT     3
0736:58B1 94                XCHG    AX,SP
0736:58B2 02464E            ADD     AL,[BP+4E]
0736:58B5 4F                DEC     DI
0736:58B6 D0980246          RCR     BYTE PTR [BX+SI+4602],1
0736:58BA 50                PUSH    AX
0736:58BB 41                INC     CX
0736:58BC 54                PUSH    SP
0736:58BD 41                INC     CX
0736:58BE CE                INTO
0736:58BF 9C                PUSHF
0736:58C0 024650            ADD     AL,[BP+50]
0736:58C3 52                PUSH    DX
0736:58C4 45                INC     BP
0736:58C5 CDA0              INT     A0
0736:58C7 024650            ADD     AL,[BP+50]
0736:58CA 52                PUSH    DX
0736:58CB 45                INC     BP
0736:58CC 4D                DEC     BP
0736:58CD B1A5              MOV     CL,A5
0736:58CF 024650            ADD     AL,[BP+50]
0736:58D2 54                PUSH    SP
0736:58D3 41                INC     CX
0736:58D4 CE                INTO
0736:58D5 A90246            TEST    AX,4602
0736:58D8 52                PUSH    DX
0736:58D9 4E                DEC     SI
0736:58DA 44                INC     SP
0736:58DB 49                DEC     CX
0736:58DC 4E                DEC     SI
0736:58DD D4AD              AAM     AD
0736:58DF 024652            ADD     AL,[BP+52]
0736:58E2 53                PUSH    BX
0736:58E3 54                PUSH    SP
0736:58E4 4F                DEC     DI
0736:58E5 D2                DB      D2
0736:58E6 B002              MOV     AL,02
0736:58E8 46                INC     SI
0736:58E9 52                PUSH    DX
0736:58EA 53                PUSH    BX
0736:58EB 54                PUSH    SP
0736:58EC 4F                DEC     DI
0736:58ED 52                PUSH    DX
0736:58EE D7                XLATB
0736:58EF B102              MOV     CL,02
0736:58F1 46                INC     SI
0736:58F2 52                PUSH    DX
0736:58F3 53                PUSH    BX
0736:58F4 54                PUSH    SP
0736:58F5 4F                DEC     DI
0736:58F6 52                PUSH    DX
0736:58F7 C4B50246          LES     SI,[DI+4602]
0736:58FB 53                PUSH    BX
0736:58FC 41                INC     CX
0736:58FD 56                PUSH    SI
0736:58FE C5B60246          LDS     SI,[BP+4602]
0736:5902 4E                DEC     SI
0736:5903 53                PUSH    BX
0736:5904 41                INC     CX
0736:5905 56                PUSH    SI
0736:5906 C5B90246          LDS     DI,[BX+DI+4602]
0736:590A 53                PUSH    BX
0736:590B 41                INC     CX
0736:590C 56                PUSH    SI
0736:590D 45                INC     BP
0736:590E D7                XLATB
0736:590F BA0246            MOV     DX,4602
0736:5912 53                PUSH    BX
0736:5913 41                INC     CX
0736:5914 56                PUSH    SI
0736:5915 45                INC     BP
0736:5916 C4BE0246          LES     DI,[BP+4602]
0736:591A 53                PUSH    BX
0736:591B 43                INC     BX
0736:591C 41                INC     CX
0736:591D 4C                DEC     SP
0736:591E C5                DB      C5
0736:591F C20246            RET     4602
0736:5922 53                PUSH    BX
0736:5923 45                INC     BP
0736:5924 54                PUSH    SP
0736:5925 50                PUSH    AX
0736:5926 CDC3              INT     C3
0736:5928 02464E            ADD     AL,[BP+4E]
0736:592B 53                PUSH    BX
0736:592C 45                INC     BP
0736:592D 54                PUSH    SP
0736:592E 50                PUSH    AX
0736:592F CDC8              INT     C8
0736:5931 024653            ADD     AL,[BP+53]
0736:5934 49                DEC     CX
0736:5935 CE                INTO
0736:5936 CD02              INT     02
0736:5938 46                INC     SI
0736:5939 53                PUSH    BX
0736:593A 49                DEC     CX
0736:593B 4E                DEC     SI
0736:593C 43                INC     BX
0736:593D 4F                DEC     DI
0736:593E D3D2              RCL     DX,CL
0736:5940 024653            ADD     AL,[BP+53]
0736:5943 51                PUSH    CX
0736:5944 52                PUSH    DX
0736:5945 D4D6              AAM     D6
0736:5947 024653            ADD     AL,[BP+53]
0736:594A D4DE              AAM     DE
0736:594C 024653            ADD     AL,[BP+53]
0736:594F 54                PUSH    SP
0736:5950 D0E8              SHR     AL,1
0736:5952 024653            ADD     AL,[BP+53]
0736:5955 54                PUSH    SP
0736:5956 43                INC     BX
0736:5957 D7                XLATB
0736:5958 E90246            JMP     9F5D
0736:595B 4E                DEC     SI
0736:595C 53                PUSH    BX
0736:595D 54                PUSH    SP
0736:595E 43                INC     BX
0736:595F D7                XLATB
0736:5960 EC                IN      AL,DX
0736:5961 024653            ADD     AL,[BP+53]
0736:5964 54                PUSH    SP
0736:5965 45                INC     BP
0736:5966 4E                DEC     SI
0736:5967 D6                DB      D6
0736:5968 ED                IN      AX,DX
0736:5969 02464E            ADD     AL,[BP+4E]
0736:596C 53                PUSH    BX
0736:596D 54                PUSH    SP
0736:596E 45                INC     BP
0736:596F 4E                DEC     SI
0736:5970 D6                DB      D6
0736:5971 F0                LOCK    (unused)
0736:5972 024653            ADD     AL,[BP+53]
0736:5975 54                PUSH    SP
0736:5976 45                INC     BP
0736:5977 4E                DEC     SI
0736:5978 56                PUSH    SI
0736:5979 D7                XLATB
0736:597A F1                DB      F1
0736:597B 024653            ADD     AL,[BP+53]
0736:597E 54                PUSH    SP
0736:597F 45                INC     BP
0736:5980 4E                DEC     SI
0736:5981 56                PUSH    SI
0736:5982 C4                DB      C4
0736:5983 F5                CMC
0736:5984 024653            ADD     AL,[BP+53]
0736:5987 54                PUSH    SP
0736:5988 53                PUSH    BX
0736:5989 D7                XLATB
0736:598A F60246            TEST    BYTE PTR [BP+SI],46
0736:598D 4E                DEC     SI
0736:598E 53                PUSH    BX
0736:598F 54                PUSH    SP
0736:5990 53                PUSH    BX
0736:5991 D7                XLATB
0736:5992 FC                CLD
0736:5993 024653            ADD     AL,[BP+53]
0736:5996 55                PUSH    BP
0736:5997 C20703            RET     0307
0736:599A 46                INC     SI
0736:599B 53                PUSH    BX
0736:599C 55                PUSH    BP
0736:599D 42                INC     DX
0736:599E D00E0346          ROR     BYTE PTR [4603],1
0736:59A2 49                DEC     CX
0736:59A3 53                PUSH    BX
0736:59A4 55                PUSH    BP
0736:59A5 C21303            RET     0313
0736:59A8 46                INC     SI
0736:59A9 53                PUSH    BX
0736:59AA 55                PUSH    BP
0736:59AB 42                INC     DX
0736:59AC D21E0346          RCR     BYTE PTR [4603],CL
0736:59B0 53                PUSH    BX
0736:59B1 55                PUSH    BP
0736:59B2 42                INC     DX
0736:59B3 52                PUSH    DX
0736:59B4 D025              SHL     BYTE PTR [DI],1
0736:59B6 034649            ADD     AX,[BP+49]
0736:59B9 53                PUSH    BX
0736:59BA 55                PUSH    BP
0736:59BB 42                INC     DX
0736:59BC D22A              SHR     BYTE PTR [BP+SI],CL
0736:59BE 034654            ADD     AX,[BP+54]
0736:59C1 53                PUSH    BX
0736:59C2 D42E              AAM     2E
0736:59C4 034655            ADD     AX,[BP+55]
0736:59C7 43                INC     BX
0736:59C8 4F                DEC     DI
0736:59C9 CD37              INT     37
0736:59CB 034655            ADD     AX,[BP+55]
0736:59CE 43                INC     BX
0736:59CF 4F                DEC     DI
0736:59D0 4D                DEC     BP
0736:59D1 C9                LEAVE
0736:59D2 40                INC     AX
0736:59D3 034655            ADD     AX,[BP+55]
0736:59D6 43                INC     BX
0736:59D7 4F                DEC     DI
0736:59D8 4D                DEC     BP
0736:59D9 49                DEC     CX
0736:59DA D04903            ROR     BYTE PTR [BX+DI+03],1
0736:59DD 46                INC     SI
0736:59DE 55                PUSH    BP
0736:59DF 43                INC     BX
0736:59E0 4F                DEC     DI
0736:59E1 4D                DEC     BP
0736:59E2 D05203            RCL     BYTE PTR [BP+SI+03],1
0736:59E5 46                INC     SI
0736:59E6 55                PUSH    BP
0736:59E7 43                INC     BX
0736:59E8 4F                DEC     DI
0736:59E9 4D                DEC     BP
0736:59EA 50                PUSH    AX
0736:59EB D05703            RCL     BYTE PTR [BX+03],1
0736:59EE 46                INC     SI
0736:59EF 57                PUSH    DI
0736:59F0 41                INC     CX
0736:59F1 49                DEC     CX
0736:59F2 D45A              AAM     5A
0736:59F4 034658            ADD     AX,[BP+58]
0736:59F7 41                INC     CX
0736:59F8 CD5E              INT     5E
0736:59FA 034658            ADD     AX,[BP+58]
0736:59FD 43                INC     BX
0736:59FE C8650346          ENTER   0365,46
0736:5A02 58                POP     AX
0736:5A03 54                PUSH    SP
0736:5A04 52                PUSH    DX
0736:5A05 41                INC     CX
0736:5A06 43                INC     BX
0736:5A07 D469              AAM     69
0736:5A09 034659            ADD     AX,[BP+59]
0736:5A0C 4C                DEC     SP
0736:5A0D 32D8              XOR     BL,AL
0736:5A0F 6D                INSW
0736:5A10 034659            ADD     AX,[BP+59]
0736:5A13 4C                DEC     SP
0736:5A14 325850            XOR     BL,[BX+SI+50]
0736:5A17 B171              MOV     CL,71
0736:5A19 03484C            ADD     CX,[BX+SI+4C]
0736:5A1C D474              AAM     74
0736:5A1E 034944            ADD     CX,[BX+DI+44]
0736:5A21 49                DEC     CX
0736:5A22 D6                DB      D6
0736:5A23 7703              JA      5A28
0736:5A25 49                DEC     CX
0736:5A26 4D                DEC     BP
0736:5A27 55                PUSH    BP
0736:5A28 CC                INT     3
0736:5A29 8903              MOV     [BP+DI],AX
0736:5A2B 49                DEC     CX
0736:5A2C CE                INTO
0736:5A2D 8E03              MOV     ES,WORD PTR [BP+DI]
0736:5A2F 49                DEC     CX
0736:5A30 4E                DEC     SI
0736:5A31 C3                RET
0736:5A32 94                XCHG    AX,SP
0736:5A33 03494E            ADD     CX,[BX+DI+4E]
0736:5A36 53                PUSH    BX
0736:5A37 C29803            RET     0398
0736:5A3A 49                DEC     CX
0736:5A3B 4E                DEC     SI
0736:5A3C 53                PUSH    BX
0736:5A3D D7                XLATB
0736:5A3E 99                CWD
0736:5A3F 03494E            ADD     CX,[BX+DI+4E]
0736:5A42 53                PUSH    BX
0736:5A43 C49E0349          LES     BX,[BP+4903]
0736:5A47 4E                DEC     SI
0736:5A48 D4A3              AAM     A3
0736:5A4A 03494E            ADD     CX,[BX+DI+4E]
0736:5A4D 54                PUSH    SP
0736:5A4E CF                IRET
0736:5A4F A6                CMPSB
0736:5A50 03494E            ADD     CX,[BX+DI+4E]
0736:5A53 56                PUSH    SI
0736:5A54 C4AA0349          LES     BP,[BP+SI+4903]
0736:5A58 4E                DEC     SI
0736:5A59 56                PUSH    SI
0736:5A5A 4C                DEC     SP
0736:5A5B 50                PUSH    AX
0736:5A5C C7                DB      C7
0736:5A5D AE                SCASB
0736:5A5E 034952            ADD     CX,[BX+DI+52]
0736:5A61 45                INC     BP
0736:5A62 D4AF              AAM     AF
0736:5A64 034952            ADD     CX,[BX+DI+52]
0736:5A67 45                INC     BP
0736:5A68 54                PUSH    SP
0736:5A69 C4B3034A          LES     SI,[BP+DI+4A03]
0736:5A6D C1B9034A41        SAR     WORD PTR [BX+DI+4A03],41
0736:5A72 C5BF034A          LDS     DI,[BX+4A03]
0736:5A76 C2C503            RET     03C5
0736:5A79 4A                DEC     DX
0736:5A7A 42                INC     DX
0736:5A7B C5                DB      C5
0736:5A7C CB                RETF
0736:5A7D 034AC3            ADD     CX,[BP+SI-3D]
0736:5A80 D103              ROL     WORD PTR [BP+DI],1
0736:5A82 4A                DEC     DX
0736:5A83 43                INC     BX
0736:5A84 58                POP     AX
0736:5A85 DAD2              FCMOVBE ST,ST(2)                        [needs 687]
0736:5A87 034A45            ADD     CX,[BP+SI+45]
0736:5A8A 43                INC     BX
0736:5A8B 58                POP     AX
0736:5A8C DAD6              FCMOVBE ST,ST(6)                        [needs 687]
0736:5A8E 034AC5            ADD     CX,[BP+SI-3B]
0736:5A91 DC03              FADD    DOUBLE PTR [BP+DI]
0736:5A93 4A                DEC     DX
0736:5A94 C7                DB      C7
0736:5A95 E203              LOOPW   5A9A
0736:5A97 4A                DEC     DX
0736:5A98 47                INC     DI
0736:5A99 C5                DB      C5
0736:5A9A E8034A            CALL    A4A0
0736:5A9D CC                INT     3
0736:5A9E EE                OUT     DX,AL
0736:5A9F 034A4C            ADD     CX,[BP+SI+4C]
0736:5AA2 C5                DB      C5
0736:5AA3 F4                HLT
0736:5AA4 034A4E            ADD     CX,[BP+SI+4E]
0736:5AA7 C1FA03            SAR     DX,03
0736:5AAA 4A                DEC     DX
0736:5AAB 4E                DEC     SI
0736:5AAC 41                INC     CX
0736:5AAD C500              LDS     AX,[BX+SI]
0736:5AAF 044A              ADD     AL,4A
0736:5AB1 4E                DEC     SI
0736:5AB2 C20604            RET     0406
0736:5AB5 4A                DEC     DX
0736:5AB6 4E                DEC     SI
0736:5AB7 42                INC     DX
0736:5AB8 C50C              LDS     CX,[SI]
0736:5ABA 044A              ADD     AL,4A
0736:5ABC 4E                DEC     SI
0736:5ABD C3                RET
0736:5ABE 1204              ADC     AL,[SI]
0736:5AC0 4A                DEC     DX
0736:5AC1 4E                DEC     SI
0736:5AC2 C518              LDS     BX,[BX+SI]
0736:5AC4 044A              ADD     AL,4A
0736:5AC6 4E                DEC     SI
0736:5AC7 C7                DB      C7
0736:5AC8 1E                PUSH    DS
0736:5AC9 044A              ADD     AL,4A
0736:5ACB 4E                DEC     SI
0736:5ACC 47                INC     DI
0736:5ACD C524              LDS     SP,[SI]
0736:5ACF 044A              ADD     AL,4A
0736:5AD1 4E                DEC     SI
0736:5AD2 CC                INT     3
0736:5AD3 2A04              SUB     AL,[SI]
0736:5AD5 4A                DEC     DX
0736:5AD6 4E                DEC     SI
0736:5AD7 4C                DEC     SP
0736:5AD8 C530              LDS     SI,[BX+SI]
0736:5ADA 044A              ADD     AL,4A
0736:5ADC 4E                DEC     SI
0736:5ADD CF                IRET
0736:5ADE 36                SEG     SS (unused)
0736:5ADF 044A              ADD     AL,4A
0736:5AE1 4E                DEC     SI
0736:5AE2 D03C              SAR     BYTE PTR [SI],1
0736:5AE4 044A              ADD     AL,4A
0736:5AE6 4E                DEC     SI
0736:5AE7 D34204            ROL     WORD PTR [BP+SI+04],CL
0736:5AEA 4A                DEC     DX
0736:5AEB 4E                DEC     SI
0736:5AEC DA4804            FIMUL   DWORD PTR [BX+SI+04]
0736:5AEF 4A                DEC     DX
0736:5AF0 CF                IRET
0736:5AF1 4E                DEC     SI
0736:5AF2 044A              ADD     AL,4A
0736:5AF4 D05404            RCL     BYTE PTR [SI+04],1
0736:5AF7 4A                DEC     DX
0736:5AF8 50                PUSH    AX
0736:5AF9 C55A04            LDS     BX,[BP+SI+04]
0736:5AFC 4A                DEC     DX
0736:5AFD 50                PUSH    AX
0736:5AFE CF                IRET
0736:5AFF 60                PUSHA
0736:5B00 044A              ADD     AL,4A
0736:5B02 D36604            SHL     WORD PTR [BP+04],CL
0736:5B05 4A                DEC     DX
0736:5B06 DA6C04            FISUBR  DWORD PTR [SI+04]
0736:5B09 4A                DEC     DX
0736:5B0A 4D                DEC     BP
0736:5B0B D0                DB      D0
0736:5B0C 7704              JA      5B12
0736:5B0E 4C                DEC     SP
0736:5B0F 41                INC     CX
0736:5B10 48                DEC     AX
0736:5B11 C6                DB      C6
0736:5B12 7A04              JPE     5B18
0736:5B14 4C                DEC     SP
0736:5B15 41                INC     CX
0736:5B16 D27E04            SAR     BYTE PTR [BP+04],CL
0736:5B19 4C                DEC     SP
0736:5B1A 44                INC     SP
0736:5B1B D381044C          ROL     WORD PTR [BX+DI+4C04],CL
0736:5B1F 53                PUSH    BX
0736:5B20 D385044C          ROL     WORD PTR [DI+4C04],CL
0736:5B24 45                INC     BP
0736:5B25 D388044C          ROR     WORD PTR [BX+SI+4C04],CL
0736:5B29 46                INC     SI
0736:5B2A D38C044C          ROR     WORD PTR [SI+4C04],CL
0736:5B2E 47                INC     DI
0736:5B2F D390044C          RCL     WORD PTR [BX+SI+4C04],CL
0736:5B33 45                INC     BP
0736:5B34 C193044C45        RCL     WORD PTR [BP+DI+4C04],45
0736:5B39 41                INC     CX
0736:5B3A 56                PUSH    SI
0736:5B3B C597044C          LDS     DX,[BX+4C04]
0736:5B3F 47                INC     DI
0736:5B40 44                INC     SP
0736:5B41 D49B              AAM     9B
0736:5B43 044C              ADD     AL,4C
0736:5B45 49                DEC     CX
0736:5B46 44                INC     SP
0736:5B47 D49F              AAM     9F
0736:5B49 044C              ADD     AL,4C
0736:5B4B 4C                DEC     SP
0736:5B4C 44                INC     SP
0736:5B4D D4A3              AAM     A3
0736:5B4F 044C              ADD     AL,4C
0736:5B51 4D                DEC     BP
0736:5B52 53                PUSH    BX
0736:5B53 D7                XLATB
0736:5B54 A7                CMPSW
0736:5B55 044C              ADD     AL,4C
0736:5B57 4F                DEC     DI
0736:5B58 43                INC     BX
0736:5B59 CB                RETF
0736:5B5A A9044C            TEST    AX,4C04
0736:5B5D 4F                DEC     DI
0736:5B5E 44                INC     SP
0736:5B5F 53                PUSH    BX
0736:5B60 C2AC04            RET     04AC
0736:5B63 4C                DEC     SP
0736:5B64 4F                DEC     DI
0736:5B65 44                INC     SP
0736:5B66 53                PUSH    BX
0736:5B67 D7                XLATB
0736:5B68 AD                LODSW
0736:5B69 044C              ADD     AL,4C
0736:5B6B 4F                DEC     DI
0736:5B6C 44                INC     SP
0736:5B6D 53                PUSH    BX
0736:5B6E C4B1044C          LES     SI,[BX+DI+4C04]
0736:5B72 4F                DEC     DI
0736:5B73 4F                DEC     DI
0736:5B74 D0                DB      D0
0736:5B75 B404              MOV     AH,04
0736:5B77 4C                DEC     SP
0736:5B78 4F                DEC     DI
0736:5B79 4F                DEC     DI
0736:5B7A 50                PUSH    AX
0736:5B7B D7                XLATB
0736:5B7C B504              MOV     CH,04
0736:5B7E 4C                DEC     SP
0736:5B7F 4F                DEC     DI
0736:5B80 4F                DEC     DI
0736:5B81 50                PUSH    AX
0736:5B82 C4B9044C          LES     DI,[BX+DI+4C04]
0736:5B86 4F                DEC     DI
0736:5B87 4F                DEC     DI
0736:5B88 50                PUSH    AX
0736:5B89 DABC044C          FIDIVR  DWORD PTR [SI+4C04]
0736:5B8D 4F                DEC     DI
0736:5B8E 4F                DEC     DI
0736:5B8F 50                PUSH    AX
0736:5B90 C5BF044C          LDS     DI,[BX+4C04]
0736:5B94 4F                DEC     DI
0736:5B95 4F                DEC     DI
0736:5B96 50                PUSH    AX
0736:5B97 45                INC     BP
0736:5B98 D7                XLATB
0736:5B99 C0044C            ROL     BYTE PTR [SI],4C
0736:5B9C 4F                DEC     DI
0736:5B9D 4F                DEC     DI
0736:5B9E 50                PUSH    AX
0736:5B9F 45                INC     BP
0736:5BA0 C4                DB      C4
0736:5BA1 C404              LES     AX,[SI]
0736:5BA3 4C                DEC     SP
0736:5BA4 4F                DEC     DI
0736:5BA5 4F                DEC     DI
0736:5BA6 50                PUSH    AX
0736:5BA7 5A                POP     DX
0736:5BA8 D7                XLATB
0736:5BA9 C504              LDS     AX,[SI]
0736:5BAB 4C                DEC     SP
0736:5BAC 4F                DEC     DI
0736:5BAD 4F                DEC     DI
0736:5BAE 50                PUSH    AX
0736:5BAF 5A                POP     DX
0736:5BB0 C4                DB      C4
0736:5BB1 C9                LEAVE
0736:5BB2 044C              ADD     AL,4C
0736:5BB4 4F                DEC     DI
0736:5BB5 4F                DEC     DI
0736:5BB6 50                PUSH    AX
0736:5BB7 4E                DEC     SI
0736:5BB8 DACC              FCMOVE  ST,ST(4)                        [needs 687]
0736:5BBA 044C              ADD     AL,4C
0736:5BBC 4F                DEC     DI
0736:5BBD 4F                DEC     DI
0736:5BBE 50                PUSH    AX
0736:5BBF 4E                DEC     SI
0736:5BC0 C5                DB      C5
0736:5BC1 CF                IRET
0736:5BC2 044C              ADD     AL,4C
0736:5BC4 4F                DEC     DI
0736:5BC5 4F                DEC     DI
0736:5BC6 50                PUSH    AX
0736:5BC7 4E                DEC     SI
0736:5BC8 45                INC     BP
0736:5BC9 D7                XLATB
0736:5BCA D004              ROL     BYTE PTR [SI],1
0736:5BCC 4C                DEC     SP
0736:5BCD 4F                DEC     DI
0736:5BCE 4F                DEC     DI
0736:5BCF 50                PUSH    AX
0736:5BD0 4E                DEC     SI
0736:5BD1 45                INC     BP
0736:5BD2 C4                DB      C4
0736:5BD3 D404              AAM     04
0736:5BD5 4C                DEC     SP
0736:5BD6 4F                DEC     DI
0736:5BD7 4F                DEC     DI
0736:5BD8 50                PUSH    AX
0736:5BD9 4E                DEC     SI
0736:5BDA 5A                POP     DX
0736:5BDB D7                XLATB
0736:5BDC D504              AAD     04
0736:5BDE 4C                DEC     SP
0736:5BDF 4F                DEC     DI
0736:5BE0 4F                DEC     DI
0736:5BE1 50                PUSH    AX
0736:5BE2 4E                DEC     SI
0736:5BE3 5A                POP     DX
0736:5BE4 C4                DB      C4
0736:5BE5 D904              FLD     FLOAT PTR [SI]
0736:5BE7 4C                DEC     SP
0736:5BE8 53                PUSH    BX
0736:5BE9 CC                INT     3
0736:5BEA DD04              FLD     DOUBLE PTR [SI]
0736:5BEC 4C                DEC     SP
0736:5BED 54                PUSH    SP
0736:5BEE D2E1              SHL     CL,CL
0736:5BF0 044D              ADD     AL,4D
0736:5BF2 4F                DEC     DI
0736:5BF3 D6                DB      D6
0736:5BF4 06                PUSH    ES
0736:5BF5 054D4F            ADD     AX,4F4D
0736:5BF8 56                PUSH    SI
0736:5BF9 53                PUSH    BX
0736:5BFA C20905            RET     0509
0736:5BFD 4D                DEC     BP
0736:5BFE 4F                DEC     DI
0736:5BFF 56                PUSH    SI
0736:5C00 53                PUSH    BX
0736:5C01 D7                XLATB
0736:5C02 0A05              OR      AL,[DI]
0736:5C04 4D                DEC     BP
0736:5C05 4F                DEC     DI
0736:5C06 56                PUSH    SI
0736:5C07 53                PUSH    BX
0736:5C08 C40E054D          LES     CX,[4D05]
0736:5C0C 4F                DEC     DI
0736:5C0D 56                PUSH    SI
0736:5C0E 53                PUSH    BX
0736:5C0F D815              FCOM    FLOAT PTR [DI]
0736:5C11 054D4F            ADD     AX,4F4D
0736:5C14 56                PUSH    SI
0736:5C15 5A                POP     DX
0736:5C16 D81C              FCOMP   FLOAT PTR [SI]
0736:5C18 054D55            ADD     AX,554D
0736:5C1B CC                INT     3
0736:5C1C 1F                POP     DS
0736:5C1D 054E45            ADD     AX,454E
0736:5C20 C7                DB      C7
0736:5C21 2305              AND     AX,[DI]
0736:5C23 4E                DEC     SI
0736:5C24 4F                DEC     DI
0736:5C25 D026054E          SHL     BYTE PTR [4E05],1
0736:5C29 4F                DEC     DI
0736:5C2A D42A              AAM     2A
0736:5C2C 054FD2            ADD     AX,D24F
0736:5C2F 3805              CMP     [DI],AL
0736:5C31 4F                DEC     DI
0736:5C32 52                PUSH    DX
0736:5C33 C7                DB      C7
0736:5C34 3905              CMP     [DI],AX
0736:5C36 4F                DEC     DI
0736:5C37 55                PUSH    BP
0736:5C38 D43E              AAM     3E
0736:5C3A 054F55            ADD     AX,554F
0736:5C3D 54                PUSH    SP
0736:5C3E 53                PUSH    BX
0736:5C3F C24205            RET     0542
0736:5C42 4F                DEC     DI
0736:5C43 55                PUSH    BP
0736:5C44 54                PUSH    SP
0736:5C45 53                PUSH    BX
0736:5C46 D7                XLATB
0736:5C47 43                INC     BX
0736:5C48 054F55            ADD     AX,554F
0736:5C4B 54                PUSH    SP
0736:5C4C 53                PUSH    BX
0736:5C4D C44805            LES     CX,[BX+SI+05]
0736:5C50 50                PUSH    AX
0736:5C51 4F                DEC     DI
0736:5C52 D05905            RCR     BYTE PTR [BX+DI+05],1
0736:5C55 50                PUSH    AX
0736:5C56 4F                DEC     DI
0736:5C57 50                PUSH    AX
0736:5C58 C15A0550          RCR     WORD PTR [BP+SI+05],50
0736:5C5C 4F                DEC     DI
0736:5C5D 50                PUSH    AX
0736:5C5E 41                INC     CX
0736:5C5F C45F05            LES     BX,[BX+05]
0736:5C62 50                PUSH    AX
0736:5C63 4F                DEC     DI
0736:5C64 50                PUSH    AX
0736:5C65 C6                DB      C6
0736:5C66 60                PUSHA
0736:5C67 05504F            ADD     AX,4F50
0736:5C6A 50                PUSH    AX
0736:5C6B 46                INC     SI
0736:5C6C C46405            LES     SP,[SI+05]
0736:5C6F 50                PUSH    AX
0736:5C70 55                PUSH    BP
0736:5C71 53                PUSH    BX
0736:5C72 C87D0550          ENTER   057D,50
0736:5C76 55                PUSH    BP
0736:5C77 53                PUSH    BX
0736:5C78 48                DEC     AX
0736:5C79 C17E0550          SAR     WORD PTR [BP+05],50
0736:5C7D 55                PUSH    BP
0736:5C7E 53                PUSH    BX
0736:5C7F 48                DEC     AX
0736:5C80 41                INC     CX
0736:5C81 C4830550          LES     AX,[BP+DI+5005]
0736:5C85 55                PUSH    BP
0736:5C86 53                PUSH    BX
0736:5C87 48                DEC     AX
0736:5C88 C684055055        MOV     BYTE PTR [SI+5005],55
0736:5C8D 53                PUSH    BX
0736:5C8E 48                DEC     AX
0736:5C8F 46                INC     SI
0736:5C90 C4880552          LES     CX,[BX+SI+5205]
0736:5C94 43                INC     BX
0736:5C95 CC                INT     3
0736:5C96 90                NOP
0736:5C97 055243            ADD     AX,4352
0736:5C9A D2980552          RCR     BYTE PTR [BX+SI+5205],CL
0736:5C9E 4F                DEC     DI
0736:5C9F CC                INT     3
0736:5CA0 A00552            MOV     AL,[5205]
0736:5CA3 4F                DEC     DI
0736:5CA4 D2A80552          SHR     BYTE PTR [BX+SI+5205],CL
0736:5CA8 44                INC     SP
0736:5CA9 4D                DEC     BP
0736:5CAA 53                PUSH    BX
0736:5CAB D2AC0552          SHR     BYTE PTR [SI+5205],CL
0736:5CAF 45                INC     BP
0736:5CB0 D0AE0552          SHR     BYTE PTR [BP+5205],1
0736:5CB4 45                INC     BP
0736:5CB5 50                PUSH    AX
0736:5CB6 C5B00552          LDS     SI,[BX+SI+5205]
0736:5CBA 45                INC     BP
0736:5CBB 50                PUSH    AX
0736:5CBC 4E                DEC     SI
0736:5CBD C5B20552          LDS     SI,[BP+SI+5205]
0736:5CC1 45                INC     BP
0736:5CC2 D4B7              AAM     B7
0736:5CC4 055245            ADD     AX,4552
0736:5CC7 54                PUSH    SP
0736:5CC8 C6                DB      C6
0736:5CC9 B80552            MOV     AX,5205
0736:5CCC 45                INC     BP
0736:5CCD 54                PUSH    SP
0736:5CCE 46                INC     SI
0736:5CCF C4BE0552          LES     DI,[BP+5205]
0736:5CD3 53                PUSH    BX
0736:5CD4 CDC2              INT     C2
0736:5CD6 055341            ADD     AX,4153
0736:5CD9 48                DEC     AX
0736:5CDA C6C505            MOV     CH,05
0736:5CDD 53                PUSH    BX
0736:5CDE 41                INC     CX
0736:5CDF CC                INT     3
0736:5CE0 CD05              INT     05
0736:5CE2 53                PUSH    BX
0736:5CE3 41                INC     CX
0736:5CE4 D2D5              RCL     CH,CL
0736:5CE6 055345            ADD     AX,4553
0736:5CE9 C7                DB      C7
0736:5CEA E205              LOOPW   5CF1
0736:5CEC 45                INC     BP
0736:5CED D3E4              SHL     SP,CL
0736:5CEF 0543D3            ADD     AX,D343
0736:5CF2 E605              OUT     05,AL
0736:5CF4 53                PUSH    BX
0736:5CF5 D3E8              SHR     AX,CL
0736:5CF7 0544D3            ADD     AX,D344
0736:5CFA EA0546D3EC        JMP     ECD3:4605
0736:5CFF 0547D3            ADD     AX,D347
0736:5D02 EE                OUT     DX,AL
0736:5D03 055348            ADD     AX,4853
0736:5D06 CC                INT     3
0736:5D07 F60553            TEST    BYTE PTR [DI],53
0736:5D0A 48                DEC     AX
0736:5D0B D2FE              SAR     DH,CL
0736:5D0D 055342            ADD     AX,4253
0736:5D10 C20C06            RET     060C
0736:5D13 53                PUSH    BX
0736:5D14 43                INC     BX
0736:5D15 41                INC     CX
0736:5D16 53                PUSH    BX
0736:5D17 C20F06            RET     060F
0736:5D1A 53                PUSH    BX
0736:5D1B 43                INC     BX
0736:5D1C 41                INC     CX
0736:5D1D 53                PUSH    BX
0736:5D1E D7                XLATB
0736:5D1F 10065343          ADC     [4353],AL
0736:5D23 41                INC     CX
0736:5D24 53                PUSH    BX
0736:5D25 C414              LES     DX,[SI]
0736:5D27 06                PUSH    ES
0736:5D28 53                PUSH    BX
0736:5D29 45                INC     BP
0736:5D2A 54                PUSH    SP
0736:5D2B C11806            RCR     WORD PTR [BX+SI],06
0736:5D2E 53                PUSH    BX
0736:5D2F 45                INC     BP
0736:5D30 54                PUSH    SP
0736:5D31 41                INC     CX
0736:5D32 C51C              LDS     BX,[SI]
0736:5D34 06                PUSH    ES
0736:5D35 53                PUSH    BX
0736:5D36 45                INC     BP
0736:5D37 54                PUSH    SP
0736:5D38 C22006            RET     0620
0736:5D3B 53                PUSH    BX
0736:5D3C 45                INC     BP
0736:5D3D 54                PUSH    SP
0736:5D3E 42                INC     DX
0736:5D3F C524              LDS     SP,[SI]
0736:5D41 06                PUSH    ES
0736:5D42 53                PUSH    BX
0736:5D43 45                INC     BP
0736:5D44 54                PUSH    SP
0736:5D45 C3                RET
0736:5D46 28065345          SUB     [4553],AL
0736:5D4A 54                PUSH    SP
0736:5D4B C52C              LDS     BP,[SI]
0736:5D4D 06                PUSH    ES
0736:5D4E 53                PUSH    BX
0736:5D4F 45                INC     BP
0736:5D50 54                PUSH    SP
0736:5D51 C7                DB      C7
0736:5D52 30065345          XOR     [4553],AL
0736:5D56 54                PUSH    SP
0736:5D57 47                INC     DI
0736:5D58 C534              LDS     SI,[SI]
0736:5D5A 06                PUSH    ES
0736:5D5B 53                PUSH    BX
0736:5D5C 45                INC     BP
0736:5D5D 54                PUSH    SP
0736:5D5E CC                INT     3
0736:5D5F 38065345          CMP     [4553],AL
0736:5D63 54                PUSH    SP
0736:5D64 4C                DEC     SP
0736:5D65 C53C              LDS     DI,[SI]
0736:5D67 06                PUSH    ES
0736:5D68 53                PUSH    BX
0736:5D69 45                INC     BP
0736:5D6A 54                PUSH    SP
0736:5D6B 4E                DEC     SI
0736:5D6C C1400653          ROL     WORD PTR [BX+SI+06],53
0736:5D70 45                INC     BP
0736:5D71 54                PUSH    SP
0736:5D72 4E                DEC     SI
0736:5D73 41                INC     CX
0736:5D74 C54406            LDS     AX,[SI+06]
0736:5D77 53                PUSH    BX
0736:5D78 45                INC     BP
0736:5D79 54                PUSH    SP
0736:5D7A 4E                DEC     SI
0736:5D7B C24806            RET     0648
0736:5D7E 53                PUSH    BX
0736:5D7F 45                INC     BP
0736:5D80 54                PUSH    SP
0736:5D81 4E                DEC     SI
0736:5D82 42                INC     DX
0736:5D83 C54C06            LDS     CX,[SI+06]
0736:5D86 53                PUSH    BX
0736:5D87 45                INC     BP
0736:5D88 54                PUSH    SP
0736:5D89 4E                DEC     SI
0736:5D8A C3                RET
0736:5D8B 50                PUSH    AX
0736:5D8C 06                PUSH    ES
0736:5D8D 53                PUSH    BX
0736:5D8E 45                INC     BP
0736:5D8F 54                PUSH    SP
0736:5D90 4E                DEC     SI
0736:5D91 C55406            LDS     DX,[SI+06]
0736:5D94 53                PUSH    BX
0736:5D95 45                INC     BP
0736:5D96 54                PUSH    SP
0736:5D97 4E                DEC     SI
0736:5D98 C7                DB      C7
0736:5D99 58                POP     AX
0736:5D9A 06                PUSH    ES
0736:5D9B 53                PUSH    BX
0736:5D9C 45                INC     BP
0736:5D9D 54                PUSH    SP
0736:5D9E 4E                DEC     SI
0736:5D9F 47                INC     DI
0736:5DA0 C55C06            LDS     BX,[SI+06]
0736:5DA3 53                PUSH    BX
0736:5DA4 45                INC     BP
0736:5DA5 54                PUSH    SP
0736:5DA6 4E                DEC     SI
0736:5DA7 CC                INT     3
0736:5DA8 60                PUSHA
0736:5DA9 06                PUSH    ES
0736:5DAA 53                PUSH    BX
0736:5DAB 45                INC     BP
0736:5DAC 54                PUSH    SP
0736:5DAD 4E                DEC     SI
0736:5DAE 4C                DEC     SP
0736:5DAF C56406            LDS     SP,[SI+06]
0736:5DB2 53                PUSH    BX
0736:5DB3 45                INC     BP
0736:5DB4 54                PUSH    SP
0736:5DB5 4E                DEC     SI
0736:5DB6 CF                IRET
0736:5DB7 680653            PUSH    WORD 5306
0736:5DBA 45                INC     BP
0736:5DBB 54                PUSH    SP
0736:5DBC 4E                DEC     SI
0736:5DBD D06C06            SHR     BYTE PTR [SI+06],1
0736:5DC0 53                PUSH    BX
0736:5DC1 45                INC     BP
0736:5DC2 54                PUSH    SP
0736:5DC3 4E                DEC     SI
0736:5DC4 D3                DB      D3
0736:5DC5 7006              JO      5DCD
0736:5DC7 53                PUSH    BX
0736:5DC8 45                INC     BP
0736:5DC9 54                PUSH    SP
0736:5DCA 4E                DEC     SI
0736:5DCB DA7406            FIDIV   DWORD PTR [SI+06]
0736:5DCE 53                PUSH    BX
0736:5DCF 45                INC     BP
0736:5DD0 54                PUSH    SP
0736:5DD1 CF                IRET
0736:5DD2 7806              JS      5DDA
0736:5DD4 53                PUSH    BX
0736:5DD5 45                INC     BP
0736:5DD6 54                PUSH    SP
0736:5DD7 D07C06            SAR     BYTE PTR [SI+06],1
0736:5DDA 53                PUSH    BX
0736:5DDB 45                INC     BP
0736:5DDC 54                PUSH    SP
0736:5DDD 50                PUSH    AX
0736:5DDE C5800653          LDS     AX,[BX+SI+5306]
0736:5DE2 45                INC     BP
0736:5DE3 54                PUSH    SP
0736:5DE4 50                PUSH    AX
0736:5DE5 CF                IRET
0736:5DE6 84065345          TEST    [4553],AL
0736:5DEA 54                PUSH    SP
0736:5DEB D3880653          ROR     WORD PTR [BX+SI+5306],CL
0736:5DEF 45                INC     BP
0736:5DF0 54                PUSH    SP
0736:5DF1 DA8C0653          FIMUL   DWORD PTR [SI+5306]
0736:5DF5 47                INC     DI
0736:5DF6 44                INC     SP
0736:5DF7 D490              AAM     90
0736:5DF9 06                PUSH    ES
0736:5DFA 53                PUSH    BX
0736:5DFB 49                DEC     CX
0736:5DFC 44                INC     SP
0736:5DFD D494              AAM     94
0736:5DFF 06                PUSH    ES
0736:5E00 53                PUSH    BX
0736:5E01 48                DEC     AX
0736:5E02 4C                DEC     SP
0736:5E03 C49B0653          LES     BX,[BP+DI+5306]
0736:5E07 48                DEC     AX
0736:5E08 52                PUSH    DX
0736:5E09 C4A20653          LES     SP,[BP+SI+5306]
0736:5E0D 4C                DEC     SP
0736:5E0E 44                INC     SP
0736:5E0F D4A6              AAM     A6
0736:5E11 06                PUSH    ES
0736:5E12 53                PUSH    BX
0736:5E13 4D                DEC     BP
0736:5E14 53                PUSH    BX
0736:5E15 D7                XLATB
0736:5E16 AA                STOSB
0736:5E17 06                PUSH    ES
0736:5E18 53                PUSH    BX
0736:5E19 54                PUSH    SP
0736:5E1A C3                RET
0736:5E1B AD                LODSW
0736:5E1C 06                PUSH    ES
0736:5E1D 53                PUSH    BX
0736:5E1E 54                PUSH    SP
0736:5E1F C4B00653          LES     SI,[BX+SI+5306]
0736:5E23 54                PUSH    SP
0736:5E24 C9                LEAVE
0736:5E25 B306              MOV     BL,06
0736:5E27 53                PUSH    BX
0736:5E28 54                PUSH    SP
0736:5E29 4F                DEC     DI
0736:5E2A 53                PUSH    BX
0736:5E2B C2B606            RET     06B6
0736:5E2E 53                PUSH    BX
0736:5E2F 54                PUSH    SP
0736:5E30 4F                DEC     DI
0736:5E31 53                PUSH    BX
0736:5E32 D7                XLATB
0736:5E33 B706              MOV     BH,06
0736:5E35 53                PUSH    BX
0736:5E36 54                PUSH    SP
0736:5E37 4F                DEC     DI
0736:5E38 53                PUSH    BX
0736:5E39 C4BB0653          LES     DI,[BP+DI+5306]
0736:5E3D 54                PUSH    SP
0736:5E3E D2BF0653          SAR     BYTE PTR [BX+5306],CL
0736:5E42 55                PUSH    BP
0736:5E43 C2CD06            RET     06CD
0736:5E46 54                PUSH    SP
0736:5E47 45                INC     BP
0736:5E48 53                PUSH    BX
0736:5E49 D4D6              AAM     D6
0736:5E4B 06                PUSH    ES
0736:5E4C 56                PUSH    SI
0736:5E4D 45                INC     BP
0736:5E4E 52                PUSH    DX
0736:5E4F D2DA              RCR     DL,CL
0736:5E51 06                PUSH    ES
0736:5E52 56                PUSH    SI
0736:5E53 45                INC     BP
0736:5E54 52                PUSH    DX
0736:5E55 D7                XLATB
0736:5E56 DE065741          FIADD   WORD PTR [4157]
0736:5E5A 49                DEC     CX
0736:5E5B D4E1              AAM     E1
0736:5E5D 06                PUSH    ES
0736:5E5E 57                PUSH    DI
0736:5E5F 42                INC     DX
0736:5E60 49                DEC     CX
0736:5E61 4E                DEC     SI
0736:5E62 56                PUSH    SI
0736:5E63 C4                DB      C4
0736:5E64 E506              IN      AX,06
0736:5E66 57                PUSH    DI
0736:5E67 52                PUSH    DX
0736:5E68 4D                DEC     BP
0736:5E69 53                PUSH    BX
0736:5E6A D2E9              SHR     CL,CL
0736:5E6C 06                PUSH    ES
0736:5E6D 58                POP     AX
0736:5E6E 41                INC     CX
0736:5E6F 44                INC     SP
0736:5E70 C4                DB      C4
0736:5E71 EE                OUT     DX,AL
0736:5E72 06                PUSH    ES
0736:5E73 58                POP     AX
0736:5E74 43                INC     BX
0736:5E75 48                DEC     AX
0736:5E76 C7                DB      C7
0736:5E77 F9                STC
0736:5E78 06                PUSH    ES
0736:5E79 58                POP     AX
0736:5E7A 4C                DEC     SP
0736:5E7B 41                INC     CX
0736:5E7C D4FC              AAM     FC
0736:5E7E 06                PUSH    ES
0736:5E7F 58                POP     AX
0736:5E80 4C                DEC     SP
0736:5E81 41                INC     CX
0736:5E82 54                PUSH    SP
0736:5E83 C2FF06            RET     06FF
0736:5E86 58                POP     AX
0736:5E87 4F                DEC     DI
0736:5E88 D2161619          RCL     BYTE PTR [1916],CL
0736:5E8C 190D              SBB     [DI],CX
0736:5E8E 0DBCBC            OR      AX,BCBC
0736:5E91 16                PUSH    SS
0736:5E92 16                PUSH    SS
0736:5E93 1919              SBB     [BX+DI],BX
0736:5E95 0D0DBE            OR      AX,BE0D
0736:5E98 02161619          ADD     DL,[1916]
0736:5E9C 190D              SBB     [DI],CX
0736:5E9E 0DC0C0            OR      AX,C0C0
0736:5EA1 16                PUSH    SS
0736:5EA2 16                PUSH    SS
0736:5EA3 1919              SBB     [BX+DI],BX
0736:5EA5 0D0DC2            OR      AX,C20D
0736:5EA8 C21616            RET     1616
0736:5EAB 1919              SBB     [BX+DI],BX
0736:5EAD 0D0D0A            OR      AX,0A0D
0736:5EB0 0C16              OR      AL,16
0736:5EB2 16                PUSH    SS
0736:5EB3 1919              SBB     [BX+DI],BX
0736:5EB5 0D0D0A            OR      AX,0A0D
0736:5EB8 0C16              OR      AL,16
0736:5EBA 16                PUSH    SS
0736:5EBB 1919              SBB     [BX+DI],BX
0736:5EBD 0D0D0A            OR      AX,0A0D
0736:5EC0 0C16              OR      AL,16
0736:5EC2 16                PUSH    SS
0736:5EC3 1919              SBB     [BX+DI],BX
0736:5EC5 0D0D0A            OR      AX,0A0D
0736:5EC8 0C37              OR      AL,37
0736:5ECA 37                AAA
0736:5ECB 37                AAA
0736:5ECC 37                AAA
0736:5ECD 37                AAA
0736:5ECE 37                AAA
0736:5ECF 37                AAA
0736:5ED0 37                AAA
0736:5ED1 37                AAA
0736:5ED2 37                AAA
0736:5ED3 37                AAA
0736:5ED4 37                AAA
0736:5ED5 37                AAA
0736:5ED6 37                AAA
0736:5ED7 37                AAA
0736:5ED8 37                AAA
0736:5ED9 37                AAA
0736:5EDA 37                AAA
0736:5EDB 37                AAA
0736:5EDC 37                AAA
0736:5EDD 37                AAA
0736:5EDE 37                AAA
0736:5EDF 37                AAA
0736:5EE0 37                AAA
0736:5EE1 37                AAA
0736:5EE2 37                AAA
0736:5EE3 37                AAA
0736:5EE4 37                AAA
0736:5EE5 37                AAA
0736:5EE6 37                AAA
0736:5EE7 37                AAA
0736:5EE8 37                AAA
0736:5EE9 0C0C              OR      AL,0C
0736:5EEB 1F                POP     DS
0736:5EEC 1C0A              SBB     AL,0A
0736:5EEE 0A0A              OR      CL,[BP+SI]
0736:5EF0 0A9B619E          OR      BL,[BP+DI+9E61]
0736:5EF4 59                POP     CX
0736:5EF5 0C0C              OR      AL,0C
0736:5EF7 0C0C              OR      AL,0C
0736:5EF9 7373              JAE     5F6E
0736:5EFB 7373              JAE     5F70
0736:5EFD 7373              JAE     5F72
0736:5EFF 7373              JAE     5F74
0736:5F01 7373              JAE     5F76
0736:5F03 7373              JAE     5F78
0736:5F05 7373              JAE     5F7A
0736:5F07 7373              JAE     5F7C
0736:5F09 0404              ADD     AL,04
0736:5F0B 0004              ADD     [SI],AL
0736:5F0D 16                PUSH    SS
0736:5F0E 16                PUSH    SS
0736:5F0F 1919              SBB     [BX+DI],BX
0736:5F11 16                PUSH    SS
0736:5F12 16                PUSH    SS
0736:5F13 1919              SBB     [BX+DI],BX
0736:5F15 791F              JNS     5F36
0736:5F17 7C04              JL      5F1D
0736:5F19 0CB6              OR      AL,B6
0736:5F1B B6B6              MOV     DH,B6
0736:5F1D B6B6              MOV     DH,B6
0736:5F1F B6B6              MOV     DH,B6
0736:5F21 0C0C              OR      AL,0C
0736:5F23 2F                DAS
0736:5F24 0C0C              OR      AL,0C
0736:5F26 0C0C              OR      AL,0C
0736:5F28 0C7F              OR      AL,7F
0736:5F2A 7F82              JG      5EAE
0736:5F2C 82                DB      82
0736:5F2D 0C0C              OR      AL,0C
0736:5F2F 0C0C              OR      AL,0C
0736:5F31 0D0D0C            OR      AX,0C0D
0736:5F34 0C0C              OR      AL,0C
0736:5F36 0C0C              OR      AL,0C
0736:5F38 0C85              OR      AL,85
0736:5F3A 85858585          TEST    [DI+8585],AX
0736:5F3E 85858588          TEST    [DI+8885],AX
0736:5F42 88888888          MOV     [BX+SI+8888],CL
0736:5F46 88888804          MOV     [BX+SI+0488],CL
0736:5F4A 04AA              ADD     AL,AA
0736:5F4C 0C1F              OR      AL,1F
0736:5F4E 1F                POP     DS
0736:5F4F 0404              ADD     AL,04
0736:5F51 390C              CMP     [SI],CX
0736:5F53 AA                STOSB
0736:5F54 0C6F              OR      AL,6F
0736:5F56 710C              JNO     5F64
0736:5F58 0C04              OR      AL,04
0736:5F5A 0404              ADD     AL,04
0736:5F5C 0471              ADD     AL,71
0736:5F5E 7100              JNO     5F60
0736:5F60 0C06              OR      AL,06
0736:5F62 06                PUSH    ES
0736:5F63 06                PUSH    ES
0736:5F64 06                PUSH    ES
0736:5F65 06                PUSH    ES
0736:5F66 06                PUSH    ES
0736:5F67 06                PUSH    ES
0736:5F68 06                PUSH    ES
0736:5F69 7373              JAE     5FDE
0736:5F6B 7373              JAE     5FE0
0736:5F6D 696993932D        IMUL    BP,[BX+DI-6D],2D93
0736:5F72 2D2F73            SUB     AX,732F
0736:5F75 6C                INSB
0736:5F76 6C                INSB
0736:5F77 96                XCHG    AX,SI
0736:5F78 96                XCHG    AX,SI
0736:5F79 0A00              OR      AL,[BX+SI]
0736:5F7B 0A0A              OR      CL,[BP+SI]
0736:5F7D 0C0C              OR      AL,0C
0736:5F7F 0404              ADD     AL,04
0736:5F81 0C0C              OR      AL,0C
0736:5F83 0C0C              OR      AL,0C
0736:5F85 0C0C              OR      AL,0C
0736:5F87 0404              ADD     AL,04
0736:5F89 1010              ADC     [BX+SI],DL
0736:5F8B 1010              ADC     [BX+SI],DL
0736:5F8D 1010              ADC     [BX+SI],DL
0736:5F8F 1010              ADC     [BX+SI],DL
0736:5F91 1313              ADC     DX,[BP+DI]
0736:5F93 1313              ADC     DX,[BP+DI]
0736:5F95 1313              ADC     DX,[BP+DI]
0736:5F97 1313              ADC     DX,[BP+DI]
0736:5F99 A1A1A1            MOV     AX,[A1A1]
0736:5F9C A1A1A1            MOV     AX,[A1A1]
0736:5F9F 00A1A4A4          ADD     [BX+DI+A4A4],AH
0736:5FA3 A4                MOVSB
0736:5FA4 A4                MOVSB
0736:5FA5 A4                MOVSB
0736:5FA6 A4                MOVSB
0736:5FA7 00A4A7A7          ADD     [SI+A7A7],AH
0736:5FAB A7                CMPSW
0736:5FAC A7                CMPSW
0736:5FAD A7                CMPSW
0736:5FAE A7                CMPSW
0736:5FAF 00A71000          ADD     [BX+0010],AH
0736:5FB3 353535            XOR     AX,3535
0736:5FB6 353535            XOR     AX,3535
0736:5FB9 353575            XOR     AX,7535
0736:5FBC 317531            XOR     [DI+31],SI
0736:5FBF 7500              JNZ     5FC1
0736:5FC1 7577              JNZ     603A
0736:5FC3 7777              JA      603C
0736:5FC5 7777              JA      603E
0736:5FC7 0000              ADD     [BX+SI],AL
0736:5FC9 55                PUSH    BP
0736:5FCA 55                PUSH    BP
0736:5FCB 55                PUSH    BP
0736:5FCC 55                PUSH    BP
0736:5FCD 7500              JNZ     5FCF
0736:5FCF 7755              JA      6026
0736:5FD1 3C3C              CMP     AL,3C
0736:5FD3 3C3C              CMP     AL,3C
0736:5FD5 3C3C              CMP     AL,3C
0736:5FD7 3C3C              CMP     AL,3C
0736:5FD9 40                INC     AX
0736:5FDA 40                INC     AX
0736:5FDB 52                PUSH    DX
0736:5FDC 52                PUSH    DX
0736:5FDD 40                INC     AX
0736:5FDE 40                INC     AX
0736:5FDF 40                INC     AX
0736:5FE0 40                INC     AX
0736:5FE1 3C00              CMP     AL,00
0736:5FE3 3C3C              CMP     AL,3C
0736:5FE5 55                PUSH    BP
0736:5FE6 4C                DEC     SP
0736:5FE7 55                PUSH    BP
0736:5FE8 4C                DEC     SP
0736:5FE9 50                PUSH    AX
0736:5FEA 52                PUSH    DX
0736:5FEB 0800              OR      [BX+SI],AL
0736:5FED 0808              OR      [BX+SI],CL
0736:5FEF 0808              OR      [BX+SI],CL
0736:5FF1 4A                DEC     DX
0736:5FF2 4A                DEC     DX
0736:5FF3 4A                DEC     DX
0736:5FF4 4A                DEC     DX
0736:5FF5 4A                DEC     DX
0736:5FF6 4A                DEC     DX
0736:5FF7 4A                DEC     DX
0736:5FF8 4A                DEC     DX
0736:5FF9 40                INC     AX
0736:5FFA 40                INC     AX
0736:5FFB 40                INC     AX
0736:5FFC 40                INC     AX
0736:5FFD 0008              ADD     [BX+SI],CL
0736:5FFF 0000              ADD     [BX+SI],AL
0736:6001 4A                DEC     DX
0736:6002 004A4A            ADD     [BP+SI+4A],CL
0736:6005 004E00            ADD     [BP+00],CL
0736:6008 4E                DEC     SI
0736:6009 40                INC     AX
0736:600A 40                INC     AX
0736:600B 40                INC     AX
0736:600C 40                INC     AX
0736:600D 085252            OR      [BP+SI+52],DL
0736:6010 003E3E3E          ADD     [3E3E],BH
0736:6014 3E                SEG     DS (unused)
0736:6015 3E                SEG     DS (unused)
0736:6016 3E                SEG     DS (unused)
0736:6017 3E                SEG     DS (unused)
0736:6018 3E                SEG     DS (unused)
0736:6019 43                INC     BX
0736:601A 43                INC     BX
0736:601B 0000              ADD     [BX+SI],AL
0736:601D 43                INC     BX
0736:601E 43                INC     BX
0736:601F 43                INC     BX
0736:6020 43                INC     BX
0736:6021 3E003E3E55        ADD     DS:[553E],BH
0736:6026 00554C            ADD     [DI+4C],DL
0736:6029 50                PUSH    AX
0736:602A 005050            ADD     [BX+SI+50],DL
0736:602D 52                PUSH    DX
0736:602E 52                PUSH    DX
0736:602F 0000              ADD     [BX+SI],AL
0736:6031 4C                DEC     SP
0736:6032 4C                DEC     SP
0736:6033 4C                DEC     SP
0736:6034 4C                DEC     SP
0736:6035 4C                DEC     SP
0736:6036 4C                DEC     SP
0736:6037 4C                DEC     SP
0736:6038 4C                DEC     SP
0736:6039 46                INC     SI
0736:603A 46                INC     SI
0736:603B 0008              ADD     [BX+SI],CL
0736:603D 46                INC     SI
0736:603E 46                INC     SI
0736:603F 46                INC     SI
0736:6040 46                INC     SI
0736:6041 4C                DEC     SP
0736:6042 004C4C            ADD     [SI+4C],CL
0736:6045 4E                DEC     SI
0736:6046 334E33            XOR     CX,[BP+33]
0736:6049 0000              ADD     [BX+SI],AL
0736:604B 0000              ADD     [BX+SI],AL
0736:604D 085252            OR      [BP+SI+52],DL
0736:6050 000C              ADD     [SI],CL
0736:6052 0C0C              OR      AL,0C
0736:6054 0C0C              OR      AL,0C
0736:6056 0C0C              OR      AL,0C
0736:6058 000C              ADD     [SI],CL
0736:605A 0C0C              OR      AL,0C
0736:605C 0C0C              OR      AL,0C
0736:605E 0C0C              OR      AL,0C
0736:6060 0C0C              OR      AL,0C
0736:6062 0C0C              OR      AL,0C
0736:6064 0C0C              OR      AL,0C
0736:6066 0C0C              OR      AL,0C
0736:6068 0C00              OR      AL,00
0736:606A 0404              ADD     AL,04
0736:606C 2222              AND     AH,[BP+SI]
0736:606E 0C0C              OR      AL,0C
0736:6070 0CC8              OR      AL,C8
0736:6072 CE                INTO
0736:6073 CB                RETF
0736:6074 D1D4              RCL     SP,1
0736:6076 D7                XLATB
0736:6077 0C0C              OR      AL,0C
0736:6079 2222              AND     AH,[BP+SI]
0736:607B 2222              AND     AH,[BP+SI]
0736:607D 2222              AND     AH,[BP+SI]
0736:607F 2222              AND     AH,[BP+SI]
0736:6081 2222              AND     AH,[BP+SI]
0736:6083 2222              AND     AH,[BP+SI]
0736:6085 2222              AND     AH,[BP+SI]
0736:6087 2222              AND     AH,[BP+SI]
0736:6089 0000              ADD     [BX+SI],AL
0736:608B 0C00              OR      AL,00
0736:608D 002D              ADD     [DI],CH
0736:608F 2D2D2D            SUB     AX,2D2D
0736:6092 2D2D2D            SUB     AX,2D2D
0736:6095 2D2D2D            SUB     AX,2D2D
0736:6098 2D2D2D            SUB     AX,2D2D
0736:609B 2D2D2D            SUB     AX,2D2D
0736:609E AC                LODSB
0736:609F AC                LODSB
0736:60A0 AC                LODSB
0736:60A1 AC                LODSB
0736:60A2 AC                LODSB
0736:60A3 AC                LODSB
0736:60A4 AC                LODSB
0736:60A5 AC                LODSB
0736:60A6 AC                LODSB
0736:60A7 AC                LODSB
0736:60A8 AC                LODSB
0736:60A9 AC                LODSB
0736:60AA AC                LODSB
0736:60AB AC                LODSB
0736:60AC AC                LODSB
0736:60AD AC                LODSB
0736:60AE C4                DB      C4
0736:60AF C40C              LES     CX,[SI]
0736:60B1 27                DAA
0736:60B2 AE                SCASB
0736:60B3 B2C6              MOV     DL,C6
0736:60B5 C6                DB      C6
0736:60B6 0C27              OR      AL,27
0736:60B8 AE                SCASB
0736:60B9 B222              MOV     DL,22
0736:60BB 16                PUSH    SS
0736:60BC 16                PUSH    SS
0736:60BD 1F                POP     DS
0736:60BE 27                DAA
0736:60BF 1F                POP     DS
0736:60C0 1F                POP     DS
0736:60C1 8B8F0427          MOV     CX,[BX+2704]
0736:60C5 2222              AND     AH,[BP+SI]
0736:60C7 8B8F1616          MOV     CX,[BX+1616]
0736:60CB 0425              ADD     AL,25
0736:60CD 252525            AND     AX,2525
0736:60D0 252525            AND     AX,2525
0736:60D3 253535            AND     AX,3535
0736:60D6 2A2A              SUB     CH,[BP+SI]
0736:60D8 2A2A              SUB     CH,[BP+SI]
0736:60DA 3399100C          XOR     BX,[BX+DI+0C10]
0736:60DE 0C0C              OR      AL,0C
0736:60E0 0C0C              OR      AL,0C
0736:60E2 0C0C              OR      AL,0C
0736:60E4 0C0C              OR      AL,0C
0736:60E6 0C0C              OR      AL,0C
0736:60E8 0C57              OR      AL,57
0736:60EA 1B00              SBB     AX,[BX+SI]
0736:60EC 1B00              SBB     AX,[BX+SI]
0736:60EE 1B00              SBB     AX,[BX+SI]
0736:60F0 1B00              SBB     AX,[BX+SI]
0736:60F2 1B00              SBB     AX,[BX+SI]
0736:60F4 1B00              SBB     AX,[BX+SI]
0736:60F6 7B07              JPO     60FF
0736:60F8 5C                POP     SP
0736:60F9 07                POP     ES
0736:60FA 3907              CMP     [BX],AX
0736:60FC 3907              CMP     [BX],AX
0736:60FE 3907              CMP     [BX],AX
0736:6100 3907              CMP     [BX],AX
0736:6102 3907              CMP     [BX],AX
0736:6104 3907              CMP     [BX],AX
0736:6106 7B07              JPO     610F
0736:6108 E001              LOOPNZW 610B
0736:610A 16                PUSH    SS
0736:610B 00160016          ADD     [1600],DL
0736:610F 00160016          ADD     [1600],DL
0736:6113 0016007B          ADD     [7B00],DL
0736:6117 07                POP     ES
0736:6118 5C                POP     SP
0736:6119 07                POP     ES
0736:611A 1A08              SBB     CL,[BX+SI]
0736:611C 1A08              SBB     CL,[BX+SI]
0736:611E 1A08              SBB     CL,[BX+SI]
0736:6120 1A08              SBB     CL,[BX+SI]
0736:6122 1A08              SBB     CL,[BX+SI]
0736:6124 1A08              SBB     CL,[BX+SI]
0736:6126 7B07              JPO     612F
0736:6128 5C                POP     SP
0736:6129 07                POP     ES
0736:612A 2000              AND     [BX+SI],AL
0736:612C 2000              AND     [BX+SI],AL
0736:612E 2000              AND     [BX+SI],AL
0736:6130 2000              AND     [BX+SI],AL
0736:6132 2000              AND     [BX+SI],AL
0736:6134 2000              AND     [BX+SI],AL
0736:6136 0100              ADD     [BX+SI],AX
0736:6138 AA                STOSB
0736:6139 014D09            ADD     [DI+09],CX
0736:613C 4D                DEC     BP
0736:613D 094D09            OR      [DI+09],CX
0736:6140 4D                DEC     BP
0736:6141 094D09            OR      [DI+09],CX
0736:6144 4D                DEC     BP
0736:6145 0901              OR      [BX+DI],AX
0736:6147 01AF0192          ADD     [BX+9201],BP
0736:614B 09920992          OR      [BP+SI+9209],DX
0736:614F 09920992          OR      [BP+SI+9209],DX
0736:6153 09920901          OR      [BP+SI+0109],DX
0736:6157 0202              ADD     AL,[BP+SI]
0736:6159 006B01            ADD     [BP+DI+01],CH
0736:615C 6B016B            IMUL    AX,[BX+DI],+6B
0736:615F 016B01            ADD     [BP+DI+01],BP
0736:6162 6B016B            IMUL    AX,[BX+DI],+6B
0736:6165 0101              ADD     [BX+DI],AX
0736:6167 0311              ADD     DX,[BX+DI]
0736:6169 003B              ADD     [BP+DI],BH
0736:616B 053B05            ADD     AX,053B
0736:616E 3B05              CMP     AX,[DI]
0736:6170 3B05              CMP     AX,[DI]
0736:6172 3B05              CMP     AX,[DI]
0736:6174 3B05              CMP     AX,[DI]
0736:6176 3B05              CMP     AX,[DI]
0736:6178 3B05              CMP     AX,[DI]
0736:617A BC01BC            MOV     SP,BC01
0736:617D 01BC01BC          ADD     [SI+BC01],DI
0736:6181 01BC01BC          ADD     [SI+BC01],DI
0736:6185 01BC01BC          ADD     [SI+BC01],DI
0736:6189 017B07            ADD     [BP+DI+07],DI
0736:618C 7B07              JPO     6195
0736:618E 7B07              JPO     6197
0736:6190 7B07              JPO     6199
0736:6192 7B07              JPO     619B
0736:6194 7B07              JPO     619D
0736:6196 7B07              JPO     619F
0736:6198 7B07              JPO     61A1
0736:619A 5C                POP     SP
0736:619B 07                POP     ES
0736:619C 5C                POP     SP
0736:619D 07                POP     ES
0736:619E 5C                POP     SP
0736:619F 07                POP     ES
0736:61A0 5C                POP     SP
0736:61A1 07                POP     ES
0736:61A2 5C                POP     SP
0736:61A3 07                POP     ES
0736:61A4 5C                POP     SP
0736:61A5 07                POP     ES
0736:61A6 5C                POP     SP
0736:61A7 07                POP     ES
0736:61A8 5C                POP     SP
0736:61A9 07                POP     ES
0736:61AA 81176117          ADC     WORD PTR [BX],1761
0736:61AE 2B10              SUB     DX,[BX+SI]
0736:61B0 252001            AND     AX,0120
0736:61B3 3401              XOR     AL,01
0736:61B5 351030            XOR     AX,3010
0736:61B8 2030              AND     [BX+SI],DH
0736:61BA 7B17              JPO     61D3
0736:61BC 3115              XOR     [DI],DX
0736:61BE 7B17              JPO     61D7
0736:61C0 3115              XOR     [DI],DX
0736:61C2 40                INC     AX
0736:61C3 154615            ADC     AX,1546
0736:61C6 47                INC     DI
0736:61C7 17                POP     SS
0736:61C8 4E                DEC     SI
0736:61C9 17                POP     SS
0736:61CA FB                STI
0736:61CB 05E705            ADD     AX,05E7
0736:61CE 81057C05          ADD     WORD PTR [DI],057C
0736:61D2 1106F605          ADC     [05F6],AX
0736:61D6 8505              TEST    [DI],AX
0736:61D8 7805              JS      61DF
0736:61DA 0D06F1            OR      AX,F106
0736:61DD 050306            ADD     AX,0603
0736:61E0 0806A805          OR      [05A8],AL
0736:61E4 A305AC            MOV     [AC05],AX
0736:61E7 059F05            ADD     AX,059F
0736:61EA 0001              ADD     [BX+DI],AL
0736:61EC 0001              ADD     [BX+DI],AL
0736:61EE 0000              ADD     [BX+SI],AL
0736:61F0 0801              OR      [BX+DI],AL
0736:61F2 52                PUSH    DX
0736:61F3 095209            OR      [BP+SI+09],DX
0736:61F6 7F09              JG      6201
0736:61F8 7F09              JG      6203
0736:61FA FD                STD
0736:61FB 06                PUSH    ES
0736:61FC FD                STD
0736:61FD 06                PUSH    ES
0736:61FE FD                STD
0736:61FF 06                PUSH    ES
0736:6200 FD                STD
0736:6201 06                PUSH    ES
0736:6202 FD                STD
0736:6203 06                PUSH    ES
0736:6204 3E                SEG     DS (unused)
0736:6205 06                PUSH    ES
0736:6206 FD                STD
0736:6207 06                PUSH    ES
0736:6208 F8                CLC
0736:6209 022F              ADD     CH,[BX]
0736:620B 07                POP     ES
0736:620C 7F09              JG      6217
0736:620E 7F09              JG      6219
0736:6210 7F09              JG      621B
0736:6212 7F09              JG      621D
0736:6214 7F09              JG      621F
0736:6216 7F09              JG      6221
0736:6218 7F09              JG      6223
0736:621A 5C                POP     SP
0736:621B 00A00156          ADD     [BX+SI+5601],AH
0736:621F 006409            ADD     [SI+09],AH
0736:6222 90                NOP
0736:6223 07                POP     ES
0736:6224 6E                OUTSB
0736:6225 07                POP     ES
0736:6226 E307              JCXZ    622F
0736:6228 1A06FD06          SBB     AL,[06FD]
0736:622C FD                STD
0736:622D 06                PUSH    ES
0736:622E FD                STD
0736:622F 06                PUSH    ES
0736:6230 FD                STD
0736:6231 06                PUSH    ES
0736:6232 0207              ADD     AL,[BX]
0736:6234 0907              OR      [BX],AX
0736:6236 7001              JO      6239
0736:6238 7701              JA      623B
0736:623A 52                PUSH    DX
0736:623B 095209            OR      [BP+SI+09],DX
0736:623E 3309              XOR     CX,[BX+DI]
0736:6240 3A09              CMP     CL,[BX+DI]
0736:6242 68066F            PUSH    WORD 6F06
0736:6245 06                PUSH    ES
0736:6246 1F                POP     DS
0736:6247 082608FD          OR      [FD08],AH
0736:624B 06                PUSH    ES
0736:624C FD                STD
0736:624D 06                PUSH    ES
0736:624E FD                STD
0736:624F 06                PUSH    ES
0736:6250 FD                STD
0736:6251 06                PUSH    ES
0736:6252 FD                STD
0736:6253 06                PUSH    ES
0736:6254 FD                STD
0736:6255 06                PUSH    ES
0736:6256 FD                STD
0736:6257 06                PUSH    ES
0736:6258 FD                STD
0736:6259 06                PUSH    ES
0736:625A FD                STD
0736:625B 06                PUSH    ES
0736:625C FD                STD
0736:625D 06                PUSH    ES
0736:625E FD                STD
0736:625F 06                PUSH    ES
0736:6260 FD                STD
0736:6261 06                PUSH    ES
0736:6262 FD                STD
0736:6263 06                PUSH    ES
0736:6264 FD                STD
0736:6265 06                PUSH    ES
0736:6266 FD                STD
0736:6267 06                PUSH    ES
0736:6268 FD                STD
0736:6269 06                PUSH    ES
0736:626A 2001              AND     [BX+DI],AL
0736:626C 2001              AND     [BX+DI],AL
0736:626E CC                INT     3
0736:626F 07                POP     ES
0736:6270 CC                INT     3
0736:6271 07                POP     ES
0736:6272 2F                DAS
0736:6273 06                PUSH    ES
0736:6274 250600            AND     AX,0006
0736:6277 0300              ADD     AX,[BX+SI]
0736:6279 03CA              ADD     CX,DX
0736:627B 114316            ADC     [BP+DI+16],AX
0736:627E D107              ROL     WORD PTR [BX],1
0736:6280 D107              ROL     WORD PTR [BX],1
0736:6282 52                PUSH    DX
0736:6283 055205            ADD     AX,0552
0736:6286 57                PUSH    DI
0736:6287 056B05            ADD     AX,056B
0736:628A 1001              ADC     [BX+DI],AL
0736:628C 1001              ADC     [BX+DI],AL
0736:628E 1801              SBB     [BX+DI],AL
0736:6290 1801              SBB     [BX+DI],AL
0736:6292 0C00              OR      AL,00
0736:6294 07                POP     ES
0736:6295 0000              ADD     [BX+SI],AL
0736:6297 008B0948          ADD     [BP+DI+4809],CL
0736:629B 015801            ADD     [BX+SI+01],BX
0736:629E 680178            PUSH    WORD 7801
0736:62A1 01880198          ADD     [BX+SI+9801],CX
0736:62A5 01A801B8          ADD     [BX+SI+B801],BP
0736:62A9 01E1              ADD     CX,SP
0736:62AB 06                PUSH    ES
0736:62AC AF                SCASW
0736:62AD 06                PUSH    ES
0736:62AE 83068E0537        ADD     WORD PTR [058E],+37
0736:62B3 053705            ADD     AX,0537
0736:62B6 42                INC     DX
0736:62B7 07                POP     ES
0736:62B8 42                INC     DX
0736:62B9 07                POP     ES
0736:62BA 56                PUSH    SI
0736:62BB 0015              ADD     [DI],DL
0736:62BD 06                PUSH    ES
0736:62BE 150615            ADC     AX,1506
0736:62C1 06                PUSH    ES
0736:62C2 37                AAA
0736:62C3 053705            ADD     AX,0537
0736:62C6 42                INC     DX
0736:62C7 07                POP     ES
0736:62C8 42                INC     DX
0736:62C9 07                POP     ES
0736:62CA 0800              OR      [BX+SI],AL
0736:62CC 0000              ADD     [BX+SI],AL
0736:62CE 0200              ADD     AL,[BX+SI]
0736:62D0 06                PUSH    ES
0736:62D1 0026057C          ADD     [7C05],AH
0736:62D5 0028              ADD     [BX+SI],CH
0736:62D7 0128              ADD     [BX+SI],BP
0736:62D9 016700            ADD     [BX+00],SP
0736:62DC 2409              AND     AL,09
0736:62DE 7100              JNO     62E0
0736:62E0 2E096C00          OR      CS:[SI+00],BP
0736:62E4 2909              SUB     [BX+DI],CX
0736:62E6 E002              LOOPNZW 62EA
0736:62E8 3001              XOR     [BX+DI],AL
0736:62EA 1B00              SBB     AX,[BX+SI]
0736:62EC 3907              CMP     [BX],AX
0736:62EE 16                PUSH    SS
0736:62EF 001A              ADD     [BP+SI],BL
0736:62F1 0820              OR      [BX+SI],AH
0736:62F3 004D09            ADD     [DI+09],CL
0736:62F6 92                XCHG    AX,DX
0736:62F7 096B01            OR      [BP+DI+01],BP
0736:62FA 1B00              SBB     AX,[BX+SI]
0736:62FC 3907              CMP     [BX],AX
0736:62FE 16                PUSH    SS
0736:62FF 001A              ADD     [BP+SI],BL
0736:6301 0820              OR      [BX+SI],AH
0736:6303 004D09            ADD     [DI+09],CL
0736:6306 92                XCHG    AX,DX
0736:6307 096B01            OR      [BP+DI+01],BP
0736:630A A907AE            TEST    AX,AE07
0736:630D 07                POP     ES
0736:630E 9F                LAHF
0736:630F 07                POP     ES
0736:6310 A4                MOVSB
0736:6311 07                POP     ES
0736:6312 1008              ADC     [BX+SI],CL
0736:6314 150800            ADC     AX,0008
0736:6317 00EE              ADD     DH,CH
0736:6319 07                POP     ES
0736:631A A907AE            TEST    AX,AE07
0736:631D 07                POP     ES
0736:631E 9F                LAHF
0736:631F 07                POP     ES
0736:6320 A4                MOVSB
0736:6321 07                POP     ES
0736:6322 1008              ADC     [BX+SI],CL
0736:6324 150800            ADC     AX,0008
0736:6327 00EE              ADD     DH,CH
0736:6329 07                POP     ES
0736:632A A917AE            TEST    AX,AE17
0736:632D 17                POP     SS
0736:632E 9F                LAHF
0736:632F 17                POP     SS
0736:6330 A4                MOVSB
0736:6331 17                POP     SS
0736:6332 1018              ADC     [BX+SI],BL
0736:6334 151800            ADC     AX,0018
0736:6337 00EE              ADD     DH,CH
0736:6339 17                POP     SS
0736:633A 52                PUSH    DX
0736:633B 0900              OR      [BX+SI],AX
0736:633D 0034              ADD     [SI],DH
0736:633F 07                POP     ES
0736:6340 2A07              SUB     AL,[BX]
0736:6342 250731            AND     AX,3107
0736:6345 05C101            ADD     AX,01C1
0736:6348 2B05              SUB     AX,[DI]
0736:634A 3B05              CMP     AX,[DI]
0736:634C BC0156            MOV     SP,5601
0736:634F 005600            ADD     [BP+00],DL
0736:6352 150615            ADC     AX,1506
0736:6355 06                PUSH    ES
0736:6356 7B07              JPO     635F
0736:6358 0000              ADD     [BX+SI],AL
0736:635A 1829              SBB     [BX+DI],CH
0736:635C 48                DEC     AX
0736:635D 295626            SUB     [BP+26],DX
0736:6360 F8                CLC
0736:6361 26                SEG     ES (unused)
0736:6362 58                POP     AX
0736:6363 295E29            SUB     [BP+29],BX
0736:6366 0000              ADD     [BX+SI],AL
0736:6368 0000              ADD     [BX+SI],AL
0736:636A 0029              ADD     [BX+DI],CH
0736:636C 06                PUSH    ES
0736:636D 294A26            SUB     [BP+SI+26],CX
0736:6370 50                PUSH    AX
0736:6371 26                SEG     ES (unused)
0736:6372 1E                PUSH    DS
0736:6373 2900              SUB     [BX+SI],AX
0736:6375 005C26            ADD     [SI+26],BL
0736:6378 6345DE            ARPL    [DI-22],AX
0736:637B 01AB038F          ADD     [BP+DI+8F03],BP
0736:637F 02A402A0          ADD     AH,[SI+A002]
0736:6383 04B4              ADD     AL,B4
0736:6385 04D1              ADD     AL,D1
0736:6387 02E5              ADD     AH,CH
0736:6389 02DE              ADD     BL,DH
0736:638B 01AB038F          ADD     [BP+DI+8F03],BP
0736:638F 02A402A0          ADD     AH,[SI+A002]
0736:6393 04B4              ADD     AL,B4
0736:6395 04D1              ADD     AL,D1
0736:6397 02E5              ADD     AH,CH
0736:6399 024A03            ADD     CL,[BP+SI+03]
0736:639C 0000              ADD     [BX+SI],AL
0736:639E 54                PUSH    SP
0736:639F 0459              ADD     AL,59
0736:63A1 0491              ADD     AL,91
0736:63A3 03890376          ADD     CX,[BX+DI+7603]
0736:63A7 0466              ADD     AL,66
0736:63A9 044A              ADD     AL,4A
0736:63AB 0307              ADD     AX,[BX]
0736:63AD 050803            ADD     AX,0308
0736:63B0 0000              ADD     [BX+SI],AL
0736:63B2 1003              ADC     [BP+DI],AL
0736:63B4 C801D001          ENTER   D001,01
0736:63B8 D801              FADD    FLOAT PTR [BX+DI]
0736:63BA EB01              JMP     63BD
0736:63BC B80310            MOV     AX,1003
0736:63BF 0317              ADD     DX,[BX]
0736:63C1 03AD04C3          ADD     BP,[DI+C304]
0736:63C5 04DE              ADD     AL,DE
0736:63C7 02F4              ADD     DH,AH
0736:63C9 0225              ADD     AH,[DI]
0736:63CB 6236622D          BOUND   SI,[2D62]
0736:63CF 627F62            BOUND   DI,[BX+62]
0736:63D2 0000              ADD     [BX+SI],AL
0736:63D4 1803              SBB     [BP+DI],AL
0736:63D6 0000              ADD     [BX+SI],AL
0736:63D8 0000              ADD     [BX+SI],AL
0736:63DA 1F                POP     DS
0736:63DB 0300              ADD     AX,[BX+SI]
0736:63DD 003D              ADD     [DI],BH
0736:63DF 034303            ADD     AX,[BP+DI+03]
0736:63E2 0000              ADD     [BX+SI],AL
0736:63E4 4A                DEC     DX
0736:63E5 0300              ADD     AX,[BX+SI]
0736:63E7 005904            ADD     [BX+DI+04],BL
0736:63EA 51                PUSH    CX
0736:63EB 626462            BOUND   SP,[SI+62]
0736:63EE 5A                POP     DX
0736:63EF 626D62            BOUND   BP,[DI+62]
0736:63F2 2003              AND     [BP+DI],AL
0736:63F4 D86495            FSUB    FLOAT PTR [SI-6B]
0736:63F7 6200              BOUND   AX,[BX+SI]
0736:63F9 00DE              ADD     DH,BL
0736:63FB 01AB038F          ADD     [BP+DI+8F03],BP
0736:63FF 02A402A0          ADD     AH,[SI+A002]
0736:6403 04B4              ADD     AL,B4
0736:6405 04D1              ADD     AL,D1
0736:6407 02E5              ADD     AH,CH
0736:6409 02DE              ADD     BL,DH
0736:640B 01AB0300          ADD     [BP+DI+0003],BP
0736:640F 0000              ADD     [BX+SI],AL
0736:6411 00B404A0          ADD     [SI+A004],DH
0736:6415 04E5              ADD     AL,E5
0736:6417 02D1              ADD     DL,CL
0736:6419 024A03            ADD     CL,[BP+SI+03]
0736:641C 0000              ADD     [BX+SI],AL
0736:641E 54                PUSH    SP
0736:641F 0459              ADD     AL,59
0736:6421 04EC              ADD     AL,EC
0736:6423 0300              ADD     AX,[BX+SI]
0736:6425 000D              ADD     [DI],CL
0736:6427 0498              ADD     AL,98
0736:6429 0409              ADD     AL,09
0736:642B 0300              ADD     AX,[BX+SI]
0736:642D 005404            ADD     [SI+04],DL
0736:6430 59                POP     CX
0736:6431 04D1              ADD     AL,D1
0736:6433 34E9              XOR     AL,E9
0736:6435 3400              XOR     AL,00
0736:6437 0000              ADD     [BX+SI],AL
0736:6439 00EB              ADD     BL,CH
0736:643B 01B80310          ADD     [BX+SI+1003],DI
0736:643F 0317              ADD     DX,[BX]
0736:6441 03AD04C3          ADD     BP,[DI+C304]
0736:6445 04DE              ADD     AL,DE
0736:6447 02F4              ADD     DH,AH
0736:6449 02E4              ADD     AH,AH
0736:644B 01B10300          ADD     [BX+DI+0003],SI
0736:644F 0028              ADD     [BX+SI],CH
0736:6451 03BB04A6          ADD     DI,[BP+DI+A604]
0736:6455 04EC              ADD     AL,EC
0736:6457 02D7              ADD     DL,BH
0736:6459 021F              ADD     BL,[BX]
0736:645B 0300              ADD     AX,[BX+SI]
0736:645D 003D              ADD     [DI],BH
0736:645F 034303            ADD     AX,[BP+DI+03]
0736:6462 F2                REPNE   (unused)
0736:6463 011F              ADD     [BX],BX
0736:6465 03F8              ADD     DI,AX
0736:6467 014303            ADD     [BP+DI+03],AX
0736:646A 0000              ADD     [BX+SI],AL
0736:646C 0000              ADD     [BX+SI],AL
0736:646E 0000              ADD     [BX+SI],AL
0736:6470 0000              ADD     [BX+SI],AL
0736:6472 3003              XOR     [BP+DI],AL
0736:6474 E064              LOOPNZW 64DA
0736:6476 9C                PUSHF
0736:6477 6200              BOUND   AX,[BX+SI]
0736:6479 004F03            ADD     [BX+03],CL
0736:647C 55                PUSH    BP
0736:647D 035D03            ADD     BX,[DI+03]
0736:6480 65036C03          ADD     BP,GS:[SI+03]
0736:6484 7403              JZ      6489
0736:6486 7C03              JL      648B
0736:6488 0000              ADD     [BX+SI],AL
0736:648A D101              ROL     WORD PTR [BX+DI],1
0736:648C 16                PUSH    SS
0736:648D 05DC03            ADD     AX,03DC
0736:6490 C503              LDS     AX,[BP+DI]
0736:6492 0D05D4            OR      AX,D405
0736:6495 33B90225          XOR     DI,[BX+DI+2502]
0736:6499 03CD              ADD     CX,BP
0736:649B 031D              ADD     BX,[DI]
0736:649D 054D04            ADD     AX,044D
0736:64A0 44                INC     SP
0736:64A1 34E3              XOR     AL,E3
0736:64A3 0325              ADD     SP,[DI]
0736:64A5 043E              ADD     AL,3E
0736:64A7 34B3              XOR     AL,B3
0736:64A9 3200              XOR     AL,[BX+SI]
0736:64AB 0038              ADD     [BX+SI],BH
0736:64AD 014001            ADD     [BX+SI+01],AX
0736:64B0 2026F326          AND     [26F3],AH
0736:64B4 7620              JBE     64D6
0736:64B6 5D                POP     BP
0736:64B7 45                INC     BP
0736:64B8 6A49              PUSH    +49
0736:64BA FD                STD
0736:64BB 36                SEG     SS (unused)
0736:64BC FD                STD
0736:64BD 36                SEG     SS (unused)
0736:64BE FD                STD
0736:64BF 36                SEG     SS (unused)
0736:64C0 FD                STD
0736:64C1 36                SEG     SS (unused)
0736:64C2 FD                STD
0736:64C3 36                SEG     SS (unused)
0736:64C4 FD                STD
0736:64C5 36                SEG     SS (unused)
0736:64C6 7259              JB      6521
0736:64C8 B357              MOV     BL,57
0736:64CA 3F                AAS
0736:64CB 61                POPA
0736:64CC 1F                POP     DS
0736:64CD 61                POPA
0736:64CE 90                NOP
0736:64CF 60                PUSHA
0736:64D0 886064            MOV     [BX+SI+64],AH
0736:64D3 61                POPA
0736:64D4 37                AAA
0736:64D5 61                POPA
0736:64D6 97                XCHG    AX,DI
0736:64D7 60                PUSHA
0736:64D8 81605D612F        AND     WORD PTR [BX+SI+5D],2F61
0736:64DD 61                POPA
0736:64DE 4D                DEC     BP
0736:64DF 61                POPA
0736:64E0 55                PUSH    BP
0736:64E1 61                POPA
0736:64E2 BC60B4            MOV     SP,B460
0736:64E5 60                PUSHA
0736:64E6 C3                RET
0736:64E7 60                PUSHA
0736:64E8 AD                LODSW
0736:64E9 60                PUSHA
0736:64EA 0000              ADD     [BX+SI],AL
0736:64EC 0000              ADD     [BX+SI],AL
0736:64EE 0000              ADD     [BX+SI],AL
0736:64F0 0000              ADD     [BX+SI],AL
0736:64F2 0000              ADD     [BX+SI],AL
0736:64F4 FB                STI
0736:64F5 35E735            XOR     AX,35E7
0736:64F8 81357C35          XOR     WORD PTR [DI],357C
0736:64FC 1136F635          ADC     [35F6],SI
0736:6500 8535              TEST    [DI],SI
0736:6502 7835              JS      6539
0736:6504 0D36F1            OR      AX,F136
0736:6507 350336            XOR     AX,3603
0736:650A 0836A835          OR      [35A8],DH
0736:650E A335AC            MOV     [AC35],AX
0736:6511 359F35            XOR     AX,359F
0736:6514 DA38              FIDIVR  DWORD PTR [BX+SI]
0736:6516 BE3841            MOV     SI,4138
0736:6519 383A              CMP     [BP+SI],BH
0736:651B 38FA              CMP     DL,BH
0736:651D 38D3              CMP     BL,DL
0736:651F 384738            CMP     [BX+38],AL
0736:6522 3438              XOR     AL,38
0736:6524 F4                HLT
0736:6525 38CC              CMP     AH,CL
0736:6527 38E6              CMP     DH,AH
0736:6529 38ED              CMP     CH,CH
0736:652B 386738            CMP     [BX+38],AH
0736:652E 60                PUSHA
0736:652F 386D38            CMP     [DI+38],CH
0736:6532 5A                POP     DX
0736:6533 387B37            CMP     [BP+DI+37],BH
0736:6536 5C                POP     SP
0736:6537 37                AAA
0736:6538 99                CWD
0736:6539 51                PUSH    CX
0736:653A 43                INC     BX
0736:653B 300C              XOR     [SI],CL
0736:653D 390C              CMP     [SI],CX
0736:653F 397B37            CMP     [BP+DI+37],DI
0736:6542 5C                POP     SP
0736:6543 37                AAA
0736:6544 DE5751            FICOM   WORD PTR [BX+51]
0736:6547 3012              XOR     [BP+SI],DL
0736:6549 3912              CMP     [BP+SI],DX
0736:654B 3931              CMP     [BX+DI],SI
0736:654D 358541            XOR     AX,4185
0736:6550 85412A            TEST    [BX+DI+2A],AX
0736:6553 36                SEG     SS (unused)
0736:6554 4C                DEC     SP
0736:6555 3034              XOR     [SI],DH
0736:6557 3639361E37        CMP     SS:[371E],SI
0736:655C 1E                PUSH    DS
0736:655D 37                AAA
0736:655E E80247            CALL    AC63
0736:6561 3032              XOR     [BP+SI],DH
0736:6563 3037              XOR     [BX],DH
0736:6565 3017              XOR     [BX],DL
0736:6567 37                AAA
0736:6568 17                POP     SS
0736:6569 37                AAA
0736:656A 7949              JNS     65B5
0736:656C 7949              JNS     65B7
0736:656E F0                LOCK    (unused)
0736:656F 023C              ADD     BH,[SI]
0736:6571 40                INC     AX
0736:6572 3C40              CMP     AL,40
0736:6574 3C40              CMP     AL,40
0736:6576 3C40              CMP     AL,40
0736:6578 3C40              CMP     AL,40
0736:657A 3C40              CMP     AL,40
0736:657C 3C40              CMP     AL,40
0736:657E 3C40              CMP     AL,40
0736:6580 3B05              CMP     AX,[DI]
0736:6582 BC0143            MOV     SP,4301
0736:6585 305130            XOR     [BX+DI+30],DL
0736:6588 4C                DEC     SP
0736:6589 304730            XOR     [BX+30],AL
0736:658C 8E515C            MOV     SS,WORD PTR [BX+DI+5C]
0736:658F 07                POP     ES
0736:6590 FD                STD
0736:6591 06                PUSH    ES
0736:6592 BF03FF            MOV     DI,FF03
0736:6595 01D8              ADD     AX,BX
0736:6597 01CB              ADD     BX,CX
0736:6599 0401              ADD     AL,01
0736:659B 05F134            ADD     AX,34F1
0736:659E 0203              ADD     AL,[BP+DI]
0736:65A0 C9                LEAVE
0736:65A1 020C              ADD     CL,[SI]
0736:65A3 0235              ADD     DH,[DI]
0736:65A5 0335              ADD     SI,[DI]
0736:65A7 24AB              AND     AL,AB
0736:65A9 02980401          ADD     BL,[BX+SI+0104]
0736:65AD 0203              ADD     AL,[BP+DI]
0736:65AF 0400              ADD     AL,00
0736:65B1 0005              ADD     [DI],AL
0736:65B3 00060700          ADD     [0007],AL
0736:65B7 0000              ADD     [BX+SI],AL
0736:65B9 0000              ADD     [BX+SI],AL
0736:65BB 0000              ADD     [BX+SI],AL
0736:65BD 0000              ADD     [BX+SI],AL
0736:65BF 0000              ADD     [BX+SI],AL
0736:65C1 0000              ADD     [BX+SI],AL
0736:65C3 0000              ADD     [BX+SI],AL
0736:65C5 0000              ADD     [BX+SI],AL
0736:65C7 0000              ADD     [BX+SI],AL
0736:65C9 0000              ADD     [BX+SI],AL
0736:65CB 0008              ADD     [BX+SI],CL
0736:65CD 090A              OR      [BP+SI],CX
0736:65CF 0B0C              OR      CX,[SI]
0736:65D1 000D              ADD     [DI],CL
0736:65D3 0000              ADD     [BX+SI],AL
0736:65D5 0000              ADD     [BX+SI],AL
0736:65D7 0000              ADD     [BX+SI],AL
0736:65D9 0000              ADD     [BX+SI],AL
0736:65DB 000E000F          ADD     [0F00],CL
0736:65DF 0000              ADD     [BX+SI],AL
0736:65E1 0000              ADD     [BX+SI],AL
0736:65E3 0000              ADD     [BX+SI],AL
0736:65E5 0000              ADD     [BX+SI],AL
0736:65E7 0000              ADD     [BX+SI],AL
0736:65E9 0000              ADD     [BX+SI],AL
0736:65EB 0010              ADD     [BX+SI],DL
0736:65ED 1112              ADC     [BP+SI],DX
0736:65EF 1314              ADC     DX,[SI]
0736:65F1 151617            ADC     AX,1716
0736:65F4 1819              SBB     [BX+DI],BL
0736:65F6 1A1B              SBB     BL,[BP+DI]
0736:65F8 1C1D              SBB     AL,1D
0736:65FA 1E                PUSH    DS
0736:65FB 1F                POP     DS
0736:65FC 0000              ADD     [BX+SI],AL
0736:65FE 0000              ADD     [BX+SI],AL
0736:6600 0000              ADD     [BX+SI],AL
0736:6602 0000              ADD     [BX+SI],AL
0736:6604 0000              ADD     [BX+SI],AL
0736:6606 0000              ADD     [BX+SI],AL
0736:6608 0000              ADD     [BX+SI],AL
0736:660A 0000              ADD     [BX+SI],AL
0736:660C 0000              ADD     [BX+SI],AL
0736:660E 0000              ADD     [BX+SI],AL
0736:6610 0000              ADD     [BX+SI],AL
0736:6612 0000              ADD     [BX+SI],AL
0736:6614 0000              ADD     [BX+SI],AL
0736:6616 0000              ADD     [BX+SI],AL
0736:6618 0000              ADD     [BX+SI],AL
0736:661A 2021              AND     [BX+DI],AH
0736:661C 0000              ADD     [BX+SI],AL
0736:661E 0000              ADD     [BX+SI],AL
0736:6620 0000              ADD     [BX+SI],AL
0736:6622 0022              ADD     [BP+SI],AH
0736:6624 0000              ADD     [BX+SI],AL
0736:6626 0000              ADD     [BX+SI],AL
0736:6628 0000              ADD     [BX+SI],AL
0736:662A 2324              AND     SP,[SI]
0736:662C 252627            AND     AX,2726
0736:662F 2829              SUB     [BX+DI],CH
0736:6631 2A2B              SUB     CH,[BP+DI]
0736:6633 2C2D              SUB     AL,2D
0736:6635 2E                SEG     CS (unused)
0736:6636 2F                DAS
0736:6637 3031              XOR     [BX+DI],DH
0736:6639 3233              XOR     DH,[BP+DI]
0736:663B 3435              XOR     AL,35
0736:663D 36                SEG     SS (unused)
0736:663E 37                AAA
0736:663F 3839              CMP     [BX+DI],BH
0736:6641 3A3B              CMP     BH,[BP+DI]
0736:6643 3C3D              CMP     AL,3D
0736:6645 3E                SEG     DS (unused)
0736:6646 3F                AAS
0736:6647 40                INC     AX
0736:6648 41                INC     CX
0736:6649 42                INC     DX
0736:664A 43                INC     BX
0736:664B 44                INC     SP
0736:664C 45                INC     BP
0736:664D 46                INC     SI
0736:664E 47                INC     DI
0736:664F 48                DEC     AX
0736:6650 49                DEC     CX
0736:6651 4A                DEC     DX
0736:6652 0000              ADD     [BX+SI],AL
0736:6654 4B                DEC     BX
0736:6655 4C                DEC     SP
0736:6656 4D                DEC     BP
0736:6657 4E                DEC     SI
0736:6658 4F                DEC     DI
0736:6659 50                PUSH    AX
0736:665A 005152            ADD     [BX+DI+52],DL
0736:665D 53                PUSH    BX
0736:665E 54                PUSH    SP
0736:665F 55                PUSH    BP
0736:6660 56                PUSH    SI
0736:6661 57                PUSH    DI
0736:6662 58                POP     AX
0736:6663 59                POP     CX
0736:6664 0000              ADD     [BX+SI],AL
0736:6666 5A                POP     DX
0736:6667 5B                POP     BX
0736:6668 5C                POP     SP
0736:6669 5D                POP     BP
0736:666A 5E                POP     SI
0736:666B 5F                POP     DI
0736:666C 60                PUSHA
0736:666D 61                POPA
0736:666E 0000              ADD     [BX+SI],AL
0736:6670 0000              ADD     [BX+SI],AL
0736:6672 006263            ADD     [BP+SI+63],AH
0736:6675 64                SEG     FS (unused)
0736:6676 65                SEG     GS (unused)
0736:6677 66                DB      66
0736:6678 67                DB      67
0736:6679 68696A            PUSH    WORD 6A69
0736:667C 0000              ADD     [BX+SI],AL
0736:667E 0000              ADD     [BX+SI],AL
0736:6680 0000              ADD     [BX+SI],AL
0736:6682 0000              ADD     [BX+SI],AL
0736:6684 0000              ADD     [BX+SI],AL
0736:6686 0000              ADD     [BX+SI],AL
0736:6688 0000              ADD     [BX+SI],AL
0736:668A 0000              ADD     [BX+SI],AL
0736:668C 0000              ADD     [BX+SI],AL
0736:668E 0000              ADD     [BX+SI],AL
0736:6690 0000              ADD     [BX+SI],AL
0736:6692 0000              ADD     [BX+SI],AL
0736:6694 0000              ADD     [BX+SI],AL
0736:6696 0000              ADD     [BX+SI],AL
0736:6698 0000              ADD     [BX+SI],AL
0736:669A 0000              ADD     [BX+SI],AL
0736:669C 0000              ADD     [BX+SI],AL
0736:669E 0000              ADD     [BX+SI],AL
0736:66A0 0000              ADD     [BX+SI],AL
0736:66A2 0000              ADD     [BX+SI],AL
0736:66A4 0000              ADD     [BX+SI],AL
0736:66A6 0000              ADD     [BX+SI],AL
0736:66A8 0000              ADD     [BX+SI],AL
0736:66AA 0000              ADD     [BX+SI],AL
0736:66AC 6B6C0000          IMUL    BP,[SI+00],+00
0736:66B0 0000              ADD     [BX+SI],AL
0736:66B2 0000              ADD     [BX+SI],AL
0736:66B4 0000              ADD     [BX+SI],AL
0736:66B6 0000              ADD     [BX+SI],AL
0736:66B8 6D                INSW
0736:66B9 6E                OUTSB
0736:66BA 6F                OUTSW
0736:66BB 7000              JO      66BD
0736:66BD 7100              JNO     66BF
0736:66BF 0000              ADD     [BX+SI],AL
0736:66C1 0000              ADD     [BX+SI],AL
0736:66C3 007200            ADD     [BP+SI+00],DH
0736:66C6 0000              ADD     [BX+SI],AL
0736:66C8 0000              ADD     [BX+SI],AL
0736:66CA 0000              ADD     [BX+SI],AL
0736:66CC 7300              JAE     66CE
0736:66CE 0000              ADD     [BX+SI],AL
0736:66D0 0000              ADD     [BX+SI],AL
0736:66D2 0000              ADD     [BX+SI],AL
0736:66D4 7400              JZ      66D6
0736:66D6 0000              ADD     [BX+SI],AL
0736:66D8 0000              ADD     [BX+SI],AL
0736:66DA 0000              ADD     [BX+SI],AL
0736:66DC 7576              JNZ     6754
0736:66DE 0000              ADD     [BX+SI],AL
0736:66E0 7778              JA      675A
0736:66E2 0000              ADD     [BX+SI],AL
0736:66E4 007900            ADD     [BX+DI+00],BH
0736:66E7 0000              ADD     [BX+SI],AL
0736:66E9 0000              ADD     [BX+SI],AL
0736:66EB 007A7B            ADD     [BP+SI+7B],BH
0736:66EE 7C7D              JL      676D
0736:66F0 7E00              JLE     66F2
0736:66F2 0000              ADD     [BX+SI],AL
0736:66F4 007F00            ADD     [BX+00],BH
0736:66F7 0000              ADD     [BX+SI],AL
0736:66F9 0000              ADD     [BX+SI],AL
0736:66FB 00800000          ADD     [BX+SI+0000],AL
0736:66FF 0000              ADD     [BX+SI],AL
0736:6701 0000              ADD     [BX+SI],AL
0736:6703 0022              ADD     [BP+SI],AH
0736:6705 0321              ADD     SP,[BX+DI]
0736:6707 0320              ADD     SP,[BX+SI]
0736:6709 0323              ADD     SP,[BP+DI]
0736:670B 035D01            ADD     BX,[DI+01]
0736:670E 9E                SAHF
0736:670F 0124              ADD     [SI],SP
0736:6711 035F01            ADD     BX,[BX+01]
0736:6714 5E                POP     SI
0736:6715 0130              ADD     [BX+SI],SI
0736:6717 039F0105          ADD     BX,[BX+0501]
0736:671B 02C2              ADD     AL,DL
0736:671D 02FC              ADD     BH,AH
0736:671F 022E0382          ADD     CH,[8203]
0736:6723 0306042D          ADD     AX,[2D04]
0736:6727 045F              ADD     AL,5F
0736:6729 046E              ADD     AL,6E
0736:672B 0491              ADD     AL,91
0736:672D 0491              ADD     AL,91
0736:672F 0498              ADD     AL,98
0736:6731 00A70099          ADD     [BX+9900],AH
0736:6735 005C01            ADD     [SI+01],BL
0736:6738 9C                PUSHF
0736:6739 019E015E          ADD     [BP+5E01],BX
0736:673D 016D00            ADD     [DI+00],BP
0736:6740 CF                IRET
0736:6741 00AD00A5          ADD     [DI+A500],CH
0736:6745 006F00            ADD     [BX+00],CH
0736:6748 61                POPA
0736:6749 009D0060          ADD     [DI+6000],BL
0736:674D 009C00CB          ADD     [SI+CB00],BL
0736:6751 00CA              ADD     DL,CL
0736:6753 00AF00AB          ADD     [BX+AB00],CH
0736:6757 006100            ADD     [BX+DI+00],AH
0736:675A 7E01              JLE     675D
0736:675C A5                MOVSW
0736:675D 01A203FD          ADD     [BP+SI+FD03],SP
0736:6761 031D              ADD     BX,[DI]
0736:6763 0488              ADD     AL,88
0736:6765 044C              ADD     AL,4C
0736:6767 057105            ADD     AX,0571
0736:676A 7606              JBE     6772
0736:676C 1007              ADC     [BX],AL
0736:676E 55                PUSH    BP
0736:676F 07                POP     ES
0736:6770 67                DB      67
0736:6771 07                POP     ES
0736:6772 7407              JZ      677B
0736:6774 8807              MOV     [BX],AL
0736:6776 97                XCHG    AX,DI
0736:6777 07                POP     ES
0736:6778 D7                XLATB
0736:6779 07                POP     ES
0736:677A D7                XLATB
0736:677B 07                POP     ES
0736:677C 2D0841            SUB     AX,4108
0736:677F 09E3              OR      BX,SP
0736:6781 00E2              ADD     DL,AH
0736:6783 00E1              ADD     CL,AH
0736:6785 00E1              ADD     CL,AH
0736:6787 00E0              ADD     AL,AH
0736:6789 00E0              ADD     AL,AH
0736:678B 0094058A          ADD     [SI+8A05],DL
0736:678F 06                PUSH    ES
0736:6790 A7                CMPSW
0736:6791 06                PUSH    ES
0736:6792 B706              MOV     BH,06
0736:6794 D806EA06          FADD    FLOAT PTR [06EA]
0736:6798 0A01              OR      AL,[BX+DI]
0736:679A 0201              ADD     AL,[BX+DI]
0736:679C 1000              ADC     [BX+SI],AL
0736:679E 1100              ADC     [BX+SI],AX
0736:67A0 0801              OR      [BX+DI],AL
0736:67A2 0001              ADD     [BX+DI],AL
0736:67A4 0000              ADD     [BX+SI],AL
0736:67A6 0100              ADD     [BX+SI],AX
0736:67A8 0C01              OR      AL,01
0736:67AA 0401              ADD     AL,01
0736:67AC 2000              AND     [BX+SI],AL
0736:67AE 2100              AND     [BX+SI],AX
0736:67B0 9B                WAIT    (unused)
0736:67B1 02EF              ADD     CH,BH
0736:67B3 029302EE          ADD     DL,[BP+DI+EE02]
0736:67B7 028B02ED          ADD     CL,[BP+DI+ED02]
0736:67BB 02900291          ADD     DL,[BX+SI+9102]
0736:67BF 02E1              ADD     AH,CL
0736:67C1 0231              ADD     DH,[BX+DI]
0736:67C3 01E0              ADD     AX,SP
0736:67C5 0230              ADD     DH,[BX+SI]
0736:67C7 012B              ADD     [BP+DI],BP
0736:67C9 012A              ADD     [BP+SI],BP
0736:67CB 0109              ADD     [BX+DI],CX
0736:67CD 0101              ADD     [BX+DI],AX
0736:67CF 0108              ADD     [BX+SI],CX
0736:67D1 0009              ADD     [BX+DI],CL
0736:67D3 000B              ADD     [BP+DI],CL
0736:67D5 0103              ADD     [BP+DI],AX
0736:67D7 0118              ADD     [BX+SI],BX
0736:67D9 0019              ADD     [BX+DI],BL
0736:67DB 000D              ADD     [DI],CL
0736:67DD 0105              ADD     [DI],AX
0736:67DF 0128              ADD     [BX+SI],BP
0736:67E1 0029              ADD     [BX+DI],CH
0736:67E3 00A002A1          ADD     [BX+SI+A102],AH
0736:67E7 02860087          ADD     AL,[BP+8700]
0736:67EB 000E0106          ADD     [0601],CL
0736:67EF 0130              ADD     [BX+SI],SI
0736:67F1 0031              ADD     [BX+DI],DH
0736:67F3 0000              ADD     [BX+SI],AL
0736:67F5 0104              ADD     [SI],AX
0736:67F7 07                POP     ES
0736:67F8 0A0D              OR      CL,[DI]
0736:67FA 1013              ADC     [BP+DI],DL
0736:67FC 16                PUSH    SS
0736:67FD 191B              SBB     [BP+DI],BX
0736:67FF 1E                PUSH    DS
0736:6800 2123              AND     [BP+DI],SP
0736:6802 252729            AND     AX,2927
0736:6805 2B2D              SUB     BP,[DI]
0736:6807 3032              XOR     [BP+SI],DH
0736:6809 3437              XOR     AL,37
0736:680B 3A3E4042          CMP     BH,[4240]
0736:680F 44                INC     SP
0736:6810 46                INC     SI
0736:6811 49                DEC     CX
0736:6812 4B                DEC     BX
0736:6813 4D                DEC     BP
0736:6814 51                PUSH    CX
0736:6815 55                PUSH    BP
0736:6816 59                POP     CX
0736:6817 5D                POP     BP
0736:6818 60                PUSHA
0736:6819 636567            ARPL    [DI+67],SP
0736:681C 696B6D7073        IMUL    BP,[BP+DI+6D],7370
0736:6821 7679              JBE     689C
0736:6823 7C7F              JL      68A4
0736:6825 83878A8D8F        ADD     WORD PTR [BX+8D8A],-71
0736:682A 92                XCHG    AX,DX
0736:682B 95                XCHG    AX,BP
0736:682C 98                CBW
0736:682D 9B                WAIT    (unused)
0736:682E 9E                SAHF
0736:682F A0A2A6            MOV     AL,[A6A2]
0736:6832 AA                STOSB
0736:6833 AD                LODSW
0736:6834 B0B2              MOV     AL,B2
0736:6836 B4B6              MOV     AH,B6
0736:6838 B8BABC            MOV     AX,BCBA
0736:683B BFC2C5            MOV     DI,C5C2
0736:683E C8CBE0DB          ENTER   E0CB,DB
0736:6842 E1DB              LOOPZW  681F
0736:6844 E4DB              IN      AL,DB
0736:6846 2401              AND     AL,01
0736:6848 260101            ADD     ES:[BX+DI],AX
0736:684B 0102              ADD     [BP+SI],AX
0736:684D 0404              ADD     AL,04
0736:684F 0B00              OR      AX,[BX+SI]
0736:6851 0D000F            OR      AX,0F00
0736:6854 000E000F          ADD     [0F00],CL
0736:6858 0D0E0D            OR      AX,0D0E
0736:685B 0F                DB      0F
0736:685C 0B0E0B61          OR      CX,[610B]
0736:6860 0D1005            OR      AX,0510
0736:6863 0104              ADD     [SI],AX
0736:6865 0104              ADD     [SI],AX
0736:6867 0404              ADD     AL,04
0736:6869 0101              ADD     [BX+DI],AX
0736:686B 0101              ADD     [BX+DI],AX
0736:686D 0101              ADD     [BX+DI],AX
0736:686F 2010              AND     [BX+SI],DL
0736:6871 1008              ADC     [BX+SI],CL
0736:6873 0808              OR      [BX+SI],CL
0736:6875 0808              OR      [BX+SI],CL
0736:6877 0810              OR      [BX+SI],DL
0736:6879 1008              ADC     [BX+SI],CL
0736:687B FF10              CALL    WORD PTR [BX+SI]
0736:687D 1004              ADC     [SI],AL
0736:687F 0408              ADD     AL,08
0736:6881 0808              OR      [BX+SI],CL
0736:6883 0808              OR      [BX+SI],CL
0736:6885 0808              OR      [BX+SI],CL
0736:6887 0A01              OR      AL,[BX+DI]
0736:6889 1E                PUSH    DS
0736:688A 191B              SBB     [BP+DI],BX
0736:688C 181C              SBB     [SI],BL
0736:688E 1D1A42            SBB     AX,421A
0736:6891 59                POP     CX
0736:6892 57                PUSH    DI
0736:6893 4F                DEC     DI
0736:6894 57                PUSH    DI
0736:6895 4F                DEC     DI
0736:6896 44                INC     SP
0736:6897 57                PUSH    DI
0736:6898 51                PUSH    CX
0736:6899 57                PUSH    DI
0736:689A 46                INC     SI
0736:689B 4C                DEC     SP
0736:689C 44                INC     SP
0736:689D 4F                DEC     DI
0736:689E 54                PUSH    SP
0736:689F 42                INC     DX
0736:68A0 53                PUSH    BX
0736:68A1 48                DEC     AX
0736:68A2 4C                DEC     SP
0736:68A3 4F                DEC     DI
0736:68A4 4E                DEC     SI
0736:68A5 45                INC     BP
0736:68A6 46                INC     SI
0736:68A7 41                INC     CX
0736:68A8 050607            ADD     AX,0706
0736:68AB 08FF              OR      BH,BH
0736:68AD 0C53              OR      AL,53
0736:68AF 035903            ADD     BX,[BX+DI+03]
0736:68B2 5C                POP     SP
0736:68B3 03D7              ADD     DX,DI
0736:68B5 08B908B9          OR      [BX+DI+B908],BH
0736:68B9 08B908DD          OR      [BX+DI+DD08],BH
0736:68BD 08BE08CD          OR      [BP+CD08],BH
0736:68C1 08E8              OR      AL,CH
0736:68C3 086009            OR      [BX+SI+09],AH
0736:68C6 60                PUSHA
0736:68C7 096009            OR      [BX+SI+09],SP
0736:68CA 60                PUSHA
0736:68CB 096009            OR      [BX+SI+09],SP
0736:68CE 60                PUSHA
0736:68CF 096909            OR      [BX+DI+09],BP
0736:68D2 8809              MOV     [BX+DI],CL
0736:68D4 DD                DB      DD
0736:68D5 0932              OR      [BP+SI],SI
0736:68D7 0A360A41          OR      DH,[410A]
0736:68DB 0A5D0A            OR      BL,[DI+0A]
0736:68DE 61                POPA
0736:68DF 0A8A0A9C          OR      CL,[BP+SI+9C0A]
0736:68E3 0AAA0A3D          OR      CH,[BP+SI+3D0A]
0736:68E7 0AC8              OR      CL,AL
0736:68E9 0AEE              OR      CH,DH
0736:68EB 0AF5              OR      DH,CH
0736:68ED 0AFC              OR      BH,AH
0736:68EF 0AFC              OR      BH,AH
0736:68F1 0AFC              OR      BH,AH
0736:68F3 0AFC              OR      BH,AH
0736:68F5 0AFC              OR      BH,AH
0736:68F7 0AFC              OR      BH,AH
0736:68F9 0AFC              OR      BH,AH
0736:68FB 0AFC              OR      BH,AH
0736:68FD 0AFC              OR      BH,AH
0736:68FF 0A2E4845          OR      CH,[4548]
0736:6903 58                POP     AX
0736:6904 082E4558          OR      [5845],CH
0736:6908 45                INC     BP
0736:6909 042E              ADD     AL,2E
0736:690B 43                INC     BX
0736:690C 4F                DEC     DI
0736:690D 4D                DEC     BP
0736:690E 024572            ADD     AL,[DI+72]
0736:6911 726F              JB      6982
0736:6913 7220              JB      6935
0736:6915 696E207365        IMUL    BP,[BP+20],6573
0736:691A 7175              JNO     6991
0736:691C 656E              GS:OUTSB
0736:691E 636520            ARPL    [DI+20],SP
0736:6921 6F                OUTSW
0736:6922 66                DB      66
0736:6923 206361            AND     [BP+DI+61],AH
0736:6926 6C                INSB
0736:6927 6C                INSB
0736:6928 7320              JAE     694A
0736:692A 746F              JZ      699B
0736:692C 206861            AND     [BX+SI+61],CH
0736:692F 636B2E            ARPL    [BP+DI+2E],BP
0736:6932 0D0A24            OR      AX,240A
0736:6935 2003              AND     [BP+DI],AL
0736:6937 2103              AND     [BP+DI],AX
0736:6939 2403              AND     AL,03
0736:693B 0402              ADD     AL,02
0736:693D 06                PUSH    ES
0736:693E 020A              ADD     CL,[BP+SI]
0736:6940 09060502          OR      [0205],AX
0736:6944 0104              ADD     [SI],AX
0736:6946 08414C            OR      [BX+DI+4C],AL
0736:6949 43                INC     BX
0736:694A 4C                DEC     SP
0736:694B 44                INC     SP
0736:694C 4C                DEC     SP
0736:694D 42                INC     DX
0736:694E 4C                DEC     SP
0736:694F 41                INC     CX
0736:6950 48                DEC     AX
0736:6951 43                INC     BX
0736:6952 48                DEC     AX
0736:6953 44                INC     SP
0736:6954 48                DEC     AX
0736:6955 42                INC     DX
0736:6956 48                DEC     AX
0736:6957 41                INC     CX
0736:6958 58                POP     AX
0736:6959 43                INC     BX
0736:695A 58                POP     AX
0736:695B 44                INC     SP
0736:695C 58                POP     AX
0736:695D 42                INC     DX
0736:695E 58                POP     AX
0736:695F 53                PUSH    BX
0736:6960 50                PUSH    AX
0736:6961 42                INC     DX
0736:6962 50                PUSH    AX
0736:6963 53                PUSH    BX
0736:6964 49                DEC     CX
0736:6965 44                INC     SP
0736:6966 49                DEC     CX
0736:6967 45                INC     BP
0736:6968 53                PUSH    BX
0736:6969 43                INC     BX
0736:696A 53                PUSH    BX
0736:696B 53                PUSH    BX
0736:696C 53                PUSH    BX
0736:696D 44                INC     SP
0736:696E 53                PUSH    BX
0736:696F 46                INC     SI
0736:6970 53                PUSH    BX
0736:6971 47                INC     DI
0736:6972 53                PUSH    BX
0736:6973 53                PUSH    BX
0736:6974 54                PUSH    SP
0736:6975 4D                DEC     BP
0736:6976 4D                DEC     BP
0736:6977 43                INC     BX
0736:6978 52                PUSH    DX
0736:6979 44                INC     SP
0736:697A 52                PUSH    DX
0736:697B 54                PUSH    SP
0736:697C 52                PUSH    DX
0736:697D 26                SEG     ES (unused)
0736:697E 55                PUSH    BP
0736:697F 2A5528            SUB     DL,[DI+28]
0736:6982 55                PUSH    BP
0736:6983 2455              AND     AL,55
0736:6985 26                SEG     ES (unused)
0736:6986 2E                SEG     CS (unused)
0736:6987 36                SEG     SS (unused)
0736:6988 3E                SEG     DS (unused)
0736:6989 64                SEG     FS (unused)
0736:698A 65                SEG     GS (unused)
0736:698B 9B                WAIT    (unused)
0736:698C F0                LOCK    (unused)
0736:698D F2                REPNE   (unused)
0736:698E F3                REPE    (unused)
0736:698F 64096206          OR      FS:[BP+SI+06],SP
0736:6993 C507              LDS     AX,[BX]
0736:6995 BF0700            MOV     DI,0007
0736:6998 FE                DB      FE
0736:6999 2902              SUB     [BP+SI],AX
0736:699B 2681278E27        AND     WORD PTR ES:[BX],278E
0736:69A0 97                XCHG    AX,DI
0736:69A1 27                DAA
0736:69A2 AA                STOSB
0736:69A3 27                DAA
0736:69A4 DD27              FRSTOR  [BX]
0736:69A6 E227              LOOPW   69CF
0736:69A8 E627              OUT     27,AL
0736:69AA EA27F62707        JMP     0727:F627
0736:69AF 282D              SUB     [DI],CH
0736:69B1 281A              SUB     [BP+SI],BL
0736:69B3 283F              SUB     [BX],BH
0736:69B5 286328            SUB     [BP+DI+28],AH
0736:69B8 69289C28          IMUL    BP,[BX+SI],289C
0736:69BC AC                LODSB
0736:69BD 28C0              SUB     AL,AL
0736:69BF 28DF              SUB     BH,BL
0736:69C1 28EA              SUB     DL,CH
0736:69C3 2804              SUB     [SI],AL
0736:69C5 2922              SUB     [BP+SI],SP
0736:69C7 2934              SUB     [SI],SI
0736:69C9 293A              SUB     [BP+SI],DI
0736:69CB 294429            SUB     [SI+29],AX
0736:69CE 3100              XOR     [BX+SI],AX
0736:69D0 3300              XOR     AX,[BX+SI]
0736:69D2 44                INC     SP
0736:69D3 58                POP     AX
0736:69D4 43                INC     BX
0736:69D5 4C                DEC     SP
0736:69D6 53                PUSH    BX
0736:69D7 54                PUSH    SP
0736:69D8 43                INC     BX
0736:69D9 53                PUSH    BX
0736:69DA 44                INC     SP
0736:69DB 53                PUSH    BX
0736:69DC 45                INC     BP
0736:69DD 53                PUSH    BX
0736:69DE 46                INC     SI
0736:69DF 53                PUSH    BX
0736:69E0 47                INC     DI
0736:69E1 53                PUSH    BX
0736:69E2 53                PUSH    BX
0736:69E3 53                PUSH    BX
0736:69E4 4D                DEC     BP
0736:69E5 29F1              SUB     CX,SI
0736:69E7 22FD              AND     BH,CH
0736:69E9 2204              AND     AL,[SI]
0736:69EB 231F              AND     BX,[BX]
0736:69ED 2328              AND     BP,[BX+SI]
0736:69EF 234357            AND     AX,[BP+DI+57]
0736:69F2 53                PUSH    BX
0736:69F3 57                PUSH    DI
0736:69F4 54                PUSH    SP
0736:69F5 57                PUSH    DI
0736:69F6 4F                DEC     DI
0736:69F7 50                PUSH    AX
0736:69F8 43                INC     BX
0736:69F9 3D4950            CMP     AX,5049
0736:69FC 3D4450            CMP     AX,5044
0736:69FF 3D656D            CMP     AX,6D65
0736:6A02 7074              JO      6A78
0736:6A04 794E              JNS     6A54
0736:6A06 61                POPA
0736:6A07 4E                DEC     SI
0736:6A08 1054FF            ADC     [SI-01],DL
0736:6A0B F73F              IDIV    WORD PTR [BX]
0736:6A0D 62                DB      62
0736:6A0E FFF7              PUSH    DI
0736:6A10 3F                AAS
0736:6A11 16                PUSH    SS
0736:6A12 FF12              CALL    WORD PTR [BP+SI]
0736:6A14 B4FF              MOV     AH,FF
0736:6A16 F4                HLT
0736:6A17 AB                STOSW
0736:6A18 9B                WAIT    (unused)
0736:6A19 05F1F4            ADD     AX,F4F1
0736:6A1C AD                LODSW
0736:6A1D FA                CLI
0736:6A1E F4                HLT
0736:6A1F 04C4              ADD     AL,C4
0736:6A21 055DFF            ADD     AX,FF5D
0736:6A24 F4                HLT
0736:6A25 AB                STOSW
0736:6A26 0301              ADD     AX,[BX+DI]
0736:6A28 31F4              XOR     SP,SI
0736:6A2A AD                LODSW
0736:6A2B 62                DB      62
0736:6A2C F4                HLT
0736:6A2D 0004              ADD     [SI],AL
0736:6A2F 009DFFF4          ADD     [DI+F4FF],BL
0736:6A33 AC                LODSB
0736:6A34 330A              XOR     CX,[BP+SI]
0736:6A36 B1F4              MOV     CL,F4
0736:6A38 AE                SCASB
0736:6A39 92                XCHG    AX,DX
0736:6A3A F4                HLT
0736:6A3B 09840A1D          OR      [SI+1D0A],AX
0736:6A3F FF                DB      FF
0736:6A40 EF                OUT     DX,AX
0736:6A41 1D6AFF            SBB     AX,FF6A
0736:6A44 EE                OUT     DX,AL
0736:6A45 1D1FFF            SBB     AX,FF1F
0736:6A48 F0                LOCK    (unused)
0736:6A49 83D8FF            SBB     AX,-01
0736:6A4C F0                LOCK    (unused)
0736:6A4D 8424              TEST    [SI],AH
0736:6A4F FF                DB      FF
0736:6A50 F9                STC
0736:6A51 F1                DB      F1
0736:6A52 8769FF            XCHG    BP,[BX+DI-01]
0736:6A55 F0                LOCK    (unused)
0736:6A56 7C6E              JL      6AC6
0736:6A58 F0                LOCK    (unused)
0736:6A59 B0FB              MOV     AL,FB
0736:6A5B FFF4              PUSH    SP
0736:6A5D F0838EF4F0B1      LOCK    OR      WORD PTR [BP+F0F4],-4F
0736:6A63 DF                DB      DF
0736:6A64 FFF4              PUSH    SP
0736:6A66 F0812EF4F0B193    LOCK    SUB     WORD PTR [F0F4],93B1
0736:6A6D FFF4              PUSH    SP
0736:6A6F F0                LOCK    (unused)
0736:6A70 7ECE              JLE     6A40
0736:6A72 F4                HLT
0736:6A73 F0                LOCK    (unused)
0736:6A74 B147              MOV     CL,47
0736:6A76 FF44EC            INC     WORD PTR [SI-14]
0736:6A79 B2E0              MOV     DL,E0
0736:6A7B B312              MOV     BL,12
0736:6A7D 2DC5FF            SUB     AX,FFC5
0736:6A80 F8                CLC
0736:6A81 F9                STC
0736:6A82 2D20FF            SUB     AX,FF20
0736:6A85 49                DEC     CX
0736:6A86 A0FF4A            MOV     AL,[4AFF]
0736:6A89 D0FF              SAR     BH,1
0736:6A8B 4A                DEC     DX
0736:6A8C 38FF              CMP     BH,BH
0736:6A8E EF                OUT     DX,AX
0736:6A8F 4D                DEC     BP
0736:6A90 C8FF48BC          ENTER   48FF,BC
0736:6A94 FFF3              PUSH    BX
0736:6A96 61                POPA
0736:6A97 1CFF              SBB     AL,FF
0736:6A99 F3                REPE    (unused)
0736:6A9A 5F                POP     DI
0736:6A9B EC                IN      AL,DX
0736:6A9C FFF3              PUSH    BX
0736:6A9E 5F                POP     DI
0736:6A9F A0FFF3            MOV     AL,[F3FF]
0736:6AA2 60                PUSHA
0736:6AA3 D0FF              SAR     BH,1
0736:6AA5 F3                REPE    (unused)
0736:6AA6 5F                POP     DI
0736:6AA7 A0FFF3            MOV     AL,[F3FF]
0736:6AAA 60                PUSHA
0736:6AAB 38FF              CMP     BH,BH
0736:6AAD F3                REPE    (unused)
0736:6AAE 637CFF            ARPL    [SI-01],DI
0736:6AB1 F3                REPE    (unused)
0736:6AB2 62                DB      62
0736:6AB3 E4FF              IN      AL,FF
0736:6AB5 F3                REPE    (unused)
0736:6AB6 6298FFF3          BOUND   BX,[BX+SI+F3FF]
0736:6ABA 6330              ARPL    [BX+SI],SI
0736:6ABC FFF3              PUSH    BX
0736:6ABE 60                PUSHA
0736:6ABF D0FF              SAR     BH,1
0736:6AC1 F3                REPE    (unused)
0736:6AC2 5F                POP     DI
0736:6AC3 A0FFF3            MOV     AL,[F3FF]
0736:6AC6 5F                POP     DI
0736:6AC7 EC                IN      AL,DX
0736:6AC8 FFF3              PUSH    BX
0736:6ACA 61                POPA
0736:6ACB 1CFF              SBB     AL,FF
0736:6ACD F3                REPE    (unused)
0736:6ACE 5F                POP     DI
0736:6ACF EC                IN      AL,DX
0736:6AD0 FFF3              PUSH    BX
0736:6AD2 60                PUSHA
0736:6AD3 84FF              TEST    BH,BH
0736:6AD5 F3                REPE    (unused)
0736:6AD6 6330              ARPL    [BX+SI],SI
0736:6AD8 FFF3              PUSH    BX
0736:6ADA 6298FFF3          BOUND   BX,[BX+SI+F3FF]
0736:6ADE 62                DB      62
0736:6ADF E4FF              IN      AL,FF
0736:6AE1 F3                REPE    (unused)
0736:6AE2 637CFF            ARPL    [SI-01],DI
0736:6AE5 F3                REPE    (unused)
0736:6AE6 5F                POP     DI
0736:6AE7 54                PUSH    SP
0736:6AE8 FFF3              PUSH    BX
0736:6AEA 624CFF            BOUND   CX,[SI-01]
0736:6AED F3                REPE    (unused)
0736:6AEE 61                POPA
0736:6AEF B4FF              MOV     AH,FF
0736:6AF1 F3                REPE    (unused)
0736:6AF2 60                PUSHA
0736:6AF3 84FF              TEST    BH,BH
0736:6AF5 F3                REPE    (unused)
0736:6AF6 5F                POP     DI
0736:6AF7 08FF              OR      BH,BH
0736:6AF9 F3                REPE    (unused)
0736:6AFA 6200              BOUND   AX,[BX+SI]
0736:6AFC FFF3              PUSH    BX
0736:6AFE 6200              BOUND   AX,[BX+SI]
0736:6B00 FFF3              PUSH    BX
0736:6B02 624CFF            BOUND   CX,[SI-01]
0736:6B05 F3                REPE    (unused)
0736:6B06 61                POPA
0736:6B07 68FFF3            PUSH    WORD F3FF
0736:6B0A 60                PUSHA
0736:6B0B 38FF              CMP     BH,BH
0736:6B0D AD                LODSW
0736:6B0E 17                POP     SS
0736:6B0F 11D1              ADC     CX,DX
0736:6B11 AF                SCASW
0736:6B12 7610              JBE     6B24
0736:6B14 A4                MOVSB
0736:6B15 113D              ADC     [DI],DI
0736:6B17 FF31              PUSH    WORD PTR [BX+DI]
0736:6B19 48                DEC     AX
0736:6B1A FF                DB      FF
0736:6B1B F8                CLC
0736:6B1C F9                STC
0736:6B1D 3194FFF4          XOR     [SI+F4FF],DX
0736:6B21 F1                DB      F1
0736:6B22 8044FFF2          ADD     BYTE PTR [SI-01],F2
0736:6B26 B4DB              MOV     AH,DB
0736:6B28 FFF2              PUSH    DX
0736:6B2A 7C18              JL      6B44
0736:6B2C FF                DB      FF
0736:6B2D F8                CLC
0736:6B2E F9                STC
0736:6B2F 2D6CFF            SUB     AX,FF6C
0736:6B32 0B94FF0D          OR      DX,[SI+0DFF]
0736:6B36 F4                HLT
0736:6B37 FF                DB      FF
0736:6B38 FE                DB      FE
0736:6B39 FC                CLD
0736:6B3A 1571F4            ADC     AX,F471
0736:6B3D B73C              MOV     BH,3C
0736:6B3F FF                DB      FF
0736:6B40 BB18FF            MOV     BX,FF18
0736:6B43 FD                STD
0736:6B44 EE                OUT     DX,AL
0736:6B45 3B72FF            CMP     SI,[BP+SI-01]
0736:6B48 40                INC     AX
0736:6B49 6C                INSB
0736:6B4A F0FF406C          LOCK    INC     WORD PTR [BX+SI+6C]
0736:6B4E E1FF              LOOPZW  6B4F
0736:6B50 98                CBW
0736:6B51 13994440          ADC     BX,[BX+DI+4044]
0736:6B55 35C041            XOR     AX,41C0
0736:6B58 66                DB      66
0736:6B59 C0FF41            SAR     BH,41
0736:6B5C FFC0              INC     AX
0736:6B5E 41                INC     CX
0736:6B5F E8C1FF            CALL    6B23
0736:6B62 98                CBW
0736:6B63 B099              MOV     AL,99
0736:6B65 E1FF              LOOPZW  6B66
0736:6B67 A3AEFF            MOV     [FFAE],AX
0736:6B6A A86E              TEST    AL,6E
0736:6B6C FF406C            INC     WORD PTR [BX+SI+6C]
0736:6B6F E0FF              LOOPNZW 6B70
0736:6B71 FA                CLI
0736:6B72 41                INC     CX
0736:6B73 04E2              ADD     AL,E2
0736:6B75 FFF3              PUSH    BX
0736:6B77 41                INC     CX
0736:6B78 19D0              SBB     AX,DX
0736:6B7A FFF3              PUSH    BX
0736:6B7C 41                INC     CX
0736:6B7D 19C0              SBB     AX,AX
0736:6B7F FFF3              PUSH    BX
0736:6B81 40                INC     AX
0736:6B82 CDC0              INT     C0
0736:6B84 FFF3              PUSH    BX
0736:6B86 40                INC     AX
0736:6B87 CDD0              INT     D0
0736:6B89 FFF3              PUSH    BX
0736:6B8B 40                INC     AX
0736:6B8C CDC8              INT     C8
0736:6B8E FFF3              PUSH    BX
0736:6B90 40                INC     AX
0736:6B91 CDD0              INT     D0
0736:6B93 FFF3              PUSH    BX
0736:6B95 40                INC     AX
0736:6B96 CDC0              INT     C0
0736:6B98 FFF3              PUSH    BX
0736:6B9A 41                INC     CX
0736:6B9B 19C0              SBB     AX,AX
0736:6B9D FFF3              PUSH    BX
0736:6B9F 41                INC     CX
0736:6BA0 19D0              SBB     AX,DX
0736:6BA2 FFF3              PUSH    BX
0736:6BA4 41                INC     CX
0736:6BA5 19C8              SBB     AX,CX
0736:6BA7 FFF3              PUSH    BX
0736:6BA9 41                INC     CX
0736:6BAA 19D8              SBB     AX,BX
0736:6BAC FFF3              PUSH    BX
0736:6BAE 41                INC     CX
0736:6BAF 19C8              SBB     AX,CX
0736:6BB1 FFF3              PUSH    BX
0736:6BB3 40                INC     AX
0736:6BB4 CDD8              INT     D8
0736:6BB6 FFF3              PUSH    BX
0736:6BB8 40                INC     AX
0736:6BB9 CDC8              INT     C8
0736:6BBB FF9CD39E          CALL    FAR [SI+9ED3]
0736:6BBF 0440              ADD     AL,40
0736:6BC1 3CD0              CMP     AL,D0
0736:6BC3 40                INC     AX
0736:6BC4 20D1              AND     CL,DL
0736:6BC6 FFF3              PUSH    BX
0736:6BC8 41                INC     CX
0736:6BC9 20F0              AND     AL,DH
0736:6BCB F3                REPE    (unused)
0736:6BCC 41                INC     CX
0736:6BCD 04F1              ADD     AL,F1
0736:6BCF FFF3              PUSH    BX
0736:6BD1 42                INC     DX
0736:6BD2 50                PUSH    AX
0736:6BD3 F0                LOCK    (unused)
0736:6BD4 F3                REPE    (unused)
0736:6BD5 42                INC     DX
0736:6BD6 34F1              XOR     AL,F1
0736:6BD8 FF9F33A0          CALL    FAR [BX+A033]
0736:6BDC 64                SEG     FS (unused)
0736:6BDD 40                INC     AX
0736:6BDE 3CD8              CMP     AL,D8
0736:6BE0 40                INC     AX
0736:6BE1 20D9              AND     CL,BL
0736:6BE3 FF41E8            INC     WORD PTR [BX+DI-18]
0736:6BE6 D9FF              FCOS
0736:6BE8 F0                LOCK    (unused)
0736:6BE9 40                INC     AX
0736:6BEA 6C                INSB
0736:6BEB FF                DB      FF
0736:6BEC FF406C            INC     WORD PTR [BX+SI+6C]
0736:6BEF F6FF              IDIV    BH
0736:6BF1 FA                CLI
0736:6BF2 41                INC     CX
0736:6BF3 04E1              ADD     AL,E1
0736:6BF5 FFA653A7          JMP     WORD PTR [BP+A753]
0736:6BF9 844035            TEST    [BX+SI+35],AL
0736:6BFC F0                LOCK    (unused)
0736:6BFD 41                INC     CX
0736:6BFE 66                DB      66
0736:6BFF F8                CLC
0736:6C00 FF41FF            INC     WORD PTR [BX+DI-01]
0736:6C03 F8                CLC
0736:6C04 41                INC     CX
0736:6C05 E8F9FF            CALL    6C01
0736:6C08 A6                CMPSB
0736:6C09 F0                LOCK    (unused)
0736:6C0A A821              TEST    AL,21
0736:6C0C FFA8B3A9          JMP     FAR [BX+SI+A9B3]
0736:6C10 E440              IN      AL,40
0736:6C12 35F841            XOR     AX,41F8
0736:6C15 66F0FF41FF        LOCK    INC     DWORD PTR [BX+DI-01]
0736:6C1A F0                LOCK    (unused)
0736:6C1B 41                INC     CX
0736:6C1C E8F1FF            CALL    6C10
0736:6C1F A950AA            TEST    AX,AA50
0736:6C22 81FFFA41          CMP     DI,41FA
0736:6C26 04E0              ADD     AL,E0
0736:6C28 FF41B7            INC     WORD PTR [BX+DI-49]
0736:6C2B C0FF9D            SAR     BH,9D
0736:6C2E 709E              JO      6BCE
0736:6C30 A1FF9F            MOV     AX,[9FFF]
0736:6C33 D0A101FF          SHL     BYTE PTR [BX+DI+FF01],1
0736:6C37 98                CBW
0736:6C38 FC                CLD
0736:6C39 9A2DA603FF        CALL    FF03:A62D
0736:6C3E 40                INC     AX
0736:6C3F 6C                INSB
0736:6C40 F7FF              IDIV    DI
0736:6C42 FA                CLI
0736:6C43 41                INC     CX
0736:6C44 04E3              ADD     AL,E3
0736:6C46 FF9DBC9E          CALL    FAR [DI+9EBC]
0736:6C4A ED                IN      AX,DX
0736:6C4B FFA01CA1          JMP     WORD PTR [BX+SI+A11C]
0736:6C4F 4D                DEC     BP
0736:6C50 AA                STOSB
0736:6C51 C3                RET
0736:6C52 FF985F99          CALL    FAR [BX+SI+995F]
0736:6C56 90                NOP
0736:6C57 A4                MOVSB
0736:6C58 DE4087            FIADD   WORD PTR [BX+SI-79]
0736:6C5B C0FF40            SAR     BH,40
0736:6C5E 6C                INSB
0736:6C5F E8FF40            CALL    AD61
0736:6C62 6C                INSB
0736:6C63 E9FF40            JMP     AD65
0736:6C66 6C                INSB
0736:6C67 EAFF406CEB        JMP     EB6C:40FF
0736:6C6C FF406C            INC     WORD PTR [BX+SI+6C]
0736:6C6F EC                IN      AL,DX
0736:6C70 FF406C            INC     WORD PTR [BX+SI+6C]
0736:6C73 ED                IN      AX,DX
0736:6C74 FF406C            INC     WORD PTR [BX+SI+6C]
0736:6C77 EE                OUT     DX,AL
0736:6C78 FF                DB      FF
0736:6C79 FA                CLI
0736:6C7A A4                MOVSB
0736:6C7B 45                INC     BP
0736:6C7C FFA1E9FF          JMP     WORD PTR [BX+DI+FFE9]
0736:6C80 F8                CLC
0736:6C81 F9                STC
0736:6C82 A1E9FF            MOV     AX,[FFE9]
0736:6C85 9A739BA440        CALL    40A4:9B73
0736:6C8A 35C841            XOR     AX,41C8
0736:6C8D 66                DB      66
0736:6C8E C8FF41FF          ENTER   41FF,FF
0736:6C92 C841E8C9          ENTER   E841,C9
0736:6C96 FF9B109C          CALL    FAR [BP+DI+9C10]
0736:6C9A 41                INC     CX
0736:6C9B FF406C            INC     WORD PTR [BX+SI+6C]
0736:6C9E D0FF              SAR     BH,1
0736:6CA0 40                INC     AX
0736:6CA1 6C                INSB
0736:6CA2 F3                REPE    (unused)
0736:6CA3 FF406C            INC     WORD PTR [BX+SI+6C]
0736:6CA6 F8                CLC
0736:6CA7 FFF0              PUSH    AX
0736:6CA9 40                INC     AX
0736:6CAA 6C                INSB
0736:6CAB F5                CMC
0736:6CAC FF406C            INC     WORD PTR [BX+SI+6C]
0736:6CAF F2                REPNE   (unused)
0736:6CB0 FF406C            INC     WORD PTR [BX+SI+6C]
0736:6CB3 FC                CLD
0736:6CB4 FFA319FF          JMP     WORD PTR [BP+DI+FF19]
0736:6CB8 F8                CLC
0736:6CB9 F9                STC
0736:6CBA A319FF            MOV     [FF19],AX
0736:6CBD FA                CLI
0736:6CBE A7                CMPSW
0736:6CBF D9FF              FCOS
0736:6CC1 F8                CLC
0736:6CC2 F9                STC
0736:6CC3 A7                CMPSW
0736:6CC4 D9FF              FCOS
0736:6CC6 40                INC     AX
0736:6CC7 6C                INSB
0736:6CC8 FD                STD
0736:6CC9 FF                DB      FF
0736:6CCA FA                CLI
0736:6CCB EF                OUT     DX,AX
0736:6CCC 41                INC     CX
0736:6CCD 04E4              ADD     AL,E4
0736:6CCF FFF0              PUSH    AX
0736:6CD1 40                INC     AX
0736:6CD2 6C                INSB
0736:6CD3 FE                DB      FE
0736:6CD4 FFF0              PUSH    AX
0736:6CD6 40                INC     AX
0736:6CD7 6C                INSB
0736:6CD8 FB                STI
0736:6CD9 FF406C            INC     WORD PTR [BX+SI+6C]
0736:6CDC FA                CLI
0736:6CDD FF9D1F9E          CALL    FAR [DI+9E1F]
0736:6CE1 50                PUSH    AX
0736:6CE2 41                INC     CX
0736:6CE3 B7D0              MOV     BH,D0
0736:6CE5 FF9F7FA0          CALL    FAR [BX+A07F]
0736:6CE9 B0A9              MOV     AL,A9
0736:6CEB 9E                SAHF
0736:6CEC 41                INC     CX
0736:6CED B7D8              MOV     BH,D8
0736:6CEF FF                DB      FF
0736:6CF0 FA                CLI
0736:6CF1 A905FF            TEST    AX,FF05
0736:6CF4 FA                CLI
0736:6CF5 A6                CMPSB
0736:6CF6 A9FFF8            TEST    AX,F8FF
0736:6CF9 F9                STC
0736:6CFA A6                CMPSB
0736:6CFB A9FFFA            TEST    AX,FAFF
0736:6CFE 42                INC     DX
0736:6CFF 52                PUSH    DX
0736:6D00 E0AA              LOOPNZW 6CAC
0736:6D02 35FFA1            XOR     AX,A1FF
0736:6D05 93                XCHG    AX,BX
0736:6D06 A2C440            MOV     [40C4],AL
0736:6D09 35E041            XOR     AX,41E0
0736:6D0C 66E8FF41FFE8      CALL    DWORD E8FFAF11
0736:6D12 41                INC     CX
0736:6D13 E8E9FF            CALL    6CFF
0736:6D16 A230A3            MOV     [A330],AL
0736:6D19 61                POPA
0736:6D1A FFA3F3A5          JMP     WORD PTR [BP+DI+A5F3]
0736:6D1E 2440              AND     AL,40
0736:6D20 35E841            XOR     AX,41E8
0736:6D23 66                DB      66
0736:6D24 E0FF              LOOPNZW 6D25
0736:6D26 41                INC     CX
0736:6D27 FFE0              JMP     AX
0736:6D29 41                INC     CX
0736:6D2A E8E1FF            CALL    6D0E
0736:6D2D A4                MOVSB
0736:6D2E 90                NOP
0736:6D2F A5                MOVSW
0736:6D30 C1FF40            SAR     DI,40
0736:6D33 6C                INSB
0736:6D34 E4FF              IN      AL,FF
0736:6D36 F0                LOCK    (unused)
0736:6D37 41                INC     CX
0736:6D38 B8E0F0            MOV     AX,F0E0
0736:6D3B 41                INC     CX
0736:6D3C 9C                PUSHF
0736:6D3D E1FF              LOOPZW  6D3E
0736:6D3F F3                REPE    (unused)
0736:6D40 41                INC     CX
0736:6D41 20E8              AND     AL,CH
0736:6D43 F3                REPE    (unused)
0736:6D44 41                INC     CX
0736:6D45 04E9              ADD     AL,E9
0736:6D47 FFF3              PUSH    BX
0736:6D49 42                INC     DX
0736:6D4A 50                PUSH    AX
0736:6D4B E8F342            CALL    B041
0736:6D4E 34E9              XOR     AL,E9
0736:6D50 FFF0              PUSH    AX
0736:6D52 41                INC     CX
0736:6D53 B8E8F0            MOV     AX,F0E8
0736:6D56 41                INC     CX
0736:6D57 9C                PUSHF
0736:6D58 E9FFF0            JMP     5E5A
0736:6D5B 40                INC     AX
0736:6D5C B8E9FF            MOV     AX,FFE9
0736:6D5F 2E                SEG     CS (unused)
0736:6D60 04FF              ADD     AL,FF
0736:6D62 40                INC     AX
0736:6D63 6C                INSB
0736:6D64 E5FF              IN      AX,FF
0736:6D66 40                INC     AX
0736:6D67 88C8              MOV     AL,CL
0736:6D69 40                INC     AX
0736:6D6A 6C                INSB
0736:6D6B C9                LEAVE
0736:6D6C FF406C            INC     WORD PTR [BX+SI+6C]
0736:6D6F F4                HLT
0736:6D70 FF406C            INC     WORD PTR [BX+SI+6C]
0736:6D73 F1                DB      F1
0736:6D74 FF406C            INC     WORD PTR [BX+SI+6C]
0736:6D77 F9                STC
0736:6D78 FF4870            DEC     WORD PTR [BX+SI+70]
0736:6D7B FF                DB      FF
0736:6D7C BB64FF            MOV     BX,FF64
0736:6D7F BACCF0            MOV     DX,F0CC
0736:6D82 7FFC              JG      6D80
0736:6D84 EE                OUT     DX,AL
0736:6D85 1F                POP     DS
0736:6D86 E3EE              JCXZ    6D76
0736:6D88 1F                POP     DS
0736:6D89 E4EE              IN      AL,EE
0736:6D8B 1F                POP     DS
0736:6D8C 4D                DEC     BP
0736:6D8D EE                OUT     DX,AL
0736:6D8E 1F                POP     DS
0736:6D8F 4E                DEC     SI
0736:6D90 FF43D3            INC     WORD PTR [BP+DI-2D]
0736:6D93 46                INC     SI
0736:6D94 34FF              XOR     AL,FF
0736:6D96 1311              ADC     DX,[BX+DI]
0736:6D98 F4                HLT
0736:6D99 B6F0              MOV     DH,F0
0736:6D9B FF                DB      FF
0736:6D9C EE                OUT     DX,AL
0736:6D9D 2010              AND     [BX+SI],DL
0736:6D9F FF                DB      FF
0736:6DA0 F8                CLC
0736:6DA1 F9                STC
0736:6DA2 EE                OUT     DX,AL
0736:6DA3 205CFF            AND     [SI-01],BL
0736:6DA6 3CB5              CMP     AL,B5
0736:6DA8 3D02FF            CMP     AX,FF02
0736:6DAB 3D28FF            CMP     AX,FF28
0736:6DAE F1                DB      F1
0736:6DAF 4E                DEC     SI
0736:6DB0 60                PUSHA
0736:6DB1 FFF1              PUSH    CX
0736:6DB3 BDD1FF            MOV     BP,FFD1
0736:6DB6 F8                CLC
0736:6DB7 F9                STC
0736:6DB8 3D74FF            CMP     AX,FF74
0736:6DBB 237BF0            AND     DI,[BP+DI-10]
0736:6DBE 7420              JZ      6DE0
0736:6DC0 FF22              JMP     WORD PTR [BP+SI]
0736:6DC2 4B                DEC     BX
0736:6DC3 F0                LOCK    (unused)
0736:6DC4 72F0              JB      6DB6
0736:6DC6 FF21              JMP     WORD PTR [BX+DI]
0736:6DC8 FFF0              PUSH    AX
0736:6DCA 72A4              JB      6D70
0736:6DCC FF23              JMP     WORD PTR [BP+DI]
0736:6DCE 2F                DAS
0736:6DCF F0                LOCK    (unused)
0736:6DD0 73D4              JAE     6DA6
0736:6DD2 FF21              JMP     WORD PTR [BX+DI]
0736:6DD4 FFF0              PUSH    AX
0736:6DD6 72A4              JB      6D7C
0736:6DD8 FF                DB      FF
0736:6DD9 F8                CLC
0736:6DDA F9                STC
0736:6DDB 43                INC     BX
0736:6DDC 8BFF              MOV     DI,DI
0736:6DDE 2297F073          AND     DL,[BX+73F0]
0736:6DE2 3CFF              CMP     AL,FF
0736:6DE4 25DBF0            AND     AX,F0DB
0736:6DE7 7680              JBE     6D69
0736:6DE9 FF25              JMP     WORD PTR [DI]
0736:6DEB 43                INC     BX
0736:6DEC F0                LOCK    (unused)
0736:6DED 75E8              JNZ     6DD7
0736:6DEF FF24              JMP     WORD PTR [SI]
0736:6DF1 F7F0              DIV     AX
0736:6DF3 759C              JNZ     6D91
0736:6DF5 FF25              JMP     WORD PTR [DI]
0736:6DF7 8F                DB      8F
0736:6DF8 F0                LOCK    (unused)
0736:6DF9 7634              JBE     6E2F
0736:6DFB FF23              JMP     WORD PTR [BP+DI]
0736:6DFD 2F                DAS
0736:6DFE F0                LOCK    (unused)
0736:6DFF 73D4              JAE     6DD5
0736:6E01 FF21              JMP     WORD PTR [BX+DI]
0736:6E03 FFF0              PUSH    AX
0736:6E05 72A4              JB      6DAB
0736:6E07 FF22              JMP     WORD PTR [BP+SI]
0736:6E09 4B                DEC     BX
0736:6E0A F0                LOCK    (unused)
0736:6E0B 72F0              JB      6DFD
0736:6E0D FF23              JMP     WORD PTR [BP+DI]
0736:6E0F 7BF0              JPO     6E01
0736:6E11 7420              JZ      6E33
0736:6E13 FF22              JMP     WORD PTR [BP+SI]
0736:6E15 4B                DEC     BX
0736:6E16 F0                LOCK    (unused)
0736:6E17 72F0              JB      6E09
0736:6E19 FF22              JMP     WORD PTR [BP+SI]
0736:6E1B E3F0              JCXZ    6E0D
0736:6E1D 7388              JAE     6DA7
0736:6E1F FF25              JMP     WORD PTR [DI]
0736:6E21 8F                DB      8F
0736:6E22 F0                LOCK    (unused)
0736:6E23 7634              JBE     6E59
0736:6E25 FF24              JMP     WORD PTR [SI]
0736:6E27 F7F0              DIV     AX
0736:6E29 759C              JNZ     6DC7
0736:6E2B FF25              JMP     WORD PTR [DI]
0736:6E2D 43                INC     BX
0736:6E2E F0                LOCK    (unused)
0736:6E2F 75E8              JNZ     6E19
0736:6E31 FF25              JMP     WORD PTR [DI]
0736:6E33 DBF0              FCOMI   ST(0)                           [needs 687]
0736:6E35 7680              JBE     6DB7
0736:6E37 FF21              JMP     WORD PTR [BX+DI]
0736:6E39 B3F0              MOV     BL,F0
0736:6E3B 7258              JB      6E95
0736:6E3D FF24              JMP     WORD PTR [SI]
0736:6E3F AB                STOSW
0736:6E40 F0                LOCK    (unused)
0736:6E41 7550              JNZ     6E93
0736:6E43 FF24              JMP     WORD PTR [SI]
0736:6E45 13F0              ADC     SI,AX
0736:6E47 74B8              JZ      6E01
0736:6E49 FF22              JMP     WORD PTR [BP+SI]
0736:6E4B E3F0              JCXZ    6E3D
0736:6E4D 7388              JAE     6DD7
0736:6E4F FF21              JMP     WORD PTR [BX+DI]
0736:6E51 67                DB      67
0736:6E52 F0                LOCK    (unused)
0736:6E53 720C              JB      6E61
0736:6E55 FF24              JMP     WORD PTR [SI]
0736:6E57 5F                POP     DI
0736:6E58 F0                LOCK    (unused)
0736:6E59 7504              JNZ     6E5F
0736:6E5B FF24              JMP     WORD PTR [SI]
0736:6E5D 5F                POP     DI
0736:6E5E F0                LOCK    (unused)
0736:6E5F 7504              JNZ     6E65
0736:6E61 FF24              JMP     WORD PTR [SI]
0736:6E63 AB                STOSW
0736:6E64 F0                LOCK    (unused)
0736:6E65 7550              JNZ     6EB7
0736:6E67 FF23              JMP     WORD PTR [BP+DI]
0736:6E69 C7                DB      C7
0736:6E6A F0                LOCK    (unused)
0736:6E6B 746C              JZ      6ED9
0736:6E6D FF22              JMP     WORD PTR [BP+SI]
0736:6E6F 97                XCHG    AX,DI
0736:6E70 F0                LOCK    (unused)
0736:6E71 733C              JAE     6EAF
0736:6E73 FF45EB            INC     WORD PTR [DI-15]
0736:6E76 45                INC     BP
0736:6E77 38B378B3          CMP     [BP+DI+B378],DH
0736:6E7B AA                STOSB
0736:6E7C 45                INC     BP
0736:6E7D 85FF              TEST    DI,DI
0736:6E7F 2F                DAS
0736:6E80 34FF              XOR     AL,FF
0736:6E82 EF                OUT     DX,AX
0736:6E83 4C                DEC     SP
0736:6E84 A0FF3A            MOV     AL,[3AFF]
0736:6E87 83FFF0            CMP     DI,-10
0736:6E8A 80DFFF            SBB     BH,FF
0736:6E8D 3A37              CMP     DH,[BX]
0736:6E8F FFF0              PUSH    AX
0736:6E91 8177FFF081        XOR     WORD PTR [BX-01],81F0
0736:6E96 C3                RET
0736:6E97 FF29              JMP     FAR [BX+DI]
0736:6E99 E3FF              JCXZ    6E9A
0736:6E9B EE                OUT     DX,AL
0736:6E9C 3BACFFEF          CMP     BP,[SI+EFFF]
0736:6EA0 BC55FF            MOV     SP,FF55
0736:6EA3 EF                OUT     DX,AX
0736:6EA4 BCA1FF            MOV     SP,FFA1
0736:6EA7 EF                OUT     DX,AX
0736:6EA8 BEC1FF            MOV     SI,FFC1
0736:6EAB EF                OUT     DX,AX
0736:6EAC BD91FF            MOV     BP,FF91
0736:6EAF F5                CMC
0736:6EB0 F0                LOCK    (unused)
0736:6EB1 3310              XOR     DX,[BX+SI]
0736:6EB3 FF                DB      FF
0736:6EB4 F8                CLC
0736:6EB5 F9                STC
0736:6EB6 335CFF            XOR     BX,[SI-01]
0736:6EB9 43                INC     BX
0736:6EBA 3F                AAS
0736:6EBB FF                DB      FF
0736:6EBC F8                CLC
0736:6EBD F9                STC
0736:6EBE 43                INC     BX
0736:6EBF 3F                AAS
0736:6EC0 FF42F3            INC     WORD PTR [BP+SI-0D]
0736:6EC3 FF42F3            INC     WORD PTR [BP+SI-0D]
0736:6EC6 FF                DB      FF
0736:6EC7 F8                CLC
0736:6EC8 F9                STC
0736:6EC9 42                INC     DX
0736:6ECA F3                REPE    (unused)
0736:6ECB FF                DB      FF
0736:6ECC F8                CLC
0736:6ECD F9                STC
0736:6ECE 42                INC     DX
0736:6ECF F3                REPE    (unused)
0736:6ED0 FF42A7            INC     WORD PTR [BP+SI-59]
0736:6ED3 FF42A7            INC     WORD PTR [BP+SI-59]
0736:6ED6 FF                DB      FF
0736:6ED7 F8                CLC
0736:6ED8 F9                STC
0736:6ED9 42                INC     DX
0736:6EDA A7                CMPSW
0736:6EDB FF                DB      FF
0736:6EDC F8                CLC
0736:6EDD F9                STC
0736:6EDE 42                INC     DX
0736:6EDF A7                CMPSW
0736:6EE0 FF                DB      FF
0736:6EE1 EF                OUT     DX,AX
0736:6EE2 4C                DEC     SP
0736:6EE3 EC                IN      AL,DX
0736:6EE4 FF                DB      FF
0736:6EE5 EF                OUT     DX,AX
0736:6EE6 BF0DFF            MOV     DI,FF0D
0736:6EE9 2F                DAS
0736:6EEA AC                LODSB
0736:6EEB 304528            XOR     [DI+28],AL
0736:6EEE 64                SEG     FS (unused)
0736:6EEF 28FD              SUB     CH,BH
0736:6EF1 29BA2A53          SUB     [BP+SI+532A],DI
0736:6EF5 346E              XOR     AL,6E
0736:6EF7 36                SEG     SS (unused)
0736:6EF8 CF                IRET
0736:6EF9 C062F055          SHL     BYTE PTR [BP+SI-10],55
0736:6EFD C6                DB      C6
0736:6EFE F0                LOCK    (unused)
0736:6EFF 56                PUSH    SI
0736:6F00 5F                POP     DI
0736:6F01 F0                LOCK    (unused)
0736:6F02 56                PUSH    SI
0736:6F03 14F0              ADC     AL,F0
0736:6F05 56                PUSH    SI
0736:6F06 AD                LODSW
0736:6F07 F0                LOCK    (unused)
0736:6F08 56                PUSH    SI
0736:6F09 FA                CLI
0736:6F0A F0                LOCK    (unused)
0736:6F0B 57                PUSH    DI
0736:6F0C 93                XCHG    AX,BX
0736:6F0D FF30              PUSH    WORD PTR [BX+SI]
0736:6F0F B0FF              MOV     AL,FF
0736:6F11 F8                CLC
0736:6F12 F9                STC
0736:6F13 30FC              XOR     AH,BH
0736:6F15 FFF0              PUSH    AX
0736:6F17 8498F084          TEST    [BX+SI+84F0],BL
0736:6F1B E5FF              IN      AX,FF
0736:6F1D F0                LOCK    (unused)
0736:6F1E 82                DB      82
0736:6F1F 38F0              CMP     AL,DH
0736:6F21 82                DB      82
0736:6F22 85FF              TEST    DI,DI
0736:6F24 BA80FF            MOV     DX,FF80
0736:6F27 F4                HLT
0736:6F28 BA34FF            MOV     DX,FF34
0736:6F2B 2AC0              SUB     AL,AL
0736:6F2D FFF4              PUSH    SP
0736:6F2F B9E8FF            MOV     CX,FFE8
0736:6F32 F4                HLT
0736:6F33 AB                STOSW
0736:6F34 4F                DEC     DI
0736:6F35 0391F4AD          ADD     DX,[BX+DI+ADF4]
0736:6F39 AE                SCASB
0736:6F3A F4                HLT
0736:6F3B 026402            ADD     AH,[SI+02]
0736:6F3E FD                STD
0736:6F3F FF                DB      FF
0736:6F40 FB                STI
0736:6F41 44                INC     SP
0736:6F42 7A46              JPE     6F8A
0736:6F44 DB                DB      DB
0736:6F45 FF                DB      FF
0736:6F46 EE                OUT     DX,AL
0736:6F47 20A8FFF8          AND     [BX+SI+F8FF],CH
0736:6F4B F9                STC
0736:6F4C EE                OUT     DX,AL
0736:6F4D 20F4              AND     AH,DH
0736:6F4F FFC2              INC     DX
0736:6F51 F4                HLT
0736:6F52 1A31              SBB     DH,[BX+DI]
0736:6F54 097702            OR      [BX+02],SI
0736:6F57 54                PUSH    SP
0736:6F58 07                POP     ES
0736:6F59 16                PUSH    SS
0736:6F5A F0                LOCK    (unused)
0736:6F5B 7C10              JL      6F6D
0736:6F5D F0                LOCK    (unused)
0736:6F5E 7E71              JLE     6FD1
0736:6F60 FF                DB      FF
0736:6F61 F8                CLC
0736:6F62 F9                STC
0736:6F63 EE                OUT     DX,AL
0736:6F64 1CCC              SBB     AL,CC
0736:6F66 FF                DB      FF
0736:6F67 F8                CLC
0736:6F68 F9                STC
0736:6F69 2E                SEG     CS (unused)
0736:6F6A 9C                PUSHF
0736:6F6B FF17              CALL    WORD PTR [BX]
0736:6F6D D1                DB      D1
0736:6F6E B410              MOV     AH,10
0736:6F70 EE                OUT     DX,AL
0736:6F71 1F                POP     DS
0736:6F72 AE                SCASB
0736:6F73 EE                OUT     DX,AL
0736:6F74 1F                POP     DS
0736:6F75 150469            ADC     AX,6904
0736:6F78 06                PUSH    ES
0736:6F79 CA092B            RETF    2B09
0736:6F7C 0208              ADD     CL,[BX+SI]
0736:6F7E F0                LOCK    (unused)
0736:6F7F 7BC4              JPO     6F45
0736:6F81 F0                LOCK    (unused)
0736:6F82 7E25              JLE     6FA9
0736:6F84 FF                DB      FF
0736:6F85 F8                CLC
0736:6F86 F9                STC
0736:6F87 EE                OUT     DX,AL
0736:6F88 1C80              SBB     AL,80
0736:6F8A FF                DB      FF
0736:6F8B F8                CLC
0736:6F8C F9                STC
0736:6F8D 2E                SEG     CS (unused)
0736:6F8E 50                PUSH    AX
0736:6F8F FFC5              INC     BP
0736:6F91 EF                OUT     DX,AX
0736:6F92 C850EECA          ENTER   EE50,CA
0736:6F96 B1FF              MOV     CL,FF
0736:6F98 C6                DB      C6
0736:6F99 3BC8              CMP     CX,AX
0736:6F9B 9C                PUSHF
0736:6F9C EE                OUT     DX,AL
0736:6F9D CAFDFF            RETF    FFFD
0736:6FA0 C557C7            LDS     DX,[BX-39]
0736:6FA3 B8EECA            MOV     AX,CAEE
0736:6FA6 19FF              SBB     DI,DI
0736:6FA8 C5A3C804          LDS     SP,[BP+DI+04C8]
0736:6FAC EE                OUT     DX,AL
0736:6FAD CA65FF            RETF    FF65
0736:6FB0 F2                REPNE   (unused)
0736:6FB1 5A                POP     DX
0736:6FB2 D8FF              FDIVR   ST,ST(7)
0736:6FB4 F5                CMC
0736:6FB5 F3                REPE    (unused)
0736:6FB6 F5                CMC
0736:6FB7 F3                REPE    (unused)
0736:6FB8 F5                CMC
0736:6FB9 F2                REPNE   (unused)
0736:6FBA 39E4              CMP     SP,SP
0736:6FBC 39D2              CMP     DX,DX
0736:6FBE FF                DB      FF
0736:6FBF F8                CLC
0736:6FC0 F9                STC
0736:6FC1 3C44              CMP     AL,44
0736:6FC3 3C32              CMP     AL,32
0736:6FC5 FFF2              PUSH    DX
0736:6FC7 7E78              JLE     7041
0736:6FC9 FF2EE8FF          JMP     FAR [FFE8]
0736:6FCD C687C8E8EE        MOV     BYTE PTR [BX+E8C8],EE
0736:6FD2 CB                RETF
0736:6FD3 49                DEC     CX
0736:6FD4 FFC7              INC     DI
0736:6FD6 6BC9CC            IMUL    CX,CX,-34
0736:6FD9 EE                OUT     DX,AL
0736:6FDA CC                INT     3
0736:6FDB 2DFF0B            SUB     AX,0BFF
0736:6FDE 880D              MOV     [DI],CL
0736:6FE0 E9104A            JMP     B9F3
0736:6FE3 12AB1DF4          ADC     CH,[BP+DI+F41D]
0736:6FE7 1E                PUSH    DS
0736:6FE8 41                INC     CX
0736:6FE9 FFF6              PUSH    SI
0736:6FEB 26F62EF636        IMUL    BYTE PTR ES:[36F6]
0736:6FF0 F63EF664          IDIV    BYTE PTR [64F6]
0736:6FF4 F665C6            MUL     BYTE PTR [DI-3A]
0736:6FF7 87C8              XCHG    CX,AX
0736:6FF9 E8EECB            CALL    3BEA
0736:6FFC 49                DEC     CX
0736:6FFD FFC6              INC     SI
0736:6FFF D3C9              ROR     CX,CL
0736:7001 34EE              XOR     AL,EE
0736:7003 CB                RETF
0736:7004 95                XCHG    AX,BP
0736:7005 FFF4              PUSH    SP
0736:7007 AB                STOSW
0736:7008 E708              OUT     08,AX
0736:700A 51                PUSH    CX
0736:700B F4                HLT
0736:700C AE                SCASB
0736:700D 46                INC     SI
0736:700E F4                HLT
0736:700F 07                POP     ES
0736:7010 2407              AND     AL,07
0736:7012 BDFF33            MOV     BP,33FF
0736:7015 A8FF              TEST    AL,FF
0736:7017 F8                CLC
0736:7018 F9                STC
0736:7019 33F4              XOR     SI,SP
0736:701B FFF0              PUSH    AX
0736:701D 790F              JNS     702E
0736:701F FFF0              PUSH    AX
0736:7021 77DF              JA      7002
0736:7023 FFF0              PUSH    AX
0736:7025 7793              JA      6FBA
0736:7027 FFF0              PUSH    AX
0736:7029 78C3              JS      6FEE
0736:702B FFF0              PUSH    AX
0736:702D 7793              JA      6FC2
0736:702F FFF0              PUSH    AX
0736:7031 782B              JS      705E
0736:7033 FFF0              PUSH    AX
0736:7035 7B6F              JPO     70A6
0736:7037 FFF0              PUSH    AX
0736:7039 7AD7              JPE     7012
0736:703B FFF0              PUSH    AX
0736:703D 7A8B              JPE     6FCA
0736:703F FFF0              PUSH    AX
0736:7041 7B23              JPO     7066
0736:7043 FFF0              PUSH    AX
0736:7045 78C3              JS      700A
0736:7047 FFF0              PUSH    AX
0736:7049 7793              JA      6FDE
0736:704B FFF0              PUSH    AX
0736:704D 77DF              JA      702E
0736:704F FFF0              PUSH    AX
0736:7051 790F              JNS     7062
0736:7053 FFF0              PUSH    AX
0736:7055 77DF              JA      7036
0736:7057 FFF0              PUSH    AX
0736:7059 7877              JS      70D2
0736:705B FFF0              PUSH    AX
0736:705D 7B23              JPO     7082
0736:705F FFF0              PUSH    AX
0736:7061 7A8B              JPE     6FEE
0736:7063 FFF0              PUSH    AX
0736:7065 7AD7              JPE     703E
0736:7067 FFF0              PUSH    AX
0736:7069 7B6F              JPO     70DA
0736:706B FFF0              PUSH    AX
0736:706D 7747              JA      70B6
0736:706F FFF0              PUSH    AX
0736:7071 7A3F              JPE     70B2
0736:7073 FFF0              PUSH    AX
0736:7075 79A7              JNS     701E
0736:7077 FFF0              PUSH    AX
0736:7079 7877              JS      70F2
0736:707B FFF0              PUSH    AX
0736:707D 76FB              JBE     707A
0736:707F FFF0              PUSH    AX
0736:7081 79F3              JNS     7076
0736:7083 FFF0              PUSH    AX
0736:7085 79F3              JNS     707A
0736:7087 FFF0              PUSH    AX
0736:7089 7A3F              JPE     70CA
0736:708B FFF0              PUSH    AX
0736:708D 795B              JNS     70EA
0736:708F FFF0              PUSH    AX
0736:7091 782B              JS      70BE
0736:7093 FF                DB      FF
0736:7094 EF                OUT     DX,AX
0736:7095 BBBDFF            MOV     BX,FFBD
0736:7098 EF                OUT     DX,AX
0736:7099 BC09FF            MOV     SP,FF09
0736:709C F0                LOCK    (unused)
0736:709D 7CEC              JL      708B
0736:709F F0                LOCK    (unused)
0736:70A0 7D39              JGE     70DB
0736:70A2 FFF0              PUSH    AX
0736:70A4 7F4C              JG      70F2
0736:70A6 F0                LOCK    (unused)
0736:70A7 7F99              JG      7042
0736:70A9 FF                DB      FF
0736:70AA EF                OUT     DX,AX
0736:70AB BE28FF            MOV     SI,FF28
0736:70AE EF                OUT     DX,AX
0736:70AF BCF8FF            MOV     SP,FFF8
0736:70B2 49                DEC     CX
0736:70B3 EC                IN      AL,DX
0736:70B4 FF4B1C            DEC     WORD PTR [BP+DI+1C]
0736:70B7 FF4A84            DEC     WORD PTR [BP+SI-7C]
0736:70BA FF32              PUSH    WORD PTR [BP+SI]
0736:70BC 78FF              JS      70BD
0736:70BE F8                CLC
0736:70BF F9                STC
0736:70C0 32C4              XOR     AL,AH
0736:70C2 FF                DB      FF
0736:70C3 EF                OUT     DX,AX
0736:70C4 BE75FF            MOV     SI,FF75
0736:70C7 F4                HLT
0736:70C8 AC                LODSB
0736:70C9 7F0D              JG      70D8
0736:70CB 11F4              ADC     SP,SI
0736:70CD AE                SCASB
0736:70CE DEF4              FDIVRP  ST(4),ST
0736:70D0 0BE4              OR      SP,SP
0736:70D2 0C7D              OR      AL,7D
0736:70D4 FF31              PUSH    WORD PTR [BX+DI]
0736:70D6 E1B9              LOOPZW  7091
0736:70D8 42                INC     DX
0736:70D9 27                DAA
0736:70DA 3427              XOR     AL,27
0736:70DC 35FFEF            XOR     AX,EFFF
0736:70DF BF59FF            MOV     DI,FF59
0736:70E2 EF                OUT     DX,AX
0736:70E3 BFA5FF            MOV     DI,FFA5
0736:70E6 2E                SEG     CS (unused)
0736:70E7 04FF              ADD     AL,FF
0736:70E9 F1                DB      F1
0736:70EA 4E                DEC     SI
0736:70EB AC                LODSB
0736:70EC FFF2              PUSH    DX
0736:70EE 5A                POP     DX
0736:70EF 40                INC     AX
0736:70F0 FFF4              PUSH    SP
0736:70F2 F1                DB      F1
0736:70F3 8504              TEST    [SI],AX
0736:70F5 FF2A              JMP     FAR [BP+SI]
0736:70F7 FE                DB      FE
0736:70F8 2AFF              SUB     BH,BH
0736:70FA F4                HLT
0736:70FB 27                DAA
0736:70FC CC                INT     3
0736:70FD F4                HLT
0736:70FE 27                DAA
0736:70FF CDFF              INT     FF
0736:7101 3F                AAS
0736:7102 D4FF              AAM     FF
0736:7104 3F                AAS
0736:7105 D4FF              AAM     FF
0736:7107 F4                HLT
0736:7108 AC                LODSB
0736:7109 CB                RETF
0736:710A 0F                DB      0F
0736:710B 71F4              JNO     7101
0736:710D AF                SCASW
0736:710E 2AF4              SUB     DH,AH
0736:7110 0E                PUSH    CS
0736:7111 44                INC     SP
0736:7112 0E                PUSH    CS
0736:7113 DD                DB      DD
0736:7114 FF00              INC     WORD PTR [BX+SI]
0736:7116 0000              ADD     [BX+SI],AL
0736:7118 0000              ADD     [BX+SI],AL
0736:711A 0000              ADD     [BX+SI],AL
0736:711C 40                INC     AX
0736:711D 0000              ADD     [BX+SI],AL
0736:711F 0000              ADD     [BX+SI],AL
0736:7121 0000              ADD     [BX+SI],AL
0736:7123 0000              ADD     [BX+SI],AL
0736:7125 0000              ADD     [BX+SI],AL
0736:7127 0000              ADD     [BX+SI],AL
0736:7129 0000              ADD     [BX+SI],AL
0736:712B 0000              ADD     [BX+SI],AL
0736:712D 0000              ADD     [BX+SI],AL
0736:712F 0000              ADD     [BX+SI],AL
0736:7131 0000              ADD     [BX+SI],AL
0736:7133 0000              ADD     [BX+SI],AL
0736:7135 0000              ADD     [BX+SI],AL
0736:7137 0000              ADD     [BX+SI],AL
0736:7139 0000              ADD     [BX+SI],AL
0736:713B 0000              ADD     [BX+SI],AL
0736:713D 0000              ADD     [BX+SI],AL
0736:713F 0000              ADD     [BX+SI],AL
0736:7141 0000              ADD     [BX+SI],AL
0736:7143 0000              ADD     [BX+SI],AL
0736:7145 0000              ADD     [BX+SI],AL
0736:7147 0100              ADD     [BX+SI],AX
0736:7149 0A00              OR      AL,[BX+SI]
0736:714B 0020              ADD     [BX+SI],AH
0736:714D 0000              ADD     [BX+SI],AL
0736:714F 006855            ADD     [BX+SI+55],CH
0736:7152 685500            PUSH    WORD 0055
0736:7155 0000              ADD     [BX+SI],AL
0736:7157 0000              ADD     [BX+SI],AL
0736:7159 0000              ADD     [BX+SI],AL
0736:715B 0000              ADD     [BX+SI],AL
0736:715D 0000              ADD     [BX+SI],AL
0736:715F 0000              ADD     [BX+SI],AL
0736:7161 0000              ADD     [BX+SI],AL
0736:7163 0000              ADD     [BX+SI],AL
0736:7165 0000              ADD     [BX+SI],AL
0736:7167 0000              ADD     [BX+SI],AL
0736:7169 0000              ADD     [BX+SI],AL
0736:716B 0000              ADD     [BX+SI],AL
0736:716D 005D01            ADD     [DI+01],BL
0736:7170 0000              ADD     [BX+SI],AL
0736:7172 0000              ADD     [BX+SI],AL
0736:7174 0000              ADD     [BX+SI],AL
0736:7176 0000              ADD     [BX+SI],AL
0736:7178 0000              ADD     [BX+SI],AL
0736:717A 0000              ADD     [BX+SI],AL
0736:717C 0000              ADD     [BX+SI],AL
0736:717E 0000              ADD     [BX+SI],AL
0736:7180 0000              ADD     [BX+SI],AL
0736:7182 0000              ADD     [BX+SI],AL
0736:7184 0000              ADD     [BX+SI],AL
0736:7186 0000              ADD     [BX+SI],AL
0736:7188 0000              ADD     [BX+SI],AL
0736:718A 0000              ADD     [BX+SI],AL
0736:718C 0000              ADD     [BX+SI],AL
0736:718E 0000              ADD     [BX+SI],AL
0736:7190 0000              ADD     [BX+SI],AL
0736:7192 0000              ADD     [BX+SI],AL
0736:7194 5C                POP     SP
0736:7195 0000              ADD     [BX+SI],AL
0736:7197 006C00            ADD     [SI+00],CH
0736:719A 0000              ADD     [BX+SI],AL
0736:719C 0000              ADD     [BX+SI],AL
0736:719E 0000              ADD     [BX+SI],AL
0736:71A0 0000              ADD     [BX+SI],AL
0736:71A2 0000              ADD     [BX+SI],AL
0736:71A4 0000              ADD     [BX+SI],AL
0736:71A6 0000              ADD     [BX+SI],AL
0736:71A8 0000              ADD     [BX+SI],AL
0736:71AA 0000              ADD     [BX+SI],AL
0736:71AC 0000              ADD     [BX+SI],AL
0736:71AE 0000              ADD     [BX+SI],AL
0736:71B0 0000              ADD     [BX+SI],AL
0736:71B2 0000              ADD     [BX+SI],AL
0736:71B4 0000              ADD     [BX+SI],AL
0736:71B6 0000              ADD     [BX+SI],AL
0736:71B8 0000              ADD     [BX+SI],AL
0736:71BA 0000              ADD     [BX+SI],AL
0736:71BC 0000              ADD     [BX+SI],AL
0736:71BE 0000              ADD     [BX+SI],AL
0736:71C0 0000              ADD     [BX+SI],AL
0736:71C2 0000              ADD     [BX+SI],AL
0736:71C4 0000              ADD     [BX+SI],AL
0736:71C6 0000              ADD     [BX+SI],AL
0736:71C8 0000              ADD     [BX+SI],AL
0736:71CA 0000              ADD     [BX+SI],AL
0736:71CC 0000              ADD     [BX+SI],AL
0736:71CE 0000              ADD     [BX+SI],AL
0736:71D0 0000              ADD     [BX+SI],AL
0736:71D2 0000              ADD     [BX+SI],AL
0736:71D4 0000              ADD     [BX+SI],AL
0736:71D6 0000              ADD     [BX+SI],AL
0736:71D8 0000              ADD     [BX+SI],AL
0736:71DA 0000              ADD     [BX+SI],AL
0736:71DC 0000              ADD     [BX+SI],AL
0736:71DE 0000              ADD     [BX+SI],AL
0736:71E0 0000              ADD     [BX+SI],AL
0736:71E2 0000              ADD     [BX+SI],AL
0736:71E4 0000              ADD     [BX+SI],AL
0736:71E6 0000              ADD     [BX+SI],AL
0736:71E8 0000              ADD     [BX+SI],AL
0736:71EA 0000              ADD     [BX+SI],AL
0736:71EC 0000              ADD     [BX+SI],AL
0736:71EE 0000              ADD     [BX+SI],AL
0736:71F0 0000              ADD     [BX+SI],AL
0736:71F2 0000              ADD     [BX+SI],AL
0736:71F4 0000              ADD     [BX+SI],AL
0736:71F6 0000              ADD     [BX+SI],AL
0736:71F8 0000              ADD     [BX+SI],AL
0736:71FA 0000              ADD     [BX+SI],AL
0736:71FC 0000              ADD     [BX+SI],AL
0736:71FE 0000              ADD     [BX+SI],AL
0736:7200 0000              ADD     [BX+SI],AL
0736:7202 0000              ADD     [BX+SI],AL
0736:7204 0000              ADD     [BX+SI],AL
0736:7206 0000              ADD     [BX+SI],AL
0736:7208 FF00              INC     WORD PTR [BX+SI]
0736:720A 0D008B            OR      AX,8B00
0736:720D E0B4              LOOPNZW 71C3
0736:720F 4A                DEC     DX
0736:7210 CD21              INT     21
0736:7212 C606675630        MOV     BYTE PTR [5667],30
0736:7217 803ED05400        CMP     BYTE PTR [54D0],00
0736:721C 7403              JZ      7221
0736:721E E884BB            CALL    2DA5
0736:7221 E988AB            JMP     1DAC
0736:7224 44                INC     SP
0736:7225 45                INC     BP
0736:7226 42                INC     DX
0736:7227 55                PUSH    BP
0736:7228 47                INC     DI
0736:7229 207665            AND     [BP+65],DH
0736:722C 7273              JB      72A1
0736:722E 696F6E2031        IMUL    BP,[BX+6E],3120
0736:7233 2E3235            XOR     DH,CS:[DI]
0736:7236 2E2020            AND     CS:[BX+SI],AH
0736:7239 44                INC     SP
0736:723A 65627567          BOUND   SI,GS:[DI+67]
0736:723E 67                DB      67
0736:723F 65                SEG     GS (unused)
0736:7240 722E              JB      7270
0736:7242 0D0A0D            OR      AX,0D0A
0736:7245 0A5573            OR      DL,[DI+73]
0736:7248 61                POPA
0736:7249 67653A20          CMP     AH,GS:[EAX]
0736:724D 44                INC     SP
0736:724E 45                INC     BP
0736:724F 42                INC     DX
0736:7250 55                PUSH    BP
0736:7251 47                INC     DI
0736:7252 205B5B            AND     [BP+DI+5B],BL
0736:7255 64                SEG     FS (unused)
0736:7256 7269              JB      72C1
0736:7258 7665              JBE     72BF
0736:725A 3A5D5B            CMP     BL,[DI+5B]
0736:725D 7061              JO      72C0
0736:725F 7468              JZ      72C9
0736:7261 5D                POP     BP
0736:7262 7072              JO      72D6
0736:7264 6F                OUTSW
0736:7265 67                DB      67
0736:7266 6E                OUTSB
0736:7267 61                POPA
0736:7268 6D                INSW
0736:7269 65205B61          AND     GS:[BP+DI+61],BL
0736:726D 7267              JB      72D6
0736:726F 6C                INSB
0736:7270 6973745D5D        IMUL    SI,[BP+DI+74],5D5D
0736:7275 0D0A0D            OR      AX,0D0A
0736:7278 0A20              OR      AH,[BX+SI]
0736:727A 207072            AND     [BX+SI+72],DH
0736:727D 6F                OUTSW
0736:727E 67                DB      67
0736:727F 6E                OUTSB
0736:7280 61                POPA
0736:7281 6D                INSW
0736:7282 652028            AND     GS:[BX+SI],CH
0736:7285 65                SEG     GS (unused)
0736:7286 7865              JS      72ED
0736:7288 637574            ARPL    [DI+74],SI
0736:728B 61                POPA
0736:728C 626C65            BOUND   BP,[SI+65]
0736:728F 2920              SUB     [BX+SI],SP
0736:7291 66696C6520746F20  IMUL    EBP,[SI+65],206F7420
0736:7299 64                SEG     FS (unused)
0736:729A 65627567          BOUND   SI,GS:[DI+67]
0736:729E 206F72            AND     [BX+72],CH
0736:72A1 206578            AND     [DI+78],AH
0736:72A4 61                POPA
0736:72A5 6D                INSW
0736:72A6 696E650D0A        IMUL    BP,[BP+65],0A0D
0736:72AB 2020              AND     [BX+SI],AH
0736:72AD 61                POPA
0736:72AE 7267              JB      7317
0736:72B0 6C                INSB
0736:72B1 6973742070        IMUL    SI,[BP+DI+74],7020
0736:72B6 61                POPA
0736:72B7 7261              JB      731A
0736:72B9 6D                INSW
0736:72BA 65                SEG     GS (unused)
0736:72BB 7465              JZ      7322
0736:72BD 7273              JB      7332
0736:72BF 206769            AND     [BX+69],AH
0736:72C2 7665              JBE     7329
0736:72C4 6E                OUTSB
0736:72C5 20746F            AND     [SI+6F],DH
0736:72C8 207072            AND     [BX+SI+72],DH
0736:72CB 6F                OUTSW
0736:72CC 67                DB      67
0736:72CD 7261              JB      7330
0736:72CF 6D                INSW
0736:72D0 0D0A0D            OR      AX,0D0A
0736:72D3 0A466F            OR      AL,[BP+6F]
0736:72D6 7220              JB      72F8
0736:72D8 61                POPA
0736:72D9 206C69            AND     [SI+69],CH
0736:72DC 7374              JAE     7352
0736:72DE 206F66            AND     [BX+66],CH
0736:72E1 206465            AND     [SI+65],AH
0736:72E4 627567            BOUND   SI,[DI+67]
0736:72E7 67696E672063      IMUL    BP,67[ESI],6320
0736:72ED 6F                OUTSW
0736:72EE 6D                INSW
0736:72EF 6D                INSW
0736:72F0 61                POPA
0736:72F1 6E                OUTSB
0736:72F2 64                SEG     FS (unused)
0736:72F3 732C              JAE     7321
0736:72F5 207275            AND     [BP+SI+75],DH
0736:72F8 6E                OUTSB
0736:72F9 204445            AND     [SI+45],AL
0736:72FC 42                INC     DX
0736:72FD 55                PUSH    BP
0736:72FE 47                INC     DI
0736:72FF 20616E            AND     [BX+DI+6E],AH
0736:7302 64207479          AND     FS:[SI+79],DH
0736:7306 7065              JO      736D
0736:7308 203F              AND     [BX],BH
0736:730A 206174            AND     [BX+DI+74],AH
0736:730D 207468            AND     [SI+68],DH
0736:7310 65207072          AND     GS:[BX+SI+72],DH
0736:7314 6F                OUTSW
0736:7315 6D                INSW
0736:7316 7074              JO      738C
0736:7318 2E                SEG     CS (unused)
0736:7319 0D0A24            OR      AX,240A
0736:731C 49                DEC     CX
0736:731D 6E                OUTSB
0736:731E 7661              JBE     7381
0736:7320 6C                INSB
0736:7321 6964207377        IMUL    SP,[SI+20],7773
0736:7326 6974636820        IMUL    SI,[SI+63],2068
0736:732B 2D2078            SUB     AX,7820
0736:732E 0D0A24            OR      AX,240A
0736:7331 FC                CLD
0736:7332 8CC8              MOV     AX,CS
0736:7334 A3F054            MOV     [54F0],AX
0736:7337 A3F454            MOV     [54F4],AX
0736:733A A3F854            MOV     [54F8],AX
0736:733D A37E54            MOV     [547E],AX
0736:7340 B80044            MOV     AX,4400
0736:7343 33DB              XOR     BX,BX
0736:7345 CD21              INT     21
0736:7347 720D              JB      7356
0736:7349 80E281            AND     DL,81
0736:734C 80FA81            CMP     DL,81
0736:734F 7505              JNZ     7356
0736:7351 C606A75400        MOV     BYTE PTR [54A7],00
0736:7356 B80044            MOV     AX,4400
0736:7359 BB0100            MOV     BX,0001
0736:735C CD21              INT     21
0736:735E 7204              JB      7364
0736:7360 8816A854          MOV     [54A8],DL
0736:7364 B80030            MOV     AX,3000
0736:7367 CD21              INT     21
0736:7369 86C4              XCHG    AL,AH
0736:736B 3D1F03            CMP     AX,031F
0736:736E 720D              JB      737D
0736:7370 FE06D154          INC     BYTE PTR [54D1]
0736:7374 3D0A07            CMP     AX,070A
0736:7377 7204              JB      737D
0736:7379 FE06D154          INC     BYTE PTR [54D1]
0736:737D 54                PUSH    SP
0736:737E 58                POP     AX
0736:737F 3BC4              CMP     AX,SP
0736:7381 757D              JNZ     7400
0736:7383 C606A15402        MOV     BYTE PTR [54A1],02
0736:7388 9C                PUSHF
0736:7389 58                POP     AX
0736:738A 0D00F0            OR      AX,F000
0736:738D 50                PUSH    AX
0736:738E 9D                POPF
0736:738F 9C                PUSHF
0736:7390 58                POP     AX
0736:7391 F6C4F0            TEST    AH,F0
0736:7394 746A              JZ      7400
0736:7396 FE06A154          INC     BYTE PTR [54A1]
0736:739A 8BDC              MOV     BX,SP
0736:739C 83E4FC            AND     SP,-04
0736:739F 669C              PUSHFD
0736:73A1 6658              POP     EAX
0736:73A3 668BC8            MOV     ECX,EAX
0736:73A6 663500000400      XOR     EAX,00040000
0736:73AC 6650              PUSH    EAX
0736:73AE 669D              POPFD
0736:73B0 669C              PUSHFD
0736:73B2 6658              POP     EAX
0736:73B4 663BC1            CMP     EAX,ECX
0736:73B7 7441              JZ      73FA
0736:73B9 FE06A154          INC     BYTE PTR [54A1]
0736:73BD 668BC1            MOV     EAX,ECX
0736:73C0 663500002000      XOR     EAX,00200000
0736:73C6 6650              PUSH    EAX
0736:73C8 669D              POPFD
0736:73CA 669C              PUSHFD
0736:73CC 6658              POP     EAX
0736:73CE 663BC1            CMP     EAX,ECX
0736:73D1 7427              JZ      73FA
0736:73D3 6651              PUSH    ECX
0736:73D5 669D              POPFD
0736:73D7 8BE3              MOV     SP,BX
0736:73D9 6633C0            XOR     EAX,EAX
0736:73DC 0FA2              CPUID                                   [needs 586]
0736:73DE 6683F801          CMP     EAX,+01
0736:73E2 7C1C              JL      7400
0736:73E4 6633C0            XOR     EAX,EAX
0736:73E7 6640              INC     EAX
0736:73E9 0FA2              CPUID                                   [needs 586]
0736:73EB 8AC4              MOV     AL,AH
0736:73ED 240F              AND     AL,0F
0736:73EF 3C06              CMP     AL,06
0736:73F1 7602              JBE     73F5
0736:73F3 B006              MOV     AL,06
0736:73F5 A2A154            MOV     [54A1],AL
0736:73F8 EB06              JMP     7400
0736:73FA 6651              PUSH    ECX
0736:73FC 669D              POPFD
0736:73FE 8BE3              MOV     SP,BX
0736:7400 A0A154            MOV     AL,[54A1]
0736:7403 A2A654            MOV     [54A6],AL
0736:7406 FE06A454          INC     BYTE PTR [54A4]
0736:740A 3C05              CMP     AL,05
0736:740C 734B              JAE     7459
0736:740E FE0EA454          DEC     BYTE PTR [54A4]
0736:7412 DBE3              FNINIT
0736:7414 B85A5A            MOV     AX,5A5A
0736:7417 50                PUSH    AX
0736:7418 8BEC              MOV     BP,SP
0736:741A DD7E00            FNSTSW  WORD PTR [BP+00]
0736:741D 58                POP     AX
0736:741E 3C00              CMP     AL,00
0736:7420 7537              JNZ     7459
0736:7422 50                PUSH    AX
0736:7423 D97E00            FNSTCW  WORD PTR [BP+00]
0736:7426 58                POP     AX
0736:7427 253F10            AND     AX,103F
0736:742A 83F83F            CMP     AX,+3F
0736:742D 752A              JNZ     7459
0736:742F FE06A454          INC     BYTE PTR [54A4]
0736:7433 803EA15403        CMP     BYTE PTR [54A1],03
0736:7438 751F              JNZ     7459
0736:743A 9B                WAIT    (unused)
0736:743B D9E8              FLD1
0736:743D 9B                WAIT    (unused)
0736:743E D9EE              FLDZ
0736:7440 9B                WAIT    (unused)
0736:7441 DEF9              FDIVP
0736:7443 9B                WAIT    (unused)
0736:7444 D9C0              FLD     ST(0)
0736:7446 9B                WAIT    (unused)
0736:7447 D9E0              FCHS
0736:7449 9B                WAIT    (unused)
0736:744A DED9              FCOMPP
0736:744C 50                PUSH    AX
0736:744D 9BDD7E00          FSTSW   WORD PTR [BP+00]
0736:7451 58                POP     AX
0736:7452 9E                SAHF
0736:7453 7504              JNZ     7459
0736:7455 FE0EA654          DEC     BYTE PTR [54A6]
0736:7459 803EA15403        CMP     BYTE PTR [54A1],03
0736:745E 7317              JAE     7477
0736:7460 BEAA58            MOV     SI,58AA
0736:7463 B91100            MOV     CX,0011
0736:7466 AD                LODSW
0736:7467 93                XCHG    AX,BX
0736:7468 C60790            MOV     BYTE PTR [BX],90
0736:746B E2F9              LOOPW   7466
0736:746D C606781D3E        MOV     BYTE PTR [1D78],3E
0736:7472 C6069D1DCF        MOV     BYTE PTR [1D9D],CF
0736:7477 B80037            MOV     AX,3700
0736:747A CD21              INT     21
0736:747C 8816A954          MOV     [54A9],DL
0736:7480 80FA2F            CMP     DL,2F
0736:7483 7504              JNZ     7489
0736:7485 8816AA54          MOV     [54AA],DL
0736:7489 BE8100            MOV     SI,0081
0736:748C AC                LODSB
0736:748D 3C20              CMP     AL,20
0736:748F 74FB              JZ      748C
0736:7491 3C09              CMP     AL,09
0736:7493 74F7              JZ      748C
0736:7495 3AC2              CMP     AL,DL
0736:7497 7421              JZ      74BA
0736:7499 3C2F              CMP     AL,2F
0736:749B 7530              JNZ     74CD
0736:749D 8A04              MOV     AL,[SI]
0736:749F 3C3F              CMP     AL,3F
0736:74A1 752A              JNZ     74CD
0736:74A3 8A4401            MOV     AL,[SI+01]
0736:74A6 3C20              CMP     AL,20
0736:74A8 7408              JZ      74B2
0736:74AA 3C09              CMP     AL,09
0736:74AC 7404              JZ      74B2
0736:74AE 3C0D              CMP     AL,0D
0736:74B0 751B              JNZ     74CD
0736:74B2 BA8255            MOV     DX,5582
0736:74B5 E89CC2            CALL    3754
0736:74B8 CD20              INT     20
0736:74BA AC                LODSB
0736:74BB 3C3F              CMP     AL,3F
0736:74BD 74F3              JZ      74B2
0736:74BF A28B56            MOV     [568B],AL
0736:74C2 BA7A56            MOV     DX,567A
0736:74C5 E88CC2            CALL    3754
0736:74C8 B8014C            MOV     AX,4C01
0736:74CB CD21              INT     21
0736:74CD 4E                DEC     SI
0736:74CE AC                LODSB
0736:74CF E81DBB            CALL    2FEF
0736:74D2 B90400            MOV     CX,0004
0736:74D5 BE1C2E            MOV     SI,2E1C
0736:74D8 BFDC54            MOV     DI,54DC
0736:74DB AC                LODSB
0736:74DC B435              MOV     AH,35
0736:74DE CD21              INT     21
0736:74E0 891D              MOV     [DI],BX
0736:74E2 8C4502            MOV     WORD PTR [DI+02],ES
0736:74E5 83C704            ADD     DI,+04
0736:74E8 92                XCHG    AX,DX
0736:74E9 AD                LODSW
0736:74EA 92                XCHG    AX,DX
0736:74EB B425              MOV     AH,25
0736:74ED CD21              INT     21
0736:74EF E2EA              LOOPW   74DB
0736:74F1 B452              MOV     AH,52
0736:74F3 CD21              INT     21
0736:74F5 268B47FE          MOV     AX,ES:[BX-02]
0736:74F9 A39654            MOV     [5496],AX
0736:74FC B434              MOV     AH,34
0736:74FE CD21              INT     21
0736:7500 891E9854          MOV     [5498],BX
0736:7504 8C069A54          MOV     WORD PTR [549A],ES
0736:7508 1E                PUSH    DS
0736:7509 B8065D            MOV     AX,5D06
0736:750C CD21              INT     21
0736:750E 8CD8              MOV     AX,DS
0736:7510 1F                POP     DS
0736:7511 7207              JB      751A
0736:7513 89369C54          MOV     [549C],SI
0736:7517 A39E54            MOV     [549E],AX
0736:751A 1E                PUSH    DS
0736:751B 07                POP     ES
0736:751C BE0A00            MOV     SI,000A
0736:751F BF9054            MOV     DI,5490
0736:7522 A5                MOVSW
0736:7523 A5                MOVSW
0736:7524 C744FC0301        MOV     WORD PTR [SI-04],0103
0736:7529 8C4CFE            MOV     WORD PTR [SI-02],CS
0736:752C BE1600            MOV     SI,0016
0736:752F A5                MOVSW
0736:7530 8C4CFE            MOV     WORD PTR [SI-02],CS
0736:7533 8C0E7C54          MOV     WORD PTR [547C],CS
0736:7537 B87F59            MOV     AX,597F
0736:753A 24F0              AND     AL,F0
0736:753C 8BD8              MOV     BX,AX
0736:753E 48                DEC     AX
0736:753F 48                DEC     AX
0736:7540 A37454            MOV     [5474],AX
0736:7543 40                INC     AX
0736:7544 40                INC     AX
0736:7545 B104              MOV     CL,04
0736:7547 D3EB              SHR     BX,CL
0736:7549 E9C0FC            JMP     720C
0736:754C 97                XCHG    AX,DI
0736:754D 1199119E          ADC     [BX+DI+9E11],BX
0736:7551 11821D87          ADC     [BP+SI+871D],AX
0736:7555 1D8C1D            SBB     AX,1D8C
0736:7558 E41D              IN      AL,1D
0736:755A 9A2B9E2BDB        CALL    DB2B:9E2B
0736:755F 2BE7              SUB     SP,DI
0736:7561 2BF9              SUB     DI,CX
0736:7563 2B0F              SUB     CX,[BX]
0736:7565 2C11              SUB     AL,11
0736:7567 2C14              SUB     AL,14
0736:7569 2C1A              SUB     AL,1A
0736:756B 2CC4              SUB     AL,C4
0736:756D 2C2E              SUB     AL,2E
0736:756F D800              FADD    FLOAT PTR [BX+SI]
0736:7571 D801              FADD    FLOAT PTR [BX+DI]
0736:7573 D802              FADD    FLOAT PTR [BP+SI]
0736:7575 3ED803            FADD    FLOAT PTR DS:[BP+DI]
0736:7578 36D804            FADD    FLOAT PTR SS:[SI]
0736:757B 3ED805            FADD    FLOAT PTR DS:[DI]
0736:757E 3ED80646A9        FADD    FLOAT PTR DS:[A946]
0736:7583 D807              FADD    FLOAT PTR [BX]
0736:7585 D808              FMUL    FLOAT PTR [BX+SI]
0736:7587 64D809            FMUL    FLOAT PTR FS:[BX+DI]
0736:758A D80A              FMUL    FLOAT PTR [BP+SI]
0736:758C 64D80B            FMUL    FLOAT PTR FS:[BP+DI]
0736:758F D80C              FMUL    FLOAT PTR [SI]
0736:7591 36D80D            FMUL    FLOAT PTR SS:[DI]
0736:7594 36D80E138A        FMUL    FLOAT PTR SS:[8A13]
0736:7599 3ED80F            FMUL    FLOAT PTR DS:[BX]
0736:759C D810              FCOM    FLOAT PTR [BX+SI]
0736:759E D811              FCOM    FLOAT PTR [BX+DI]
0736:75A0 3ED812            FCOM    FLOAT PTR DS:[BP+SI]
0736:75A3 26D813            FCOM    FLOAT PTR ES:[BP+DI]
0736:75A6 D814              FCOM    FLOAT PTR [SI]
0736:75A8 3ED815            FCOM    FLOAT PTR DS:[DI]
0736:75AB 26D816436B        FCOM    FLOAT PTR ES:[6B43]
0736:75B0 D817              FCOM    FLOAT PTR [BX]
0736:75B2 36D818            FCOMP   FLOAT PTR SS:[BX+SI]
0736:75B5 64D819            FCOMP   FLOAT PTR FS:[BX+DI]
0736:75B8 2ED81A            FCOMP   FLOAT PTR CS:[BP+SI]
0736:75BB D81B              FCOMP   FLOAT PTR [BP+DI]
0736:75BD 26D81C            FCOMP   FLOAT PTR ES:[SI]
0736:75C0 D81D              FCOMP   FLOAT PTR [DI]
0736:75C2 3ED81E4067        FCOMP   FLOAT PTR DS:[6740]
0736:75C7 26D81F            FCOMP   FLOAT PTR ES:[BX]
0736:75CA 36D820            FSUB    FLOAT PTR SS:[BX+SI]
0736:75CD 26D821            FSUB    FLOAT PTR ES:[BX+DI]
0736:75D0 D822              FSUB    FLOAT PTR [BP+SI]
0736:75D2 D823              FSUB    FLOAT PTR [BP+DI]
0736:75D4 D824              FSUB    FLOAT PTR [SI]
0736:75D6 26D825            FSUB    FLOAT PTR ES:[DI]
0736:75D9 D8266BBD          FSUB    FLOAT PTR [BD6B]
0736:75DD 64D827            FSUB    FLOAT PTR FS:[BX]
0736:75E0 2ED828            FSUBR   FLOAT PTR CS:[BX+SI]
0736:75E3 64D829            FSUBR   FLOAT PTR FS:[BX+DI]
0736:75E6 36D82A            FSUBR   FLOAT PTR SS:[BP+SI]
0736:75E9 26                SEG     ES (unused)
0736:75EA 26D82B            FSUBR   FLOAT PTR ES:[BP+DI]
0736:75ED D82C              FSUBR   FLOAT PTR [SI]
0736:75EF 3ED82D            FSUBR   FLOAT PTR DS:[DI]
0736:75F2 26                SEG     ES (unused)
0736:75F3 26D82E25A9        FSUBR   FLOAT PTR ES:[A925]
0736:75F8 2ED82F            FSUBR   FLOAT PTR CS:[BX]
0736:75FB 3ED830            FDIV    FLOAT PTR DS:[BX+SI]
0736:75FE 26                SEG     ES (unused)
0736:75FF 26D831            FDIV    FLOAT PTR ES:[BX+DI]
0736:7602 36D832            FDIV    FLOAT PTR SS:[BP+SI]
0736:7605 2ED833            FDIV    FLOAT PTR CS:[BP+DI]
0736:7608 36D834            FDIV    FLOAT PTR SS:[SI]
0736:760B D835              FDIV    FLOAT PTR [DI]
0736:760D 26                SEG     ES (unused)
0736:760E 26D83616C1        FDIV    FLOAT PTR ES:[C116]
0736:7613 D837              FDIV    FLOAT PTR [BX]
0736:7615 D838              FDIVR   FLOAT PTR [BX+SI]
0736:7617 D839              FDIVR   FLOAT PTR [BX+DI]
0736:7619 D83A              FDIVR   FLOAT PTR [BP+SI]
0736:761B D83B              FDIVR   FLOAT PTR [BP+DI]
0736:761D 26                SEG     ES (unused)
0736:761E 26D83C            FDIVR   FLOAT PTR ES:[SI]
0736:7621 D83D              FDIVR   FLOAT PTR [DI]
0736:7623 D83E60E7          FDIVR   FLOAT PTR [E760]
0736:7627 2ED83F            FDIVR   FLOAT PTR CS:[BX]
0736:762A D84003            FADD    FLOAT PTR [BX+SI+03]
0736:762D D84132            FADD    FLOAT PTR [BX+DI+32]
0736:7630 64D84253          FADD    FLOAT PTR FS:[BP+SI+53]
0736:7634 D8434E            FADD    FLOAT PTR [BP+DI+4E]
0736:7637 36D8444E          FADD    FLOAT PTR SS:[SI+4E]
0736:763B 26D84568          FADD    FLOAT PTR ES:[DI+68]
0736:763F 26                SEG     ES (unused)
0736:7640 26D846CD          FADD    FLOAT PTR ES:[BP-33]
0736:7644 64D84797          FADD    FLOAT PTR FS:[BX-69]
0736:7648 D8488C            FMUL    FLOAT PTR [BX+SI-74]
0736:764B D84997            FMUL    FLOAT PTR [BX+DI-69]
0736:764E 26D84A89          FMUL    FLOAT PTR ES:[BP+SI-77]
0736:7652 2ED84B93          FMUL    FLOAT PTR CS:[BP+DI-6D]
0736:7656 3ED84C1A          FMUL    FLOAT PTR DS:[SI+1A]
0736:765A D84D93            FMUL    FLOAT PTR [DI-6D]
0736:765D D84E56            FMUL    FLOAT PTR [BP+56]
0736:7660 D84F4C            FMUL    FLOAT PTR [BX+4C]
0736:7663 D85083            FCOM    FLOAT PTR [BX+SI-7D]
0736:7666 64D8519B          FCOM    FLOAT PTR FS:[BX+DI-65]
0736:766A D8524D            FCOM    FLOAT PTR [BP+SI+4D]
0736:766D 26D8538C          FCOM    FLOAT PTR ES:[BP+DI-74]
0736:7671 36D854E8          FCOM    FLOAT PTR SS:[SI-18]
0736:7675 26D85559          FCOM    FLOAT PTR ES:[DI+59]
0736:7679 2ED8569A          FCOM    FLOAT PTR CS:[BP-66]
0736:767D D85753            FCOM    FLOAT PTR [BX+53]
0736:7680 36D8580C          FCOMP   FLOAT PTR SS:[BX+SI+0C]
0736:7684 D859E1            FCOMP   FLOAT PTR [BX+DI-1F]
0736:7687 D85AAF            FCOMP   FLOAT PTR [BP+SI-51]
0736:768A 64D85BBA          FCOMP   FLOAT PTR FS:[BP+DI-46]
0736:768E 26D85CB0          FCOMP   FLOAT PTR ES:[SI-50]
0736:7692 D85D71            FCOMP   FLOAT PTR [DI+71]
0736:7695 D85E41            FCOMP   FLOAT PTR [BP+41]
0736:7698 26D85F19          FCOMP   FLOAT PTR ES:[BX+19]
0736:769C 64D860B6          FSUB    FLOAT PTR FS:[BX+SI-4A]
0736:76A0 26D861C3          FSUB    FLOAT PTR ES:[BX+DI-3D]
0736:76A4 26                SEG     ES (unused)
0736:76A5 26D86246          FSUB    FLOAT PTR ES:[BP+SI+46]
0736:76A9 64D86347          FSUB    FLOAT PTR FS:[BP+DI+47]
0736:76AD 26                SEG     ES (unused)
0736:76AE 26D86496          FSUB    FLOAT PTR ES:[SI-6A]
0736:76B2 3ED8650B          FSUB    FLOAT PTR DS:[DI+0B]
0736:76B6 3ED86637          FSUB    FLOAT PTR DS:[BP+37]
0736:76BA D867FE            FSUB    FLOAT PTR [BX-02]
0736:76BD 2ED868F6          FSUBR   FLOAT PTR CS:[BX+SI-0A]
0736:76C1 D86930            FSUBR   FLOAT PTR [BX+DI+30]
0736:76C4 D86AF5            FSUBR   FLOAT PTR [BP+SI-0B]
0736:76C7 D86B26            FSUBR   FLOAT PTR [BP+DI+26]
0736:76CA 3ED86CBC          FSUBR   FLOAT PTR DS:[SI-44]
0736:76CE D86D6C            FSUBR   FLOAT PTR [DI+6C]
0736:76D1 D86EFE            FSUBR   FLOAT PTR [BP-02]
0736:76D4 26                SEG     ES (unused)
0736:76D5 26D86F8B          FSUBR   FLOAT PTR ES:[BX-75]
0736:76D9 D87060            FDIV    FLOAT PTR [BX+SI+60]
0736:76DC 26                SEG     ES (unused)
0736:76DD 26D871B5          FDIV    FLOAT PTR ES:[BX+DI-4B]
0736:76E1 D8724D            FDIV    FLOAT PTR [BP+SI+4D]
0736:76E4 D87390            FDIV    FLOAT PTR [BP+DI-70]
0736:76E7 D8745F            FDIV    FLOAT PTR [SI+5F]
0736:76EA 36D875DF          FDIV    FLOAT PTR SS:[DI-21]
0736:76EE D87618            FDIV    FLOAT PTR [BP+18]
0736:76F1 D8772B            FDIV    FLOAT PTR [BX+2B]
0736:76F4 D8780E            FDIVR   FLOAT PTR [BX+SI+0E]
0736:76F7 2ED87945          FDIVR   FLOAT PTR CS:[BX+DI+45]
0736:76FB D87A71            FDIVR   FLOAT PTR [BP+SI+71]
0736:76FE 3ED87B5C          FDIVR   FLOAT PTR DS:[BP+DI+5C]
0736:7702 64D87C6C          FDIVR   FLOAT PTR FS:[SI+6C]
0736:7706 D87DBA            FDIVR   FLOAT PTR [DI-46]
0736:7709 D87E78            FDIVR   FLOAT PTR [BP+78]
0736:770C D87F5F            FDIVR   FLOAT PTR [BX+5F]
0736:770F 2ED880C090        FADD    FLOAT PTR CS:[BX+SI+90C0]
0736:7714 3ED881FEAA        FADD    FLOAT PTR DS:[BX+DI+AAFE]
0736:7719 2ED8822F56        FADD    FLOAT PTR CS:[BP+SI+562F]
0736:771E D883EC5B          FADD    FLOAT PTR [BP+DI+5BEC]
0736:7722 D8847576          FADD    FLOAT PTR [SI+7675]
0736:7726 D8852916          FADD    FLOAT PTR [DI+1629]
0736:772A 64D886FE31        FADD    FLOAT PTR FS:[BP+31FE]
0736:772F D8870AC2          FADD    FLOAT PTR [BX+C20A]
0736:7733 D88880C7          FMUL    FLOAT PTR [BX+SI+C780]
0736:7737 D889F8AE          FMUL    FLOAT PTR [BX+DI+AEF8]
0736:773B D88A9F96          FMUL    FLOAT PTR [BP+SI+969F]
0736:773F D88B48AB          FMUL    FLOAT PTR [BP+DI+AB48]
0736:7743 3ED88C5612        FMUL    FLOAT PTR DS:[SI+1256]
0736:7748 D88D91B4          FMUL    FLOAT PTR [DI+B491]
0736:774C 3ED88E6107        FMUL    FLOAT PTR DS:[BP+0761]
0736:7751 26D88F6F2E        FMUL    FLOAT PTR ES:[BX+2E6F]
0736:7756 26D8900840        FCOM    FLOAT PTR ES:[BX+SI+4008]
0736:775B 26D891BB7D        FCOM    FLOAT PTR ES:[BX+DI+7DBB]
0736:7760 D892DB01          FCOM    FLOAT PTR [BP+SI+01DB]
0736:7764 D893B418          FCOM    FLOAT PTR [BP+DI+18B4]
0736:7768 26                SEG     ES (unused)
0736:7769 26D894AFE3        FCOM    FLOAT PTR ES:[SI+E3AF]
0736:776E 64D8950F54        FCOM    FLOAT PTR FS:[DI+540F]
0736:7773 D8961845          FCOM    FLOAT PTR [BP+4518]
0736:7777 D89745E2          FCOM    FLOAT PTR [BX+E245]
0736:777B 64D898754C        FCOMP   FLOAT PTR FS:[BX+SI+4C75]
0736:7780 64D899B560        FCOMP   FLOAT PTR FS:[BX+DI+60B5]
0736:7785 D89A9DA4          FCOMP   FLOAT PTR [BP+SI+A49D]
0736:7789 D89B34F0          FCOMP   FLOAT PTR [BP+DI+F034]
0736:778D 64D89CFED4        FCOMP   FLOAT PTR FS:[SI+D4FE]
0736:7792 D89D61F4          FCOMP   FLOAT PTR [DI+F461]
0736:7796 D89E3D56          FCOMP   FLOAT PTR [BP+563D]
0736:779A D89F9909          FCOMP   FLOAT PTR [BX+0999]
0736:779E 3ED8A0A0BA        FSUB    FLOAT PTR DS:[BX+SI+BAA0]
0736:77A3 D8A13B2D          FSUB    FLOAT PTR [BX+DI+2D3B]
0736:77A7 D8A27283          FSUB    FLOAT PTR [BP+SI+8372]
0736:77AB D8A39D4D          FSUB    FLOAT PTR [BP+DI+4D9D]
0736:77AF D8A4219F          FSUB    FLOAT PTR [SI+9F21]
0736:77B3 2ED8A55C0D        FSUB    FLOAT PTR CS:[DI+0D5C]
0736:77B8 3ED8A6239E        FSUB    FLOAT PTR DS:[BP+9E23]
0736:77BD 26D8A70734        FSUB    FLOAT PTR ES:[BX+3407]
0736:77C2 36D8A861F9        FSUBR   FLOAT PTR SS:[BX+SI+F961]
0736:77C7 64D8A9BEF1        FSUBR   FLOAT PTR FS:[BX+DI+F1BE]
0736:77CC D8AA3DAC          FSUBR   FLOAT PTR [BP+SI+AC3D]
0736:77D0 D8AB57FE          FSUBR   FLOAT PTR [BP+DI+FE57]
0736:77D4 D8AC0D52          FSUBR   FLOAT PTR [SI+520D]
0736:77D8 36D8AD09DE        FSUBR   FLOAT PTR SS:[DI+DE09]
0736:77DD 26D8AE2941        FSUBR   FLOAT PTR ES:[BP+4129]
0736:77E2 D8AFBB64          FSUBR   FLOAT PTR [BX+64BB]
0736:77E6 D8B07D24          FDIV    FLOAT PTR [BX+SI+247D]
0736:77EA 36D8B13590        FDIV    FLOAT PTR SS:[BX+DI+9035]
0736:77EF D8B2ACDD          FDIV    FLOAT PTR [BP+SI+DDAC]
0736:77F3 D8B3F279          FDIV    FLOAT PTR [BP+DI+79F2]
0736:77F7 26D8B4A21B        FDIV    FLOAT PTR ES:[SI+1BA2]
0736:77FC D8B513E1          FDIV    FLOAT PTR [DI+E113]
0736:7800 26                SEG     ES (unused)
0736:7801 26D8B6B6D5        FDIV    FLOAT PTR ES:[BP+D5B6]
0736:7806 26                SEG     ES (unused)
0736:7807 26D8B7C6E3        FDIV    FLOAT PTR ES:[BX+E3C6]
0736:780C 2ED8B813E8        FDIVR   FLOAT PTR CS:[BX+SI+E813]
0736:7811 D8B96D6C          FDIVR   FLOAT PTR [BX+DI+6C6D]
0736:7815 D8BAFDEC          FDIVR   FLOAT PTR [BP+SI+ECFD]
0736:7819 D8BB3738          FDIVR   FLOAT PTR [BP+DI+3837]
0736:781D 36D8BC25D5        FDIVR   FLOAT PTR SS:[SI+D525]
0736:7822 D8BD8593          FDIVR   FLOAT PTR [DI+9385]
0736:7826 3ED8BEC66D        FDIVR   FLOAT PTR DS:[BP+6DC6]
0736:782B D8BF4AB5          FDIVR   FLOAT PTR [BX+B54A]
0736:782F 3E                SEG     DS (unused)
0736:7830 D8C0              FADD    ST,ST(0)
0736:7832 26                SEG     ES (unused)
0736:7833 D8C1              FADD    ST,ST(1)
0736:7835 36                SEG     SS (unused)
0736:7836 D8C2              FADD    ST,ST(2)
0736:7838 26                SEG     ES (unused)
0736:7839 26                SEG     ES (unused)
0736:783A D8C3              FADD    ST,ST(3)
0736:783C 2E                SEG     CS (unused)
0736:783D D8C4              FADD    ST,ST(4)
0736:783F 26                SEG     ES (unused)
0736:7840 26                SEG     ES (unused)
0736:7841 D8C5              FADD    ST,ST(5)
0736:7843 D8C6              FADD    ST,ST(6)
0736:7845 D8C7              FADD    ST,ST(7)
0736:7847 D8C8              FMUL    ST,ST(0)
0736:7849 36                SEG     SS (unused)
0736:784A D8C9              FMUL    ST,ST(1)
0736:784C 36                SEG     SS (unused)
0736:784D D8CA              FMUL    ST,ST(2)
0736:784F 36                SEG     SS (unused)
0736:7850 D8CB              FMUL    ST,ST(3)
0736:7852 D8CC              FMUL    ST,ST(4)
0736:7854 D8CD              FMUL    ST,ST(5)
0736:7856 D8CE              FMUL    ST,ST(6)
0736:7858 2E                SEG     CS (unused)
0736:7859 D8CF              FMUL    ST,ST(7)
0736:785B 2E                SEG     CS (unused)
0736:785C D8D0              FCOM    ST(0)
0736:785E 64                SEG     FS (unused)
0736:785F D8D1              FCOM
0736:7861 36                SEG     SS (unused)
0736:7862 D8D2              FCOM    ST(2)
0736:7864 D8D3              FCOM    ST(3)
0736:7866 64                SEG     FS (unused)
0736:7867 D8D4              FCOM    ST(4)
0736:7869 D8D5              FCOM    ST(5)
0736:786B 26                SEG     ES (unused)
0736:786C D8D6              FCOM    ST(6)
0736:786E 26                SEG     ES (unused)
0736:786F D8D7              FCOM    ST(7)
0736:7871 26                SEG     ES (unused)
0736:7872 D8D8              FCOMP   ST(0)
0736:7874 D8D9              FCOMP
0736:7876 26                SEG     ES (unused)
0736:7877 D8DA              FCOMP   ST(2)
0736:7879 2E                SEG     CS (unused)
0736:787A D8DB              FCOMP   ST(3)
0736:787C D8DC              FCOMP   ST(4)
0736:787E D8DD              FCOMP   ST(5)
0736:7880 26                SEG     ES (unused)
0736:7881 D8DE              FCOMP   ST(6)
0736:7883 26                SEG     ES (unused)
0736:7884 D8DF              FCOMP   ST(7)
0736:7886 D8E0              FSUB    ST,ST(0)
0736:7888 26                SEG     ES (unused)
0736:7889 D8E1              FSUB    ST,ST(1)
0736:788B D8E2              FSUB    ST,ST(2)
0736:788D 64                SEG     FS (unused)
0736:788E D8E3              FSUB    ST,ST(3)
0736:7890 26                SEG     ES (unused)
0736:7891 D8E4              FSUB    ST,ST(4)
0736:7893 36                SEG     SS (unused)
0736:7894 D8E5              FSUB    ST,ST(5)
0736:7896 36                SEG     SS (unused)
0736:7897 D8E6              FSUB    ST,ST(6)
0736:7899 36                SEG     SS (unused)
0736:789A D8E7              FSUB    ST,ST(7)
0736:789C 36                SEG     SS (unused)
0736:789D D8E8              FSUBR   ST,ST(0)
0736:789F 3E                SEG     DS (unused)
0736:78A0 D8E9              FSUBR   ST,ST(1)
0736:78A2 D8EA              FSUBR   ST,ST(2)
0736:78A4 D8EB              FSUBR   ST,ST(3)
0736:78A6 26                SEG     ES (unused)
0736:78A7 26                SEG     ES (unused)
0736:78A8 D8EC              FSUBR   ST,ST(4)
0736:78AA 36                SEG     SS (unused)
0736:78AB D8ED              FSUBR   ST,ST(5)
0736:78AD D8EE              FSUBR   ST,ST(6)
0736:78AF D8EF              FSUBR   ST,ST(7)
0736:78B1 D8F0              FDIV    ST,ST(0)
0736:78B3 D8F1              FDIV    ST,ST(1)
0736:78B5 D8F2              FDIV    ST,ST(2)
0736:78B7 D8F3              FDIV    ST,ST(3)
0736:78B9 36                SEG     SS (unused)
0736:78BA D8F4              FDIV    ST,ST(4)
0736:78BC D8F5              FDIV    ST,ST(5)
0736:78BE 26                SEG     ES (unused)
0736:78BF 26                SEG     ES (unused)
0736:78C0 D8F6              FDIV    ST,ST(6)
0736:78C2 D8F7              FDIV    ST,ST(7)
0736:78C4 D8F8              FDIVR   ST,ST(0)
0736:78C6 D8F9              FDIVR   ST,ST(1)
0736:78C8 26                SEG     ES (unused)
0736:78C9 26                SEG     ES (unused)
0736:78CA D8FA              FDIVR   ST,ST(2)
0736:78CC D8FB              FDIVR   ST,ST(3)
0736:78CE D8FC              FDIVR   ST,ST(4)
0736:78D0 D8FD              FDIVR   ST,ST(5)
0736:78D2 D8FE              FDIVR   ST,ST(6)
0736:78D4 3E                SEG     DS (unused)
0736:78D5 D8FF              FDIVR   ST,ST(7)
0736:78D7 64D900            FLD     FLOAT PTR FS:[BX+SI]
0736:78DA D901              FLD     FLOAT PTR [BX+DI]
0736:78DC 64D902            FLD     FLOAT PTR FS:[BP+SI]
0736:78DF 36D903            FLD     FLOAT PTR SS:[BP+DI]
0736:78E2 26D904            FLD     FLOAT PTR ES:[SI]
0736:78E5 D905              FLD     FLOAT PTR [DI]
0736:78E7 36D906D39F        FLD     FLOAT PTR SS:[9FD3]
0736:78EC D907              FLD     FLOAT PTR [BX]
0736:78EE 3ED910            FST     FLOAT PTR DS:[BX+SI]
0736:78F1 D911              FST     FLOAT PTR [BX+DI]
0736:78F3 36D912            FST     FLOAT PTR SS:[BP+SI]
0736:78F6 26D913            FST     FLOAT PTR ES:[BP+DI]
0736:78F9 2ED914            FST     FLOAT PTR CS:[SI]
0736:78FC D915              FST     FLOAT PTR [DI]
0736:78FE D916DDFE          FST     FLOAT PTR [FEDD]
0736:7902 26D917            FST     FLOAT PTR ES:[BX]
0736:7905 D918              FSTP    FLOAT PTR [BX+SI]
0736:7907 36D919            FSTP    FLOAT PTR SS:[BX+DI]
0736:790A 3ED91A            FSTP    FLOAT PTR DS:[BP+SI]
0736:790D 2ED91B            FSTP    FLOAT PTR CS:[BP+DI]
0736:7910 3ED91C            FSTP    FLOAT PTR DS:[SI]
0736:7913 26D91D            FSTP    FLOAT PTR ES:[DI]
0736:7916 2ED91E4201        FSTP    FLOAT PTR CS:[0142]
0736:791B D91F              FSTP    FLOAT PTR [BX]
0736:791D 26D920            FLDENV  ES:[BX+SI]
0736:7920 D921              FLDENV  [BX+DI]
0736:7922 26D922            FLDENV  ES:[BP+SI]
0736:7925 3ED923            FLDENV  DS:[BP+DI]
0736:7928 D924              FLDENV  [SI]
0736:792A D925              FLDENV  [DI]
0736:792C D92635F8          FLDENV  [F835]
0736:7930 26D927            FLDENV  ES:[BX]
0736:7933 D928              FNLDCW  WORD PTR [BX+SI]
0736:7935 D929              FNLDCW  WORD PTR [BX+DI]
0736:7937 2ED92A            FNLDCW  WORD PTR CS:[BP+SI]
0736:793A 64D92B            FNLDCW  WORD PTR FS:[BP+DI]
0736:793D 36D92C            FNLDCW  WORD PTR SS:[SI]
0736:7940 2ED92D            FNLDCW  WORD PTR CS:[DI]
0736:7943 D92EEE0C          FNLDCW  WORD PTR [0CEE]
0736:7947 3ED92F            FNLDCW  WORD PTR DS:[BX]
0736:794A 64D930            FNSTENV FS:[BX+SI]
0736:794D 26D931            FNSTENV ES:[BX+DI]
0736:7950 3ED932            FNSTENV DS:[BP+SI]
0736:7953 D933              FNSTENV [BP+DI]
0736:7955 2ED934            FNSTENV CS:[SI]
0736:7958 3ED935            FNSTENV DS:[DI]
0736:795B 64D936DED6        FNSTENV FS:[D6DE]
0736:7960 36D937            FNSTENV SS:[BX]
0736:7963 2ED938            FNSTCW  WORD PTR CS:[BX+SI]
0736:7966 D939              FNSTCW  WORD PTR [BX+DI]
0736:7968 D93A              FNSTCW  WORD PTR [BP+SI]
0736:796A 64D93B            FNSTCW  WORD PTR FS:[BP+DI]
0736:796D D93C              FNSTCW  WORD PTR [SI]
0736:796F 3ED93D            FNSTCW  WORD PTR DS:[DI]
0736:7972 36D93EBA01        FNSTCW  WORD PTR SS:[01BA]
0736:7977 D93F              FNSTCW  WORD PTR [BX]
0736:7979 D940A0            FLD     FLOAT PTR [BX+SI-60]
0736:797C 26                SEG     ES (unused)
0736:797D 26D941F8          FLD     FLOAT PTR ES:[BX+DI-08]
0736:7981 2ED942F2          FLD     FLOAT PTR CS:[BP+SI-0E]
0736:7985 26D94339          FLD     FLOAT PTR ES:[BP+DI+39]
0736:7989 64D9441C          FLD     FLOAT PTR FS:[SI+1C]
0736:798D D9457C            FLD     FLOAT PTR [DI+7C]
0736:7990 64D946DF          FLD     FLOAT PTR FS:[BP-21]
0736:7994 D947AE            FLD     FLOAT PTR [BX-52]
0736:7997 D9507A            FST     FLOAT PTR [BX+SI+7A]
0736:799A D95172            FST     FLOAT PTR [BX+DI+72]
0736:799D 3ED952CA          FST     FLOAT PTR DS:[BP+SI-36]
0736:79A1 36D953DD          FST     FLOAT PTR SS:[BP+DI-23]
0736:79A5 D9546F            FST     FLOAT PTR [SI+6F]
0736:79A8 D955E3            FST     FLOAT PTR [DI-1D]
0736:79AB 3ED95682          FST     FLOAT PTR DS:[BP-7E]
0736:79AF 64D95735          FST     FLOAT PTR FS:[BX+35]
0736:79B3 D95868            FSTP    FLOAT PTR [BX+SI+68]
0736:79B6 26D959E6          FSTP    FLOAT PTR ES:[BX+DI-1A]
0736:79BA 26D95AC9          FSTP    FLOAT PTR ES:[BP+SI-37]
0736:79BE D95BE8            FSTP    FLOAT PTR [BP+DI-18]
0736:79C1 D95C9B            FSTP    FLOAT PTR [SI-65]
0736:79C4 D95D53            FSTP    FLOAT PTR [DI+53]
0736:79C7 D95E9F            FSTP    FLOAT PTR [BP-61]
0736:79CA D95FA6            FSTP    FLOAT PTR [BX-5A]
0736:79CD D96027            FLDENV  [BX+SI+27]
0736:79D0 3ED9614B          FLDENV  DS:[BX+DI+4B]
0736:79D4 D96255            FLDENV  [BP+SI+55]
0736:79D7 2ED96329          FLDENV  CS:[BP+DI+29]
0736:79DB D964F4            FLDENV  [SI-0C]
0736:79DE D96530            FLDENV  [DI+30]
0736:79E1 D966AB            FLDENV  [BP-55]
0736:79E4 64D9674A          FLDENV  FS:[BX+4A]
0736:79E8 D968DB            FNLDCW  WORD PTR [BX+SI-25]
0736:79EB D96921            FNLDCW  WORD PTR [BX+DI+21]
0736:79EE 36D96ABE          FNLDCW  WORD PTR SS:[BP+SI-42]
0736:79F2 3ED96B47          FNLDCW  WORD PTR DS:[BP+DI+47]
0736:79F6 D96CCD            FNLDCW  WORD PTR [SI-33]
0736:79F9 D96D16            FNLDCW  WORD PTR [DI+16]
0736:79FC D96EA0            FNLDCW  WORD PTR [BP-60]
0736:79FF D96F9D            FNLDCW  WORD PTR [BX-63]
0736:7A02 3ED9706B          FNSTENV DS:[BX+SI+6B]
0736:7A06 D97104            FNSTENV [BX+DI+04]
0736:7A09 3ED972AF          FNSTENV DS:[BP+SI-51]
0736:7A0D 64D97308          FNSTENV FS:[BP+DI+08]
0736:7A11 D974EB            FNSTENV [SI-15]
0736:7A14 2ED9757B          FNSTENV CS:[DI+7B]
0736:7A18 3ED9768F          FNSTENV DS:[BP-71]
0736:7A1C 3ED97761          FNSTENV DS:[BX+61]
0736:7A20 D97818            FNSTCW  WORD PTR [BX+SI+18]
0736:7A23 3ED97960          FNSTCW  WORD PTR DS:[BX+DI+60]
0736:7A27 D97A51            FNSTCW  WORD PTR [BP+SI+51]
0736:7A2A 36D97B47          FNSTCW  WORD PTR SS:[BP+DI+47]
0736:7A2E 64D97C16          FNSTCW  WORD PTR FS:[SI+16]
0736:7A32 26                SEG     ES (unused)
0736:7A33 26D97DD0          FNSTCW  WORD PTR ES:[DI-30]
0736:7A37 64D97E31          FNSTCW  WORD PTR FS:[BP+31]
0736:7A3B D97F90            FNSTCW  WORD PTR [BX-70]
0736:7A3E D9809B75          FLD     FLOAT PTR [BX+SI+759B]
0736:7A42 D9810C3F          FLD     FLOAT PTR [BX+DI+3F0C]
0736:7A46 26D9823366        FLD     FLOAT PTR ES:[BP+SI+6633]
0736:7A4B 3ED9835042        FLD     FLOAT PTR DS:[BP+DI+4250]
0736:7A50 D9844F56          FLD     FLOAT PTR [SI+564F]
0736:7A54 26D985501A        FLD     FLOAT PTR ES:[DI+1A50]
0736:7A59 26D9867559        FLD     FLOAT PTR ES:[BP+5975]
0736:7A5E 3ED9874FCF        FLD     FLOAT PTR DS:[BX+CF4F]
0736:7A63 D9901DFC          FST     FLOAT PTR [BX+SI+FC1D]
0736:7A67 26D991E352        FST     FLOAT PTR ES:[BX+DI+52E3]
0736:7A6C 26D992B6FA        FST     FLOAT PTR ES:[BP+SI+FAB6]
0736:7A71 26D993F639        FST     FLOAT PTR ES:[BP+DI+39F6]
0736:7A76 D9942521          FST     FLOAT PTR [SI+2125]
0736:7A7A 26D995A2EB        FST     FLOAT PTR ES:[DI+EBA2]
0736:7A7F 64D9964138        FST     FLOAT PTR FS:[BP+3841]
0736:7A84 D997FC9C          FST     FLOAT PTR [BX+9CFC]
0736:7A88 D998E197          FSTP    FLOAT PTR [BX+SI+97E1]
0736:7A8C D999D367          FSTP    FLOAT PTR [BX+DI+67D3]
0736:7A90 D99A37E1          FSTP    FLOAT PTR [BP+SI+E137]
0736:7A94 D99B8331          FSTP    FLOAT PTR [BP+DI+3183]
0736:7A98 36D99C0D08        FSTP    FLOAT PTR SS:[SI+080D]
0736:7A9D D99D61A8          FSTP    FLOAT PTR [DI+A861]
0736:7AA1 64D99EC8A9        FSTP    FLOAT PTR FS:[BP+A9C8]
0736:7AA6 36D99F6942        FSTP    FLOAT PTR SS:[BX+4269]
0736:7AAB 3ED9A0FC27        FLDENV  DS:[BX+SI+27FC]
0736:7AB0 36D9A1C338        FLDENV  SS:[BX+DI+38C3]
0736:7AB5 26                SEG     ES (unused)
0736:7AB6 26D9A29D34        FLDENV  ES:[BP+SI+349D]
0736:7ABB 64D9A3CA08        FLDENV  FS:[BP+DI+08CA]
0736:7AC0 D9A414C5          FLDENV  [SI+C514]
0736:7AC4 D9A5FBE5          FLDENV  [DI+E5FB]
0736:7AC8 64D9A601D8        FLDENV  FS:[BP+D801]
0736:7ACD D9A7F6CC          FLDENV  [BX+CCF6]
0736:7AD1 D9A87EFE          FNLDCW  WORD PTR [BX+SI+FE7E]
0736:7AD5 D9A93C2D          FNLDCW  WORD PTR [BX+DI+2D3C]
0736:7AD9 D9AA5FC7          FNLDCW  WORD PTR [BP+SI+C75F]
0736:7ADD D9AB1EA8          FNLDCW  WORD PTR [BP+DI+A81E]
0736:7AE1 3ED9AC9E20        FNLDCW  WORD PTR DS:[SI+209E]
0736:7AE6 2ED9AD02A2        FNLDCW  WORD PTR CS:[DI+A202]
0736:7AEB 26                SEG     ES (unused)
0736:7AEC 26D9AEC21E        FNLDCW  WORD PTR ES:[BP+1EC2]
0736:7AF1 26                SEG     ES (unused)
0736:7AF2 26D9AF9014        FNLDCW  WORD PTR ES:[BX+1490]
0736:7AF7 D9B0CF7D          FNSTENV [BX+SI+7DCF]
0736:7AFB D9B19A2F          FNSTENV [BX+DI+2F9A]
0736:7AFF 2ED9B277FF        FNSTENV CS:[BP+SI+FF77]
0736:7B04 64D9B32757        FNSTENV FS:[BP+DI+5727]
0736:7B09 3ED9B42A81        FNSTENV DS:[SI+812A]
0736:7B0E D9B54617          FNSTENV [DI+1746]
0736:7B12 D9B67097          FNSTENV [BP+9770]
0736:7B16 D9B7A347          FNSTENV [BX+47A3]
0736:7B1A D9B8968A          FNSTCW  WORD PTR [BX+SI+8A96]
0736:7B1E 36D9B942E3        FNSTCW  WORD PTR SS:[BX+DI+E342]
0736:7B23 D9BA513B          FNSTCW  WORD PTR [BP+SI+3B51]
0736:7B27 64D9BB3D88        FNSTCW  WORD PTR FS:[BP+DI+883D]
0736:7B2C 26D9BC9637        FNSTCW  WORD PTR ES:[SI+3796]
0736:7B31 D9BDFD40          FNSTCW  WORD PTR [DI+40FD]
0736:7B35 3ED9BE7C1F        FNSTCW  WORD PTR DS:[BP+1F7C]
0736:7B3A 26                SEG     ES (unused)
0736:7B3B 26D9BF09C4        FNSTCW  WORD PTR ES:[BX+C409]
0736:7B40 D9C0              FLD     ST(0)
0736:7B42 26                SEG     ES (unused)
0736:7B43 D9C1              FLD     ST(1)
0736:7B45 3E                SEG     DS (unused)
0736:7B46 D9C2              FLD     ST(2)
0736:7B48 D9C3              FLD     ST(3)
0736:7B4A 2E                SEG     CS (unused)
0736:7B4B D9C4              FLD     ST(4)
0736:7B4D D9C5              FLD     ST(5)
0736:7B4F 26                SEG     ES (unused)
0736:7B50 D9C6              FLD     ST(6)
0736:7B52 26                SEG     ES (unused)
0736:7B53 26                SEG     ES (unused)
0736:7B54 D9C7              FLD     ST(7)
0736:7B56 D9C8              FXCH    ST(0)
0736:7B58 26                SEG     ES (unused)
0736:7B59 D9C9              FXCH
0736:7B5B 2E                SEG     CS (unused)
0736:7B5C D9CA              FXCH    ST(2)
0736:7B5E D9CB              FXCH    ST(3)
0736:7B60 2E                SEG     CS (unused)
0736:7B61 D9CC              FXCH    ST(4)
0736:7B63 D9CD              FXCH    ST(5)
0736:7B65 D9CE              FXCH    ST(6)
0736:7B67 26                SEG     ES (unused)
0736:7B68 26                SEG     ES (unused)
0736:7B69 D9CF              FXCH    ST(7)
0736:7B6B 3E                SEG     DS (unused)
0736:7B6C D9E0              FCHS
0736:7B6E 3E                SEG     DS (unused)
0736:7B6F D9E1              FABS
0736:7B71 2E                SEG     CS (unused)
0736:7B72 D9E4              FTST
0736:7B74 2E                SEG     CS (unused)
0736:7B75 D9E5              FXAM
0736:7B77 26                SEG     ES (unused)
0736:7B78 D9E8              FLD1
0736:7B7A D9E9              FLDL2T
0736:7B7C D9EA              FLDL2E
0736:7B7E 26                SEG     ES (unused)
0736:7B7F 26                SEG     ES (unused)
0736:7B80 D9EB              FLDPI
0736:7B82 D9EC              FLDLG2
0736:7B84 26                SEG     ES (unused)
0736:7B85 D9ED              FLDLN2
0736:7B87 36                SEG     SS (unused)
0736:7B88 D9EE              FLDZ
0736:7B8A D9F0              F2XM1
0736:7B8C D9F1              FYL2X
0736:7B8E D9F2              FPTAN
0736:7B90 26                SEG     ES (unused)
0736:7B91 26                SEG     ES (unused)
0736:7B92 D9F3              FPATAN
0736:7B94 3E                SEG     DS (unused)
0736:7B95 D9F4              FXTRACT
0736:7B97 D9F5              FPREM1
0736:7B99 D9F6              FDECSTP
0736:7B9B 64                SEG     FS (unused)
0736:7B9C D9F7              FINCSTP
0736:7B9E D9F8              FPREM
0736:7BA0 26                SEG     ES (unused)
0736:7BA1 D9F9              FYL2XP1
0736:7BA3 D9FA              FSQRT
0736:7BA5 3E                SEG     DS (unused)
0736:7BA6 D9FB              FSINCOS
0736:7BA8 2E                SEG     CS (unused)
0736:7BA9 D9FC              FRNDINT
0736:7BAB 26                SEG     ES (unused)
0736:7BAC D9FD              FSCALE
0736:7BAE 36                SEG     SS (unused)
0736:7BAF D9FE              FSIN
0736:7BB1 D9FF              FCOS
0736:7BB3 DA00              FIADD   DWORD PTR [BX+SI]
0736:7BB5 3EDA01            FIADD   DWORD PTR DS:[BX+DI]
0736:7BB8 DA02              FIADD   DWORD PTR [BP+SI]
0736:7BBA DA03              FIADD   DWORD PTR [BP+DI]
0736:7BBC DA04              FIADD   DWORD PTR [SI]
0736:7BBE DA05              FIADD   DWORD PTR [DI]
0736:7BC0 26DA06DC87        FIADD   DWORD PTR ES:[87DC]
0736:7BC5 26                SEG     ES (unused)
0736:7BC6 26DA07            FIADD   DWORD PTR ES:[BX]
0736:7BC9 DA08              FIMUL   DWORD PTR [BX+SI]
0736:7BCB DA09              FIMUL   DWORD PTR [BX+DI]
0736:7BCD 26DA0A            FIMUL   DWORD PTR ES:[BP+SI]
0736:7BD0 26                SEG     ES (unused)
0736:7BD1 26DA0B            FIMUL   DWORD PTR ES:[BP+DI]
0736:7BD4 DA0C              FIMUL   DWORD PTR [SI]
0736:7BD6 DA0D              FIMUL   DWORD PTR [DI]
0736:7BD8 DA0E1D30          FIMUL   DWORD PTR [301D]
0736:7BDC DA0F              FIMUL   DWORD PTR [BX]
0736:7BDE 64DA10            FICOM   DWORD PTR FS:[BX+SI]
0736:7BE1 26DA11            FICOM   DWORD PTR ES:[BX+DI]
0736:7BE4 DA12              FICOM   DWORD PTR [BP+SI]
0736:7BE6 36DA13            FICOM   DWORD PTR SS:[BP+DI]
0736:7BE9 DA14              FICOM   DWORD PTR [SI]
0736:7BEB DA15              FICOM   DWORD PTR [DI]
0736:7BED DA16B375          FICOM   DWORD PTR [75B3]
0736:7BF1 26                SEG     ES (unused)
0736:7BF2 26DA17            FICOM   DWORD PTR ES:[BX]
0736:7BF5 26DA18            FICOMP  DWORD PTR ES:[BX+SI]
0736:7BF8 DA19              FICOMP  DWORD PTR [BX+DI]
0736:7BFA DA1A              FICOMP  DWORD PTR [BP+SI]
0736:7BFC DA1B              FICOMP  DWORD PTR [BP+DI]
0736:7BFE DA1C              FICOMP  DWORD PTR [SI]
0736:7C00 26DA1D            FICOMP  DWORD PTR ES:[DI]
0736:7C03 36DA1E198F        FICOMP  DWORD PTR SS:[8F19]
0736:7C08 DA1F              FICOMP  DWORD PTR [BX]
0736:7C0A DA20              FISUB   DWORD PTR [BX+SI]
0736:7C0C 36DA21            FISUB   DWORD PTR SS:[BX+DI]
0736:7C0F 26DA22            FISUB   DWORD PTR ES:[BP+SI]
0736:7C12 DA23              FISUB   DWORD PTR [BP+DI]
0736:7C14 3EDA24            FISUB   DWORD PTR DS:[SI]
0736:7C17 DA25              FISUB   DWORD PTR [DI]
0736:7C19 26DA26CA5A        FISUB   DWORD PTR ES:[5ACA]
0736:7C1E DA27              FISUB   DWORD PTR [BX]
0736:7C20 26                SEG     ES (unused)
0736:7C21 26DA28            FISUBR  DWORD PTR ES:[BX+SI]
0736:7C24 DA29              FISUBR  DWORD PTR [BX+DI]
0736:7C26 DA2A              FISUBR  DWORD PTR [BP+SI]
0736:7C28 36DA2B            FISUBR  DWORD PTR SS:[BP+DI]
0736:7C2B 26DA2C            FISUBR  DWORD PTR ES:[SI]
0736:7C2E DA2D              FISUBR  DWORD PTR [DI]
0736:7C30 DA2E9414          FISUBR  DWORD PTR [1494]
0736:7C34 DA2F              FISUBR  DWORD PTR [BX]
0736:7C36 DA30              FIDIV   DWORD PTR [BX+SI]
0736:7C38 64DA31            FIDIV   DWORD PTR FS:[BX+DI]
0736:7C3B 26                SEG     ES (unused)
0736:7C3C 26DA32            FIDIV   DWORD PTR ES:[BP+SI]
0736:7C3F DA33              FIDIV   DWORD PTR [BP+DI]
0736:7C41 26DA34            FIDIV   DWORD PTR ES:[SI]
0736:7C44 26DA35            FIDIV   DWORD PTR ES:[DI]
0736:7C47 DA36364E          FIDIV   DWORD PTR [4E36]
0736:7C4B 26                SEG     ES (unused)
0736:7C4C 26DA37            FIDIV   DWORD PTR ES:[BX]
0736:7C4F DA38              FIDIVR  DWORD PTR [BX+SI]
0736:7C51 26DA39            FIDIVR  DWORD PTR ES:[BX+DI]
0736:7C54 DA3A              FIDIVR  DWORD PTR [BP+SI]
0736:7C56 DA3B              FIDIVR  DWORD PTR [BP+DI]
0736:7C58 26                SEG     ES (unused)
0736:7C59 26DA3C            FIDIVR  DWORD PTR ES:[SI]
0736:7C5C 26                SEG     ES (unused)
0736:7C5D 26DA3D            FIDIVR  DWORD PTR ES:[DI]
0736:7C60 3EDA3E78F0        FIDIVR  DWORD PTR DS:[F078]
0736:7C65 2EDA3F            FIDIVR  DWORD PTR CS:[BX]
0736:7C68 DA40E5            FIADD   DWORD PTR [BX+SI-1B]
0736:7C6B 26DA4172          FIADD   DWORD PTR ES:[BX+DI+72]
0736:7C6F DA4278            FIADD   DWORD PTR [BP+SI+78]
0736:7C72 64DA43D3          FIADD   DWORD PTR FS:[BP+DI-2D]
0736:7C76 2EDA4407          FIADD   DWORD PTR CS:[SI+07]
0736:7C7A 2EDA45D9          FIADD   DWORD PTR CS:[DI-27]
0736:7C7E DA4621            FIADD   DWORD PTR [BP+21]
0736:7C81 DA4784            FIADD   DWORD PTR [BX-7C]
0736:7C84 DA4875            FIMUL   DWORD PTR [BX+SI+75]
0736:7C87 2EDA49D2          FIMUL   DWORD PTR CS:[BX+DI-2E]
0736:7C8B 26                SEG     ES (unused)
0736:7C8C 26DA4AB8          FIMUL   DWORD PTR ES:[BP+SI-48]
0736:7C90 64DA4BC1          FIMUL   DWORD PTR FS:[BP+DI-3F]
0736:7C94 26DA4C45          FIMUL   DWORD PTR ES:[SI+45]
0736:7C98 2EDA4D6C          FIMUL   DWORD PTR CS:[DI+6C]
0736:7C9C 3EDA4EC1          FIMUL   DWORD PTR DS:[BP-3F]
0736:7CA0 26                SEG     ES (unused)
0736:7CA1 26DA4F46          FIMUL   DWORD PTR ES:[BX+46]
0736:7CA5 3EDA502E          FICOM   DWORD PTR DS:[BX+SI+2E]
0736:7CA9 DA51AE            FICOM   DWORD PTR [BX+DI-52]
0736:7CAC 3EDA52C8          FICOM   DWORD PTR DS:[BP+SI-38]
0736:7CB0 26                SEG     ES (unused)
0736:7CB1 26DA53FE          FICOM   DWORD PTR ES:[BP+DI-02]
0736:7CB5 3EDA5426          FICOM   DWORD PTR DS:[SI+26]
0736:7CB9 36DA5597          FICOM   DWORD PTR SS:[DI-69]
0736:7CBD 36DA569B          FICOM   DWORD PTR SS:[BP-65]
0736:7CC1 36DA5703          FICOM   DWORD PTR SS:[BX+03]
0736:7CC5 2EDA58BD          FICOMP  DWORD PTR CS:[BX+SI-43]
0736:7CC9 DA5948            FICOMP  DWORD PTR [BX+DI+48]
0736:7CCC 26                SEG     ES (unused)
0736:7CCD 26DA5A53          FICOMP  DWORD PTR ES:[BP+SI+53]
0736:7CD1 26DA5B09          FICOMP  DWORD PTR ES:[BP+DI+09]
0736:7CD5 26DA5C59          FICOMP  DWORD PTR ES:[SI+59]
0736:7CD9 64DA5DD2          FICOMP  DWORD PTR FS:[DI-2E]
0736:7CDD DA5E41            FICOMP  DWORD PTR [BP+41]
0736:7CE0 DA5FD5            FICOMP  DWORD PTR [BX-2B]
0736:7CE3 DA6085            FISUB   DWORD PTR [BX+SI-7B]
0736:7CE6 26DA61F1          FISUB   DWORD PTR ES:[BX+DI-0F]
0736:7CEA DA6293            FISUB   DWORD PTR [BP+SI-6D]
0736:7CED DA63AD            FISUB   DWORD PTR [BP+DI-53]
0736:7CF0 DA6429            FISUB   DWORD PTR [SI+29]
0736:7CF3 DA6597            FISUB   DWORD PTR [DI-69]
0736:7CF6 36DA6698          FISUB   DWORD PTR SS:[BP-68]
0736:7CFA DA6766            FISUB   DWORD PTR [BX+66]
0736:7CFD 36DA681F          FISUBR  DWORD PTR SS:[BX+SI+1F]
0736:7D01 26                SEG     ES (unused)
0736:7D02 26DA696D          FISUBR  DWORD PTR ES:[BX+DI+6D]
0736:7D06 64DA6A19          FISUBR  DWORD PTR FS:[BP+SI+19]
0736:7D0A DA6B6C            FISUBR  DWORD PTR [BP+DI+6C]
0736:7D0D 3EDA6C09          FISUBR  DWORD PTR DS:[SI+09]
0736:7D11 DA6DFB            FISUBR  DWORD PTR [DI-05]
0736:7D14 2EDA6E22          FISUBR  DWORD PTR CS:[BP+22]
0736:7D18 DA6F6C            FISUBR  DWORD PTR [BX+6C]
0736:7D1B 3EDA7018          FIDIV   DWORD PTR DS:[BX+SI+18]
0736:7D1F DA71BD            FIDIV   DWORD PTR [BX+DI-43]
0736:7D22 2EDA7211          FIDIV   DWORD PTR CS:[BP+SI+11]
0736:7D26 26                SEG     ES (unused)
0736:7D27 26DA73C1          FIDIV   DWORD PTR ES:[BP+DI-3F]
0736:7D2B 36DA74C5          FIDIV   DWORD PTR SS:[SI-3B]
0736:7D2F 3EDA75C4          FIDIV   DWORD PTR DS:[DI-3C]
0736:7D33 64DA765A          FIDIV   DWORD PTR FS:[BP+5A]
0736:7D37 2EDA77AC          FIDIV   DWORD PTR CS:[BX-54]
0736:7D3B DA78EB            FIDIVR  DWORD PTR [BX+SI-15]
0736:7D3E DA79F2            FIDIVR  DWORD PTR [BX+DI-0E]
0736:7D41 DA7A99            FIDIVR  DWORD PTR [BP+SI-67]
0736:7D44 DA7BBA            FIDIVR  DWORD PTR [BP+DI-46]
0736:7D47 3EDA7CB5          FIDIVR  DWORD PTR DS:[SI-4B]
0736:7D4B 64DA7DE7          FIDIVR  DWORD PTR FS:[DI-19]
0736:7D4F DA7E4E            FIDIVR  DWORD PTR [BP+4E]
0736:7D52 64DA7F18          FIDIVR  DWORD PTR FS:[BX+18]
0736:7D56 DA809D3F          FIADD   DWORD PTR [BX+SI+3F9D]
0736:7D5A 3EDA818FFA        FIADD   DWORD PTR DS:[BX+DI+FA8F]
0736:7D5F 2EDA823B81        FIADD   DWORD PTR CS:[BP+SI+813B]
0736:7D64 DA838320          FIADD   DWORD PTR [BP+DI+2083]
0736:7D68 3EDA8452CB        FIADD   DWORD PTR DS:[SI+CB52]
0736:7D6D DA8535C8          FIADD   DWORD PTR [DI+C835]
0736:7D71 26DA869B15        FIADD   DWORD PTR ES:[BP+159B]
0736:7D76 DA874222          FIADD   DWORD PTR [BX+2242]
0736:7D7A 2EDA88913F        FIMUL   DWORD PTR CS:[BX+SI+3F91]
0736:7D7F DA8979E5          FIMUL   DWORD PTR [BX+DI+E579]
0736:7D83 DA8AF479          FIMUL   DWORD PTR [BP+SI+79F4]
0736:7D87 36DA8B1D24        FIMUL   DWORD PTR SS:[BP+DI+241D]
0736:7D8C DA8C2D61          FIMUL   DWORD PTR [SI+612D]
0736:7D90 DA8D3A9D          FIMUL   DWORD PTR [DI+9D3A]
0736:7D94 36DA8EC4E1        FIMUL   DWORD PTR SS:[BP+E1C4]
0736:7D99 DA8FD2C3          FIMUL   DWORD PTR [BX+C3D2]
0736:7D9D DA900835          FICOM   DWORD PTR [BX+SI+3508]
0736:7DA1 36DA91BB28        FICOM   DWORD PTR SS:[BX+DI+28BB]
0736:7DA6 DA92C034          FICOM   DWORD PTR [BP+SI+34C0]
0736:7DAA 26                SEG     ES (unused)
0736:7DAB 26DA93807A        FICOM   DWORD PTR ES:[BP+DI+7A80]
0736:7DB0 DA9434AA          FICOM   DWORD PTR [SI+AA34]
0736:7DB4 64DA95CE4D        FICOM   DWORD PTR FS:[DI+4DCE]
0736:7DB9 26                SEG     ES (unused)
0736:7DBA 26DA968EC7        FICOM   DWORD PTR ES:[BP+C78E]
0736:7DBF 2EDA977C58        FICOM   DWORD PTR CS:[BX+587C]
0736:7DC4 2EDA980065        FICOMP  DWORD PTR CS:[BX+SI+6500]
0736:7DC9 DA99CDB9          FICOMP  DWORD PTR [BX+DI+B9CD]
0736:7DCD DA9A034D          FICOMP  DWORD PTR [BP+SI+4D03]
0736:7DD1 DA9B13CB          FICOMP  DWORD PTR [BP+DI+CB13]
0736:7DD5 26DA9C7587        FICOMP  DWORD PTR ES:[SI+8775]
0736:7DDA DA9D594E          FICOMP  DWORD PTR [DI+4E59]
0736:7DDE 64DA9EB4B4        FICOMP  DWORD PTR FS:[BP+B4B4]
0736:7DE3 26DA9F47C9        FICOMP  DWORD PTR ES:[BX+C947]
0736:7DE8 36DAA0847A        FISUB   DWORD PTR SS:[BX+SI+7A84]
0736:7DED 3EDAA19095        FISUB   DWORD PTR DS:[BX+DI+9590]
0736:7DF2 DAA21CFD          FISUB   DWORD PTR [BP+SI+FD1C]
0736:7DF6 26                SEG     ES (unused)
0736:7DF7 26DAA3FEDF        FISUB   DWORD PTR ES:[BP+DI+DFFE]
0736:7DFC DAA4868E          FISUB   DWORD PTR [SI+8E86]
0736:7E00 DAA5C5A4          FISUB   DWORD PTR [DI+A4C5]
0736:7E04 36DAA69A1E        FISUB   DWORD PTR SS:[BP+1E9A]
0736:7E09 DAA70154          FISUB   DWORD PTR [BX+5401]
0736:7E0D DAA8EB9C          FISUBR  DWORD PTR [BX+SI+9CEB]
0736:7E11 DAA9FD48          FISUBR  DWORD PTR [BX+DI+48FD]
0736:7E15 DAAAA80D          FISUBR  DWORD PTR [BP+SI+0DA8]
0736:7E19 36DAAB8918        FISUBR  DWORD PTR SS:[BP+DI+1889]
0736:7E1E DAAC1269          FISUBR  DWORD PTR [SI+6912]
0736:7E22 36DAAD00D2        FISUBR  DWORD PTR SS:[DI+D200]
0736:7E27 36DAAEC1EB        FISUBR  DWORD PTR SS:[BP+EBC1]
0736:7E2C 3EDAAF451A        FISUBR  DWORD PTR DS:[BX+1A45]
0736:7E31 2EDAB0ACF0        FIDIV   DWORD PTR CS:[BX+SI+F0AC]
0736:7E36 DAB1BD59          FIDIV   DWORD PTR [BX+DI+59BD]
0736:7E3A DAB25131          FIDIV   DWORD PTR [BP+SI+3151]
0736:7E3E 64DAB324F3        FIDIV   DWORD PTR FS:[BP+DI+F324]
0736:7E43 DAB4A14F          FIDIV   DWORD PTR [SI+4FA1]
0736:7E47 DAB5D0AC          FIDIV   DWORD PTR [DI+ACD0]
0736:7E4B 36DAB6C21F        FIDIV   DWORD PTR SS:[BP+1FC2]
0736:7E50 DAB7A174          FIDIV   DWORD PTR [BX+74A1]
0736:7E54 3EDAB82700        FIDIVR  DWORD PTR DS:[BX+SI+0027]
0736:7E59 64DAB934A9        FIDIVR  DWORD PTR FS:[BX+DI+A934]
0736:7E5E DABA3D41          FIDIVR  DWORD PTR [BP+SI+413D]
0736:7E62 36DABBD204        FIDIVR  DWORD PTR SS:[BP+DI+04D2]
0736:7E67 36DABC92CB        FIDIVR  DWORD PTR SS:[SI+CB92]
0736:7E6C DABD17D8          FIDIVR  DWORD PTR [DI+D817]
0736:7E70 64DABE6472        FIDIVR  DWORD PTR FS:[BP+7264]
0736:7E75 DABF24BF          FIDIVR  DWORD PTR [BX+BF24]
0736:7E79 3E                SEG     DS (unused)
0736:7E7A DAC0              FCMOVB  ST,ST(0)                        [needs 687]
0736:7E7C 2E                SEG     CS (unused)
0736:7E7D DAC1              FCMOVB  ST,ST(1)                        [needs 687]
0736:7E7F 3E                SEG     DS (unused)
0736:7E80 DAC2              FCMOVB  ST,ST(2)                        [needs 687]
0736:7E82 DAC3              FCMOVB  ST,ST(3)                        [needs 687]
0736:7E84 DAC4              FCMOVB  ST,ST(4)                        [needs 687]
0736:7E86 26                SEG     ES (unused)
0736:7E87 DAC5              FCMOVB  ST,ST(5)                        [needs 687]
0736:7E89 DAC6              FCMOVB  ST,ST(6)                        [needs 687]
0736:7E8B 36                SEG     SS (unused)
0736:7E8C DAC7              FCMOVB  ST,ST(7)                        [needs 687]
0736:7E8E 26                SEG     ES (unused)
0736:7E8F DAC8              FCMOVE  ST,ST(0)                        [needs 687]
0736:7E91 26                SEG     ES (unused)
0736:7E92 26                SEG     ES (unused)
0736:7E93 DAC9              FCMOVE  ST,ST(1)                        [needs 687]
0736:7E95 DACA              FCMOVE  ST,ST(2)                        [needs 687]
0736:7E97 DACB              FCMOVE  ST,ST(3)                        [needs 687]
0736:7E99 DACC              FCMOVE  ST,ST(4)                        [needs 687]
0736:7E9B DACD              FCMOVE  ST,ST(5)                        [needs 687]
0736:7E9D 3E                SEG     DS (unused)
0736:7E9E DACE              FCMOVE  ST,ST(6)                        [needs 687]
0736:7EA0 DACF              FCMOVE  ST,ST(7)                        [needs 687]
0736:7EA2 36                SEG     SS (unused)
0736:7EA3 DAD0              FCMOVBE ST,ST(0)                        [needs 687]
0736:7EA5 36                SEG     SS (unused)
0736:7EA6 DAD1              FCMOVBE ST,ST(1)                        [needs 687]
0736:7EA8 26                SEG     ES (unused)
0736:7EA9 DAD2              FCMOVBE ST,ST(2)                        [needs 687]
0736:7EAB DAD3              FCMOVBE ST,ST(3)                        [needs 687]
0736:7EAD DAD4              FCMOVBE ST,ST(4)                        [needs 687]
0736:7EAF 3E                SEG     DS (unused)
0736:7EB0 DAD5              FCMOVBE ST,ST(5)                        [needs 687]
0736:7EB2 DAD6              FCMOVBE ST,ST(6)                        [needs 687]
0736:7EB4 DAD7              FCMOVBE ST,ST(7)                        [needs 687]
0736:7EB6 DAD8              FCMOVU  ST,ST(0)                        [needs 687]
0736:7EB8 DAD9              FCMOVU  ST,ST(1)                        [needs 687]
0736:7EBA 26                SEG     ES (unused)
0736:7EBB DADA              FCMOVU  ST,ST(2)                        [needs 687]
0736:7EBD DADB              FCMOVU  ST,ST(3)                        [needs 687]
0736:7EBF DADC              FCMOVU  ST,ST(4)                        [needs 687]
0736:7EC1 3E                SEG     DS (unused)
0736:7EC2 DADD              FCMOVU  ST,ST(5)                        [needs 687]
0736:7EC4 DADE              FCMOVU  ST,ST(6)                        [needs 687]
0736:7EC6 64                SEG     FS (unused)
0736:7EC7 DADF              FCMOVU  ST,ST(7)                        [needs 687]
0736:7EC9 3E                SEG     DS (unused)
0736:7ECA DAE9              FUCOMPP
0736:7ECC DB00              FILD    DWORD PTR [BX+SI]
0736:7ECE 26                SEG     ES (unused)
0736:7ECF 26DB01            FILD    DWORD PTR ES:[BX+DI]
0736:7ED2 64DB02            FILD    DWORD PTR FS:[BP+SI]
0736:7ED5 26                SEG     ES (unused)
0736:7ED6 26DB03            FILD    DWORD PTR ES:[BP+DI]
0736:7ED9 2EDB04            FILD    DWORD PTR CS:[SI]
0736:7EDC DB05              FILD    DWORD PTR [DI]
0736:7EDE DB066B6E          FILD    DWORD PTR [6E6B]
0736:7EE2 DB07              FILD    DWORD PTR [BX]
0736:7EE4 DB10              FIST    DWORD PTR [BX+SI]
0736:7EE6 DB11              FIST    DWORD PTR [BX+DI]
0736:7EE8 26DB12            FIST    DWORD PTR ES:[BP+SI]
0736:7EEB DB13              FIST    DWORD PTR [BP+DI]
0736:7EED 64DB14            FIST    DWORD PTR FS:[SI]
0736:7EF0 26                SEG     ES (unused)
0736:7EF1 26DB15            FIST    DWORD PTR ES:[DI]
0736:7EF4 DB16369A          FIST    DWORD PTR [9A36]
0736:7EF8 DB17              FIST    DWORD PTR [BX]
0736:7EFA 3EDB18            FISTP   DWORD PTR DS:[BX+SI]
0736:7EFD DB19              FISTP   DWORD PTR [BX+DI]
0736:7EFF DB1A              FISTP   DWORD PTR [BP+SI]
0736:7F01 DB1B              FISTP   DWORD PTR [BP+DI]
0736:7F03 DB1C              FISTP   DWORD PTR [SI]
0736:7F05 2EDB1D            FISTP   DWORD PTR CS:[DI]
0736:7F08 DB1E167A          FISTP   DWORD PTR [7A16]
0736:7F0C 3EDB1F            FISTP   DWORD PTR DS:[BX]
0736:7F0F 36DB28            FLD     TBYTE PTR SS:[BX+SI]
0736:7F12 DB29              FLD     TBYTE PTR [BX+DI]
0736:7F14 2EDB2A            FLD     TBYTE PTR CS:[BP+SI]
0736:7F17 26DB2B            FLD     TBYTE PTR ES:[BP+DI]
0736:7F1A DB2C              FLD     TBYTE PTR [SI]
0736:7F1C 36DB2D            FLD     TBYTE PTR SS:[DI]
0736:7F1F 64DB2EB8AD        FLD     TBYTE PTR FS:[ADB8]
0736:7F24 DB2F              FLD     TBYTE PTR [BX]
0736:7F26 DB38              FSTP    TBYTE PTR [BX+SI]
0736:7F28 DB39              FSTP    TBYTE PTR [BX+DI]
0736:7F2A DB3A              FSTP    TBYTE PTR [BP+SI]
0736:7F2C DB3B              FSTP    TBYTE PTR [BP+DI]
0736:7F2E 64DB3C            FSTP    TBYTE PTR FS:[SI]
0736:7F31 2EDB3D            FSTP    TBYTE PTR CS:[DI]
0736:7F34 26                SEG     ES (unused)
0736:7F35 26DB3E9B7A        FSTP    TBYTE PTR ES:[7A9B]
0736:7F3A DB3F              FSTP    TBYTE PTR [BX]
0736:7F3C DB402C            FILD    DWORD PTR [BX+SI+2C]
0736:7F3F DB411D            FILD    DWORD PTR [BX+DI+1D]
0736:7F42 36DB4284          FILD    DWORD PTR SS:[BP+SI-7C]
0736:7F46 2EDB4377          FILD    DWORD PTR CS:[BP+DI+77]
0736:7F4A 2EDB4468          FILD    DWORD PTR CS:[SI+68]
0736:7F4E DB4551            FILD    DWORD PTR [DI+51]
0736:7F51 DB46BA            FILD    DWORD PTR [BP-46]
0736:7F54 DB4779            FILD    DWORD PTR [BX+79]
0736:7F57 64DB5033          FIST    DWORD PTR FS:[BX+SI+33]
0736:7F5B 26                SEG     ES (unused)
0736:7F5C 26DB5165          FIST    DWORD PTR ES:[BX+DI+65]
0736:7F60 DB5251            FIST    DWORD PTR [BP+SI+51]
0736:7F63 26DB5354          FIST    DWORD PTR ES:[BP+DI+54]
0736:7F67 26DB54A9          FIST    DWORD PTR ES:[SI-57]
0736:7F6B 26DB5599          FIST    DWORD PTR ES:[DI-67]
0736:7F6F DB5661            FIST    DWORD PTR [BP+61]
0736:7F72 DB57DF            FIST    DWORD PTR [BX-21]
0736:7F75 DB58B2            FISTP   DWORD PTR [BX+SI-4E]
0736:7F78 26DB5979          FISTP   DWORD PTR ES:[BX+DI+79]
0736:7F7C DB5A0C            FISTP   DWORD PTR [BP+SI+0C]
0736:7F7F 64DB5B6F          FISTP   DWORD PTR FS:[BP+DI+6F]
0736:7F83 3EDB5CBA          FISTP   DWORD PTR DS:[SI-46]
0736:7F87 26DB5D8A          FISTP   DWORD PTR ES:[DI-76]
0736:7F8B 26DB5ED6          FISTP   DWORD PTR ES:[BP-2A]
0736:7F8F 26                SEG     ES (unused)
0736:7F90 26DB5FAE          FISTP   DWORD PTR ES:[BX-52]
0736:7F94 DB6893            FLD     TBYTE PTR [BX+SI-6D]
0736:7F97 DB6931            FLD     TBYTE PTR [BX+DI+31]
0736:7F9A 2EDB6A8E          FLD     TBYTE PTR CS:[BP+SI-72]
0736:7F9E DB6B30            FLD     TBYTE PTR [BP+DI+30]
0736:7FA1 26                SEG     ES (unused)
0736:7FA2 26DB6C8D          FLD     TBYTE PTR ES:[SI-73]
0736:7FA6 64DB6D70          FLD     TBYTE PTR FS:[DI+70]
0736:7FAA 64DB6E67          FLD     TBYTE PTR FS:[BP+67]
0736:7FAE 2EDB6FC1          FLD     TBYTE PTR CS:[BX-3F]
0736:7FB2 26DB78CB          FSTP    TBYTE PTR ES:[BX+SI-35]
0736:7FB6 DB79A1            FSTP    TBYTE PTR [BX+DI-5F]
0736:7FB9 64DB7A56          FSTP    TBYTE PTR FS:[BP+SI+56]
0736:7FBD DB7BB4            FSTP    TBYTE PTR [BP+DI-4C]
0736:7FC0 DB7C62            FSTP    TBYTE PTR [SI+62]
0736:7FC3 DB7D76            FSTP    TBYTE PTR [DI+76]
0736:7FC6 DB7EE9            FSTP    TBYTE PTR [BP-17]
0736:7FC9 DB7F64            FSTP    TBYTE PTR [BX+64]
0736:7FCC 36DB80CF93        FILD    DWORD PTR SS:[BX+SI+93CF]
0736:7FD1 26                SEG     ES (unused)
0736:7FD2 26DB814FDC        FILD    DWORD PTR ES:[BX+DI+DC4F]
0736:7FD7 DB82744F          FILD    DWORD PTR [BP+SI+4F74]
0736:7FDB DB832E04          FILD    DWORD PTR [BP+DI+042E]
0736:7FDF DB842D34          FILD    DWORD PTR [SI+342D]
0736:7FE3 36DB858676        FILD    DWORD PTR SS:[DI+7686]
0736:7FE8 36DB86348F        FILD    DWORD PTR SS:[BP+8F34]
0736:7FED 3EDB8797D4        FILD    DWORD PTR DS:[BX+D497]
0736:7FF2 DB90143C          FIST    DWORD PTR [BX+SI+3C14]
0736:7FF6 DB91294B          FIST    DWORD PTR [BX+DI+4B29]
0736:7FFA 64DB92EE56        FIST    DWORD PTR FS:[BP+SI+56EE]
0736:7FFF 26                SEG     ES (unused)
0736:8000 26DB93D656        FIST    DWORD PTR ES:[BP+DI+56D6]
0736:8005 64DB94A623        FIST    DWORD PTR FS:[SI+23A6]
0736:800A 26DB954F7A        FIST    DWORD PTR ES:[DI+7A4F]
0736:800F 26                SEG     ES (unused)
0736:8010 26DB960373        FIST    DWORD PTR ES:[BP+7303]
0736:8015 DB972830          FIST    DWORD PTR [BX+3028]
0736:8019 DB98577C          FISTP   DWORD PTR [BX+SI+7C57]
0736:801D 64DB999ED8        FISTP   DWORD PTR FS:[BX+DI+D89E]
0736:8022 36DB9A6435        FISTP   DWORD PTR SS:[BP+SI+3564]
0736:8027 3EDB9B0272        FISTP   DWORD PTR DS:[BP+DI+7202]
0736:802C DB9CBD52          FISTP   DWORD PTR [SI+52BD]
0736:8030 36DB9DDC52        FISTP   DWORD PTR SS:[DI+52DC]
0736:8035 2EDB9E88CC        FISTP   DWORD PTR CS:[BP+CC88]
0736:803A 26DB9F3EBA        FISTP   DWORD PTR ES:[BX+BA3E]
0736:803F 64DBA8A61E        FLD     TBYTE PTR FS:[BX+SI+1EA6]
0736:8044 DBA98C76          FLD     TBYTE PTR [BX+DI+768C]
0736:8048 DBAAFF37          FLD     TBYTE PTR [BP+SI+37FF]
0736:804C 3EDBAB1D52        FLD     TBYTE PTR DS:[BP+DI+521D]
0736:8051 DBACDAAD          FLD     TBYTE PTR [SI+ADDA]
0736:8055 DBAD79EC          FLD     TBYTE PTR [DI+EC79]
0736:8059 36DBAE9EF7        FLD     TBYTE PTR SS:[BP+F79E]
0736:805E 26                SEG     ES (unused)
0736:805F 26DBAF1E08        FLD     TBYTE PTR ES:[BX+081E]
0736:8064 DBB81C8D          FSTP    TBYTE PTR [BX+SI+8D1C]
0736:8068 36DBB94B05        FSTP    TBYTE PTR SS:[BX+DI+054B]
0736:806D DBBAB028          FSTP    TBYTE PTR [BP+SI+28B0]
0736:8071 DBBB34B6          FSTP    TBYTE PTR [BP+DI+B634]
0736:8075 3EDBBCA533        FSTP    TBYTE PTR DS:[SI+33A5]
0736:807A DBBD55BC          FSTP    TBYTE PTR [DI+BC55]
0736:807E DBBE8E1C          FSTP    TBYTE PTR [BP+1C8E]
0736:8082 DBBF80F5          FSTP    TBYTE PTR [BX+F580]
0736:8086 26                SEG     ES (unused)
0736:8087 26                SEG     ES (unused)
0736:8088 DBC0              FCMOVNB ST,ST(0)                        [needs 687]
0736:808A 64                SEG     FS (unused)
0736:808B DBC1              FCMOVNB ST,ST(1)                        [needs 687]
0736:808D 26                SEG     ES (unused)
0736:808E DBC2              FCMOVNB ST,ST(2)                        [needs 687]
0736:8090 64                SEG     FS (unused)
0736:8091 DBC3              FCMOVNB ST,ST(3)                        [needs 687]
0736:8093 DBC4              FCMOVNB ST,ST(4)                        [needs 687]
0736:8095 DBC5              FCMOVNB ST,ST(5)                        [needs 687]
0736:8097 64                SEG     FS (unused)
0736:8098 DBC6              FCMOVNB ST,ST(6)                        [needs 687]
0736:809A DBC7              FCMOVNB ST,ST(7)                        [needs 687]
0736:809C 64                SEG     FS (unused)
0736:809D DBC8              FCMOVNE ST,ST(0)                        [needs 687]
0736:809F DBC9              FCMOVNE ST,ST(1)                        [needs 687]
0736:80A1 64                SEG     FS (unused)
0736:80A2 DBCA              FCMOVNE ST,ST(2)                        [needs 687]
0736:80A4 26                SEG     ES (unused)
0736:80A5 26                SEG     ES (unused)
0736:80A6 DBCB              FCMOVNE ST,ST(3)                        [needs 687]
0736:80A8 DBCC              FCMOVNE ST,ST(4)                        [needs 687]
0736:80AA 64                SEG     FS (unused)
0736:80AB DBCD              FCMOVNE ST,ST(5)                        [needs 687]
0736:80AD 3E                SEG     DS (unused)
0736:80AE DBCE              FCMOVNE ST,ST(6)                        [needs 687]
0736:80B0 DBCF              FCMOVNE ST,ST(7)                        [needs 687]
0736:80B2 2E                SEG     CS (unused)
0736:80B3 DBD0              FCMOVNBE ST,ST(0)                       [needs 687]
0736:80B5 26                SEG     ES (unused)
0736:80B6 DBD1              FCMOVNBE ST,ST(1)                       [needs 687]
0736:80B8 64                SEG     FS (unused)
0736:80B9 DBD2              FCMOVNBE ST,ST(2)                       [needs 687]
0736:80BB 26                SEG     ES (unused)
0736:80BC DBD3              FCMOVNBE ST,ST(3)                       [needs 687]
0736:80BE DBD4              FCMOVNBE ST,ST(4)                       [needs 687]
0736:80C0 DBD5              FCMOVNBE ST,ST(5)                       [needs 687]
0736:80C2 26                SEG     ES (unused)
0736:80C3 DBD6              FCMOVNBE ST,ST(6)                       [needs 687]
0736:80C5 DBD7              FCMOVNBE ST,ST(7)                       [needs 687]
0736:80C7 64                SEG     FS (unused)
0736:80C8 DBD8              FCMOVNU ST,ST(0)                        [needs 687]
0736:80CA 2E                SEG     CS (unused)
0736:80CB DBD9              FCMOVNU ST,ST(1)                        [needs 687]
0736:80CD DBDA              FCMOVNU ST,ST(2)                        [needs 687]
0736:80CF DBDB              FCMOVNU ST,ST(3)                        [needs 687]
0736:80D1 26                SEG     ES (unused)
0736:80D2 26                SEG     ES (unused)
0736:80D3 DBDC              FCMOVNU ST,ST(4)                        [needs 687]
0736:80D5 3E                SEG     DS (unused)
0736:80D6 DBDD              FCMOVNU ST,ST(5)                        [needs 687]
0736:80D8 DBDE              FCMOVNU ST,ST(6)                        [needs 687]
0736:80DA DBDF              FCMOVNU ST,ST(7)                        [needs 687]
0736:80DC DBE0              FNENI                                    [obsolete]
0736:80DE DBE1              FNDISI                                   [obsolete]
0736:80E0 DBE2              FNCLEX
0736:80E2 DBE3              FNINIT
0736:80E4 DBE4              FNSETPM                                  [obsolete]
0736:80E6 64                SEG     FS (unused)
0736:80E7 DBF0              FCOMI   ST(0)                           [needs 687]
0736:80E9 26                SEG     ES (unused)
0736:80EA DBF1              FCOMI                                   [needs 687]
0736:80EC 36                SEG     SS (unused)
0736:80ED DBF2              FCOMI   ST(2)                           [needs 687]
0736:80EF DBF3              FCOMI   ST(3)                           [needs 687]
0736:80F1 36                SEG     SS (unused)
0736:80F2 DBF4              FCOMI   ST(4)                           [needs 687]
0736:80F4 36                SEG     SS (unused)
0736:80F5 DBF5              FCOMI   ST(5)                           [needs 687]
0736:80F7 26                SEG     ES (unused)
0736:80F8 26                SEG     ES (unused)
0736:80F9 DBF6              FCOMI   ST(6)                           [needs 687]
0736:80FB 64                SEG     FS (unused)
0736:80FC DBF7              FCOMI   ST(7)                           [needs 687]
0736:80FE 64DC00            FADD    DOUBLE PTR FS:[BX+SI]
0736:8101 DC01              FADD    DOUBLE PTR [BX+DI]
0736:8103 3EDC02            FADD    DOUBLE PTR DS:[BP+SI]
0736:8106 26                SEG     ES (unused)
0736:8107 26DC03            FADD    DOUBLE PTR ES:[BP+DI]
0736:810A DC04              FADD    DOUBLE PTR [SI]
0736:810C 36DC05            FADD    DOUBLE PTR SS:[DI]
0736:810F DC06ECE7          FADD    DOUBLE PTR [E7EC]
0736:8113 DC07              FADD    DOUBLE PTR [BX]
0736:8115 36DC08            FMUL    DOUBLE PTR SS:[BX+SI]
0736:8118 3EDC09            FMUL    DOUBLE PTR DS:[BX+DI]
0736:811B 26                SEG     ES (unused)
0736:811C 26DC0A            FMUL    DOUBLE PTR ES:[BP+SI]
0736:811F DC0B              FMUL    DOUBLE PTR [BP+DI]
0736:8121 26                SEG     ES (unused)
0736:8122 26DC0C            FMUL    DOUBLE PTR ES:[SI]
0736:8125 DC0D              FMUL    DOUBLE PTR [DI]
0736:8127 3EDC0E9786        FMUL    DOUBLE PTR DS:[8697]
0736:812C 26                SEG     ES (unused)
0736:812D 26DC0F            FMUL    DOUBLE PTR ES:[BX]
0736:8130 26                SEG     ES (unused)
0736:8131 26DC10            FCOM    DOUBLE PTR ES:[BX+SI]
0736:8134 2EDC11            FCOM    DOUBLE PTR CS:[BX+DI]
0736:8137 DC12              FCOM    DOUBLE PTR [BP+SI]
0736:8139 3EDC13            FCOM    DOUBLE PTR DS:[BP+DI]
0736:813C DC14              FCOM    DOUBLE PTR [SI]
0736:813E 64DC15            FCOM    DOUBLE PTR FS:[DI]
0736:8141 DC16069A          FCOM    DOUBLE PTR [9A06]
0736:8145 26DC17            FCOM    DOUBLE PTR ES:[BX]
0736:8148 DC18              FCOMP   DOUBLE PTR [BX+SI]
0736:814A DC19              FCOMP   DOUBLE PTR [BX+DI]
0736:814C 64DC1A            FCOMP   DOUBLE PTR FS:[BP+SI]
0736:814F DC1B              FCOMP   DOUBLE PTR [BP+DI]
0736:8151 DC1C              FCOMP   DOUBLE PTR [SI]
0736:8153 3EDC1D            FCOMP   DOUBLE PTR DS:[DI]
0736:8156 3EDC1E8B2C        FCOMP   DOUBLE PTR DS:[2C8B]
0736:815B 26DC1F            FCOMP   DOUBLE PTR ES:[BX]
0736:815E 64DC20            FSUB    DOUBLE PTR FS:[BX+SI]
0736:8161 26                SEG     ES (unused)
0736:8162 26DC21            FSUB    DOUBLE PTR ES:[BX+DI]
0736:8165 DC22              FSUB    DOUBLE PTR [BP+SI]
0736:8167 36DC23            FSUB    DOUBLE PTR SS:[BP+DI]
0736:816A DC24              FSUB    DOUBLE PTR [SI]
0736:816C DC25              FSUB    DOUBLE PTR [DI]
0736:816E DC260ACE          FSUB    DOUBLE PTR [CE0A]
0736:8172 26                SEG     ES (unused)
0736:8173 26DC27            FSUB    DOUBLE PTR ES:[BX]
0736:8176 DC28              FSUBR   DOUBLE PTR [BX+SI]
0736:8178 3EDC29            FSUBR   DOUBLE PTR DS:[BX+DI]
0736:817B DC2A              FSUBR   DOUBLE PTR [BP+SI]
0736:817D DC2B              FSUBR   DOUBLE PTR [BP+DI]
0736:817F 64DC2C            FSUBR   DOUBLE PTR FS:[SI]
0736:8182 DC2D              FSUBR   DOUBLE PTR [DI]
0736:8184 36DC2E3A1D        FSUBR   DOUBLE PTR SS:[1D3A]
0736:8189 DC2F              FSUBR   DOUBLE PTR [BX]
0736:818B 26DC30            FDIV    DOUBLE PTR ES:[BX+SI]
0736:818E 26DC31            FDIV    DOUBLE PTR ES:[BX+DI]
0736:8191 DC32              FDIV    DOUBLE PTR [BP+SI]
0736:8193 DC33              FDIV    DOUBLE PTR [BP+DI]
0736:8195 26DC34            FDIV    DOUBLE PTR ES:[SI]
0736:8198 DC35              FDIV    DOUBLE PTR [DI]
0736:819A 64DC36E532        FDIV    DOUBLE PTR FS:[32E5]
0736:819F 64DC37            FDIV    DOUBLE PTR FS:[BX]
0736:81A2 64DC38            FDIVR   DOUBLE PTR FS:[BX+SI]
0736:81A5 2EDC39            FDIVR   DOUBLE PTR CS:[BX+DI]
0736:81A8 64DC3A            FDIVR   DOUBLE PTR FS:[BP+SI]
0736:81AB 3EDC3B            FDIVR   DOUBLE PTR DS:[BP+DI]
0736:81AE DC3C              FDIVR   DOUBLE PTR [SI]
0736:81B0 DC3D              FDIVR   DOUBLE PTR [DI]
0736:81B2 2EDC3ECE39        FDIVR   DOUBLE PTR CS:[39CE]
0736:81B7 36DC3F            FDIVR   DOUBLE PTR SS:[BX]
0736:81BA 36DC40C6          FADD    DOUBLE PTR SS:[BX+SI-3A]
0736:81BE DC41E0            FADD    DOUBLE PTR [BX+DI-20]
0736:81C1 2EDC425F          FADD    DOUBLE PTR CS:[BP+SI+5F]
0736:81C5 26DC4330          FADD    DOUBLE PTR ES:[BP+DI+30]
0736:81C9 2EDC4474          FADD    DOUBLE PTR CS:[SI+74]
0736:81CD DC45CE            FADD    DOUBLE PTR [DI-32]
0736:81D0 26                SEG     ES (unused)
0736:81D1 26DC4669          FADD    DOUBLE PTR ES:[BP+69]
0736:81D5 DC4778            FADD    DOUBLE PTR [BX+78]
0736:81D8 2EDC486A          FMUL    DOUBLE PTR CS:[BX+SI+6A]
0736:81DC 3EDC4968          FMUL    DOUBLE PTR DS:[BX+DI+68]
0736:81E0 DC4AB2            FMUL    DOUBLE PTR [BP+SI-4E]
0736:81E3 DC4B67            FMUL    DOUBLE PTR [BP+DI+67]
0736:81E6 DC4C03            FMUL    DOUBLE PTR [SI+03]
0736:81E9 64DC4D00          FMUL    DOUBLE PTR FS:[DI+00]
0736:81ED DC4EB6            FMUL    DOUBLE PTR [BP-4A]
0736:81F0 DC4F54            FMUL    DOUBLE PTR [BX+54]
0736:81F3 DC509D            FCOM    DOUBLE PTR [BX+SI-63]
0736:81F6 DC513F            FCOM    DOUBLE PTR [BX+DI+3F]
0736:81F9 2EDC5256          FCOM    DOUBLE PTR CS:[BP+SI+56]
0736:81FD DC53F7            FCOM    DOUBLE PTR [BP+DI-09]
0736:8200 DC5499            FCOM    DOUBLE PTR [SI-67]
0736:8203 36DC5575          FCOM    DOUBLE PTR SS:[DI+75]
0736:8207 DC5697            FCOM    DOUBLE PTR [BP-69]
0736:820A 36DC57C2          FCOM    DOUBLE PTR SS:[BX-3E]
0736:820E DC5828            FCOMP   DOUBLE PTR [BX+SI+28]
0736:8211 DC590A            FCOMP   DOUBLE PTR [BX+DI+0A]
0736:8214 DC5A19            FCOMP   DOUBLE PTR [BP+SI+19]
0736:8217 DC5B3F            FCOMP   DOUBLE PTR [BP+DI+3F]
0736:821A 2EDC5CE6          FCOMP   DOUBLE PTR CS:[SI-1A]
0736:821E DC5DC5            FCOMP   DOUBLE PTR [DI-3B]
0736:8221 DC5EE3            FCOMP   DOUBLE PTR [BP-1D]
0736:8224 36DC5F0F          FCOMP   DOUBLE PTR SS:[BX+0F]
0736:8228 36DC6064          FSUB    DOUBLE PTR SS:[BX+SI+64]
0736:822C DC616E            FSUB    DOUBLE PTR [BX+DI+6E]
0736:822F DC627B            FSUB    DOUBLE PTR [BP+SI+7B]
0736:8232 3EDC6324          FSUB    DOUBLE PTR DS:[BP+DI+24]
0736:8236 DC64CC            FSUB    DOUBLE PTR [SI-34]
0736:8239 DC65E9            FSUB    DOUBLE PTR [DI-17]
0736:823C 36DC66BD          FSUB    DOUBLE PTR SS:[BP-43]
0736:8240 26                SEG     ES (unused)
0736:8241 26DC6708          FSUB    DOUBLE PTR ES:[BX+08]
0736:8245 DC6818            FSUBR   DOUBLE PTR [BX+SI+18]
0736:8248 26                SEG     ES (unused)
0736:8249 26DC6936          FSUBR   DOUBLE PTR ES:[BX+DI+36]
0736:824D 3EDC6A90          FSUBR   DOUBLE PTR DS:[BP+SI-70]
0736:8251 64DC6B9D          FSUBR   DOUBLE PTR FS:[BP+DI-63]
0736:8255 26                SEG     ES (unused)
0736:8256 26DC6CD3          FSUBR   DOUBLE PTR ES:[SI-2D]
0736:825A 26                SEG     ES (unused)
0736:825B 26DC6D4C          FSUBR   DOUBLE PTR ES:[DI+4C]
0736:825F DC6E91            FSUBR   DOUBLE PTR [BP-6F]
0736:8262 DC6F3B            FSUBR   DOUBLE PTR [BX+3B]
0736:8265 3EDC7037          FDIV    DOUBLE PTR DS:[BX+SI+37]
0736:8269 DC719B            FDIV    DOUBLE PTR [BX+DI-65]
0736:826C 36DC721B          FDIV    DOUBLE PTR SS:[BP+SI+1B]
0736:8270 36DC73C7          FDIV    DOUBLE PTR SS:[BP+DI-39]
0736:8274 DC74AF            FDIV    DOUBLE PTR [SI-51]
0736:8277 36DC7569          FDIV    DOUBLE PTR SS:[DI+69]
0736:827B 64DC760E          FDIV    DOUBLE PTR FS:[BP+0E]
0736:827F DC778A            FDIV    DOUBLE PTR [BX-76]
0736:8282 DC7846            FDIVR   DOUBLE PTR [BX+SI+46]
0736:8285 DC7934            FDIVR   DOUBLE PTR [BX+DI+34]
0736:8288 DC7A6D            FDIVR   DOUBLE PTR [BP+SI+6D]
0736:828B 64DC7B06          FDIVR   DOUBLE PTR FS:[BP+DI+06]
0736:828F DC7C4E            FDIVR   DOUBLE PTR [SI+4E]
0736:8292 64DC7D05          FDIVR   DOUBLE PTR FS:[DI+05]
0736:8296 3EDC7EFB          FDIVR   DOUBLE PTR DS:[BP-05]
0736:829A DC7FC5            FDIVR   DOUBLE PTR [BX-3B]
0736:829D DC80A143          FADD    DOUBLE PTR [BX+SI+43A1]
0736:82A1 DC8150D9          FADD    DOUBLE PTR [BX+DI+D950]
0736:82A5 2EDC82A03F        FADD    DOUBLE PTR CS:[BP+SI+3FA0]
0736:82AA 2EDC837293        FADD    DOUBLE PTR CS:[BP+DI+9372]
0736:82AF DC8480E8          FADD    DOUBLE PTR [SI+E880]
0736:82B3 26                SEG     ES (unused)
0736:82B4 26DC856DAB        FADD    DOUBLE PTR ES:[DI+AB6D]
0736:82B9 DC860A00          FADD    DOUBLE PTR [BP+000A]
0736:82BD DC874DD9          FADD    DOUBLE PTR [BX+D94D]
0736:82C1 DC8825F0          FMUL    DOUBLE PTR [BX+SI+F025]
0736:82C5 DC89B0AA          FMUL    DOUBLE PTR [BX+DI+AAB0]
0736:82C9 26DC8A4022        FMUL    DOUBLE PTR ES:[BP+SI+2240]
0736:82CE 36DC8B7672        FMUL    DOUBLE PTR SS:[BP+DI+7276]
0736:82D3 DC8CC48B          FMUL    DOUBLE PTR [SI+8BC4]
0736:82D7 26DC8D66B6        FMUL    DOUBLE PTR ES:[DI+B666]
0736:82DC DC8EA152          FMUL    DOUBLE PTR [BP+52A1]
0736:82E0 DC8F1DD0          FMUL    DOUBLE PTR [BX+D01D]
0736:82E4 DC90BF27          FCOM    DOUBLE PTR [BX+SI+27BF]
0736:82E8 DC918BA2          FCOM    DOUBLE PTR [BX+DI+A28B]
0736:82EC DC92F368          FCOM    DOUBLE PTR [BP+SI+68F3]
0736:82F0 DC9321FA          FCOM    DOUBLE PTR [BP+DI+FA21]
0736:82F4 26                SEG     ES (unused)
0736:82F5 26DC948F79        FCOM    DOUBLE PTR ES:[SI+798F]
0736:82FA DC957DD1          FCOM    DOUBLE PTR [DI+D17D]
0736:82FE DC967D4A          FCOM    DOUBLE PTR [BP+4A7D]
0736:8302 DC971A55          FCOM    DOUBLE PTR [BX+551A]
0736:8306 DC98C957          FCOMP   DOUBLE PTR [BX+SI+57C9]
0736:830A 3EDC996F1C        FCOMP   DOUBLE PTR DS:[BX+DI+1C6F]
0736:830F 3EDC9A68DB        FCOMP   DOUBLE PTR DS:[BP+SI+DB68]
0736:8314 DC9BB3FA          FCOMP   DOUBLE PTR [BP+DI+FAB3]
0736:8318 DC9C1DA2          FCOMP   DOUBLE PTR [SI+A21D]
0736:831C DC9DF698          FCOMP   DOUBLE PTR [DI+98F6]
0736:8320 DC9ECE15          FCOMP   DOUBLE PTR [BP+15CE]
0736:8324 DC9FDC45          FCOMP   DOUBLE PTR [BX+45DC]
0736:8328 36DCA0A43B        FSUB    DOUBLE PTR SS:[BX+SI+3BA4]
0736:832D DCA1AA82          FSUB    DOUBLE PTR [BX+DI+82AA]
0736:8331 26                SEG     ES (unused)
0736:8332 26DCA2CEC2        FSUB    DOUBLE PTR ES:[BP+SI+C2CE]
0736:8337 64DCA3AD81        FSUB    DOUBLE PTR FS:[BP+DI+81AD]
0736:833C DCA440B3          FSUB    DOUBLE PTR [SI+B340]
0736:8340 DCA50EE3          FSUB    DOUBLE PTR [DI+E30E]
0736:8344 DCA6E0A9          FSUB    DOUBLE PTR [BP+A9E0]
0736:8348 DCA7C093          FSUB    DOUBLE PTR [BX+93C0]
0736:834C 64DCA8BCAF        FSUBR   DOUBLE PTR FS:[BX+SI+AFBC]
0736:8351 DCA9046C          FSUBR   DOUBLE PTR [BX+DI+6C04]
0736:8355 36DCAAB723        FSUBR   DOUBLE PTR SS:[BP+SI+23B7]
0736:835A 3EDCABD0E4        FSUBR   DOUBLE PTR DS:[BP+DI+E4D0]
0736:835F DCAC84D3          FSUBR   DOUBLE PTR [SI+D384]
0736:8363 DCAD97A7          FSUBR   DOUBLE PTR [DI+A797]
0736:8367 2EDCAE342F        FSUBR   DOUBLE PTR CS:[BP+2F34]
0736:836C DCAF87D5          FSUBR   DOUBLE PTR [BX+D587]
0736:8370 26                SEG     ES (unused)
0736:8371 26DCB0F7ED        FDIV    DOUBLE PTR ES:[BX+SI+EDF7]
0736:8376 3EDCB1C4CE        FDIV    DOUBLE PTR DS:[BX+DI+CEC4]
0736:837B 3EDCB2D167        FDIV    DOUBLE PTR DS:[BP+SI+67D1]
0736:8380 26                SEG     ES (unused)
0736:8381 26DCB3E7DD        FDIV    DOUBLE PTR ES:[BP+DI+DDE7]
0736:8386 3EDCB4B8E5        FDIV    DOUBLE PTR DS:[SI+E5B8]
0736:838B DCB5C9C3          FDIV    DOUBLE PTR [DI+C3C9]
0736:838F DCB66765          FDIV    DOUBLE PTR [BP+6567]
0736:8393 2EDCB7CD5F        FDIV    DOUBLE PTR CS:[BX+5FCD]
0736:8398 36DCB832EE        FDIVR   DOUBLE PTR SS:[BX+SI+EE32]
0736:839D DCB9BA75          FDIVR   DOUBLE PTR [BX+DI+75BA]
0736:83A1 36DCBA80F2        FDIVR   DOUBLE PTR SS:[BP+SI+F280]
0736:83A6 26DCBB0C8C        FDIVR   DOUBLE PTR ES:[BP+DI+8C0C]
0736:83AB 26                SEG     ES (unused)
0736:83AC 26DCBC69C6        FDIVR   DOUBLE PTR ES:[SI+C669]
0736:83B1 2EDCBDF891        FDIVR   DOUBLE PTR CS:[DI+91F8]
0736:83B6 26                SEG     ES (unused)
0736:83B7 26DCBE9DB6        FDIVR   DOUBLE PTR ES:[BP+B69D]
0736:83BC 3EDCBF06FA        FDIVR   DOUBLE PTR DS:[BX+FA06]
0736:83C1 2E                SEG     CS (unused)
0736:83C2 DCC0              FADD    ST(0),ST
0736:83C4 3E                SEG     DS (unused)
0736:83C5 DCC1              FADD    ST(1),ST
0736:83C7 2E                SEG     CS (unused)
0736:83C8 DCC2              FADD    ST(2),ST
0736:83CA 64                SEG     FS (unused)
0736:83CB DCC3              FADD    ST(3),ST
0736:83CD 36                SEG     SS (unused)
0736:83CE DCC4              FADD    ST(4),ST
0736:83D0 26                SEG     ES (unused)
0736:83D1 DCC5              FADD    ST(5),ST
0736:83D3 3E                SEG     DS (unused)
0736:83D4 DCC6              FADD    ST(6),ST
0736:83D6 36                SEG     SS (unused)
0736:83D7 DCC7              FADD    ST(7),ST
0736:83D9 DCC8              FMUL    ST(0),ST
0736:83DB DCC9              FMUL    ST(1),ST
0736:83DD 26                SEG     ES (unused)
0736:83DE 26                SEG     ES (unused)
0736:83DF DCCA              FMUL    ST(2),ST
0736:83E1 DCCB              FMUL    ST(3),ST
0736:83E3 26                SEG     ES (unused)
0736:83E4 26                SEG     ES (unused)
0736:83E5 DCCC              FMUL    ST(4),ST
0736:83E7 26                SEG     ES (unused)
0736:83E8 DCCD              FMUL    ST(5),ST
0736:83EA DCCE              FMUL    ST(6),ST
0736:83EC DCCF              FMUL    ST(7),ST
0736:83EE DCE0              FSUBR   ST(0),ST
0736:83F0 64                SEG     FS (unused)
0736:83F1 DCE1              FSUBR   ST(1),ST
0736:83F3 DCE2              FSUBR   ST(2),ST
0736:83F5 3E                SEG     DS (unused)
0736:83F6 DCE3              FSUBR   ST(3),ST
0736:83F8 26                SEG     ES (unused)
0736:83F9 26                SEG     ES (unused)
0736:83FA DCE4              FSUBR   ST(4),ST
0736:83FC DCE5              FSUBR   ST(5),ST
0736:83FE DCE6              FSUBR   ST(6),ST
0736:8400 64                SEG     FS (unused)
0736:8401 DCE7              FSUBR   ST(7),ST
0736:8403 DCE8              FSUB    ST(0),ST
0736:8405 64                SEG     FS (unused)
0736:8406 DCE9              FSUB    ST(1),ST
0736:8408 DCEA              FSUB    ST(2),ST
0736:840A 26                SEG     ES (unused)
0736:840B 26                SEG     ES (unused)
0736:840C DCEB              FSUB    ST(3),ST
0736:840E 3E                SEG     DS (unused)
0736:840F DCEC              FSUB    ST(4),ST
0736:8411 DCED              FSUB    ST(5),ST
0736:8413 DCEE              FSUB    ST(6),ST
0736:8415 DCEF              FSUB    ST(7),ST
0736:8417 DCF0              FDIVR   ST(0),ST
0736:8419 26                SEG     ES (unused)
0736:841A 26                SEG     ES (unused)
0736:841B DCF1              FDIVR   ST(1),ST
0736:841D DCF2              FDIVR   ST(2),ST
0736:841F DCF3              FDIVR   ST(3),ST
0736:8421 36                SEG     SS (unused)
0736:8422 DCF4              FDIVR   ST(4),ST
0736:8424 DCF5              FDIVR   ST(5),ST
0736:8426 26                SEG     ES (unused)
0736:8427 DCF6              FDIVR   ST(6),ST
0736:8429 3E                SEG     DS (unused)
0736:842A DCF7              FDIVR   ST(7),ST
0736:842C 2E                SEG     CS (unused)
0736:842D DCF8              FDIV    ST(0),ST
0736:842F 26                SEG     ES (unused)
0736:8430 26                SEG     ES (unused)
0736:8431 DCF9              FDIV    ST(1),ST
0736:8433 DCFA              FDIV    ST(2),ST
0736:8435 DCFB              FDIV    ST(3),ST
0736:8437 26                SEG     ES (unused)
0736:8438 DCFC              FDIV    ST(4),ST
0736:843A 3E                SEG     DS (unused)
0736:843B DCFD              FDIV    ST(5),ST
0736:843D 26                SEG     ES (unused)
0736:843E DCFE              FDIV    ST(6),ST
0736:8440 64                SEG     FS (unused)
0736:8441 DCFF              FDIV    ST(7),ST
0736:8443 DD00              FLD     DOUBLE PTR [BX+SI]
0736:8445 DD01              FLD     DOUBLE PTR [BX+DI]
0736:8447 64DD02            FLD     DOUBLE PTR FS:[BP+SI]
0736:844A DD03              FLD     DOUBLE PTR [BP+DI]
0736:844C DD04              FLD     DOUBLE PTR [SI]
0736:844E 26                SEG     ES (unused)
0736:844F 26DD05            FLD     DOUBLE PTR ES:[DI]
0736:8452 64DD069A64        FLD     DOUBLE PTR FS:[649A]
0736:8457 36DD07            FLD     DOUBLE PTR SS:[BX]
0736:845A DD10              FST     DOUBLE PTR [BX+SI]
0736:845C 36DD11            FST     DOUBLE PTR SS:[BX+DI]
0736:845F 2EDD12            FST     DOUBLE PTR CS:[BP+SI]
0736:8462 DD13              FST     DOUBLE PTR [BP+DI]
0736:8464 DD14              FST     DOUBLE PTR [SI]
0736:8466 DD15              FST     DOUBLE PTR [DI]
0736:8468 DD160AD5          FST     DOUBLE PTR [D50A]
0736:846C 2EDD17            FST     DOUBLE PTR CS:[BX]
0736:846F DD18              FSTP    DOUBLE PTR [BX+SI]
0736:8471 26                SEG     ES (unused)
0736:8472 26DD19            FSTP    DOUBLE PTR ES:[BX+DI]
0736:8475 DD1A              FSTP    DOUBLE PTR [BP+SI]
0736:8477 DD1B              FSTP    DOUBLE PTR [BP+DI]
0736:8479 DD1C              FSTP    DOUBLE PTR [SI]
0736:847B 64DD1D            FSTP    DOUBLE PTR FS:[DI]
0736:847E 64DD1EEA79        FSTP    DOUBLE PTR FS:[79EA]
0736:8483 DD1F              FSTP    DOUBLE PTR [BX]
0736:8485 DD20              FRSTOR  [BX+SI]
0736:8487 3EDD21            FRSTOR  DS:[BX+DI]
0736:848A 3EDD22            FRSTOR  DS:[BP+SI]
0736:848D 36DD23            FRSTOR  SS:[BP+DI]
0736:8490 2EDD24            FRSTOR  CS:[SI]
0736:8493 2EDD25            FRSTOR  CS:[DI]
0736:8496 3EDD260948        FRSTOR  DS:[4809]
0736:849B 2EDD27            FRSTOR  CS:[BX]
0736:849E 26                SEG     ES (unused)
0736:849F 26DD30            FNSAVE  ES:[BX+SI]
0736:84A2 DD31              FNSAVE  [BX+DI]
0736:84A4 DD32              FNSAVE  [BP+SI]
0736:84A6 26                SEG     ES (unused)
0736:84A7 26DD33            FNSAVE  ES:[BP+DI]
0736:84AA 3EDD34            FNSAVE  DS:[SI]
0736:84AD 3EDD35            FNSAVE  DS:[DI]
0736:84B0 DD3637DB          FNSAVE  [DB37]
0736:84B4 26DD37            FNSAVE  ES:[BX]
0736:84B7 DD38              FNSTSW  WORD PTR [BX+SI]
0736:84B9 DD39              FNSTSW  WORD PTR [BX+DI]
0736:84BB 26DD3A            FNSTSW  WORD PTR ES:[BP+SI]
0736:84BE 26                SEG     ES (unused)
0736:84BF 26DD3B            FNSTSW  WORD PTR ES:[BP+DI]
0736:84C2 36DD3C            FNSTSW  WORD PTR SS:[SI]
0736:84C5 26DD3D            FNSTSW  WORD PTR ES:[DI]
0736:84C8 DD3E86B7          FNSTSW  WORD PTR [B786]
0736:84CC 36DD3F            FNSTSW  WORD PTR SS:[BX]
0736:84CF 64DD4057          FLD     DOUBLE PTR FS:[BX+SI+57]
0736:84D3 26                SEG     ES (unused)
0736:84D4 26DD41BC          FLD     DOUBLE PTR ES:[BX+DI-44]
0736:84D8 DD425D            FLD     DOUBLE PTR [BP+SI+5D]
0736:84DB 26DD4319          FLD     DOUBLE PTR ES:[BP+DI+19]
0736:84DF DD44C0            FLD     DOUBLE PTR [SI-40]
0736:84E2 26DD45E3          FLD     DOUBLE PTR ES:[DI-1D]
0736:84E6 26                SEG     ES (unused)
0736:84E7 26DD463B          FLD     DOUBLE PTR ES:[BP+3B]
0736:84EB 36DD47B6          FLD     DOUBLE PTR SS:[BX-4A]
0736:84EF 26DD502B          FST     DOUBLE PTR ES:[BX+SI+2B]
0736:84F3 26                SEG     ES (unused)
0736:84F4 26DD51C5          FST     DOUBLE PTR ES:[BX+DI-3B]
0736:84F8 26DD52F0          FST     DOUBLE PTR ES:[BP+SI-10]
0736:84FC 2EDD53B4          FST     DOUBLE PTR CS:[BP+DI-4C]
0736:8500 DD540F            FST     DOUBLE PTR [SI+0F]
0736:8503 DD55E6            FST     DOUBLE PTR [DI-1A]
0736:8506 64DD5640          FST     DOUBLE PTR FS:[BP+40]
0736:850A DD5706            FST     DOUBLE PTR [BX+06]
0736:850D DD5847            FSTP    DOUBLE PTR [BX+SI+47]
0736:8510 26                SEG     ES (unused)
0736:8511 26DD594E          FSTP    DOUBLE PTR ES:[BX+DI+4E]
0736:8515 DD5A88            FSTP    DOUBLE PTR [BP+SI-78]
0736:8518 DD5B30            FSTP    DOUBLE PTR [BP+DI+30]
0736:851B DD5CAE            FSTP    DOUBLE PTR [SI-52]
0736:851E DD5D45            FSTP    DOUBLE PTR [DI+45]
0736:8521 DD5E5F            FSTP    DOUBLE PTR [BP+5F]
0736:8524 DD5F2B            FSTP    DOUBLE PTR [BX+2B]
0736:8527 DD600C            FRSTOR  [BX+SI+0C]
0736:852A 2EDD6173          FRSTOR  CS:[BX+DI+73]
0736:852E 64DD6286          FRSTOR  FS:[BP+SI-7A]
0736:8532 DD633E            FRSTOR  [BP+DI+3E]
0736:8535 3EDD649D          FRSTOR  DS:[SI-63]
0736:8539 64DD6542          FRSTOR  FS:[DI+42]
0736:853D DD6619            FRSTOR  [BP+19]
0736:8540 36DD6756          FRSTOR  SS:[BX+56]
0736:8544 3EDD701D          FNSAVE  DS:[BX+SI+1D]
0736:8548 DD7125            FNSAVE  [BX+DI+25]
0736:854B 2EDD72DD          FNSAVE  CS:[BP+SI-23]
0736:854F 2EDD73BB          FNSAVE  CS:[BP+DI-45]
0736:8553 64DD74FE          FNSAVE  FS:[SI-02]
0736:8557 64DD7510          FNSAVE  FS:[DI+10]
0736:855B 3EDD76D3          FNSAVE  DS:[BP-2D]
0736:855F 3EDD77D3          FNSAVE  DS:[BX-2D]
0736:8563 DD7823            FNSTSW  WORD PTR [BX+SI+23]
0736:8566 DD794D            FNSTSW  WORD PTR [BX+DI+4D]
0736:8569 26                SEG     ES (unused)
0736:856A 26DD7A6A          FNSTSW  WORD PTR ES:[BP+SI+6A]
0736:856E DD7B0E            FNSTSW  WORD PTR [BP+DI+0E]
0736:8571 DD7C3E            FNSTSW  WORD PTR [SI+3E]
0736:8574 2EDD7DD1          FNSTSW  WORD PTR CS:[DI-2F]
0736:8578 DD7EBD            FNSTSW  WORD PTR [BP-43]
0736:857B 3EDD7FAC          FNSTSW  WORD PTR DS:[BX-54]
0736:857F 3EDD808488        FLD     DOUBLE PTR DS:[BX+SI+8884]
0736:8584 DD81DAB7          FLD     DOUBLE PTR [BX+DI+B7DA]
0736:8588 26DD82DF90        FLD     DOUBLE PTR ES:[BP+SI+90DF]
0736:858D 3EDD830147        FLD     DOUBLE PTR DS:[BP+DI+4701]
0736:8592 3EDD8450DC        FLD     DOUBLE PTR DS:[SI+DC50]
0736:8597 2EDD85F338        FLD     DOUBLE PTR CS:[DI+38F3]
0736:859C 26                SEG     ES (unused)
0736:859D 26DD86A453        FLD     DOUBLE PTR ES:[BP+53A4]
0736:85A2 26                SEG     ES (unused)
0736:85A3 26DD879BAA        FLD     DOUBLE PTR ES:[BX+AA9B]
0736:85A8 DD90E1DF          FST     DOUBLE PTR [BX+SI+DFE1]
0736:85AC 36DD912633        FST     DOUBLE PTR SS:[BX+DI+3326]
0736:85B1 64DD9226BC        FST     DOUBLE PTR FS:[BP+SI+BC26]
0736:85B6 26DD93FE45        FST     DOUBLE PTR ES:[BP+DI+45FE]
0736:85BB 64DD94689D        FST     DOUBLE PTR FS:[SI+9D68]
0736:85C0 DD956ABF          FST     DOUBLE PTR [DI+BF6A]
0736:85C4 DD96581A          FST     DOUBLE PTR [BP+1A58]
0736:85C8 64DD97DCA8        FST     DOUBLE PTR FS:[BX+A8DC]
0736:85CD DD98114F          FSTP    DOUBLE PTR [BX+SI+4F11]
0736:85D1 26                SEG     ES (unused)
0736:85D2 26DD99FA27        FSTP    DOUBLE PTR ES:[BX+DI+27FA]
0736:85D7 3EDD9A583F        FSTP    DOUBLE PTR DS:[BP+SI+3F58]
0736:85DC 64DD9BD8D4        FSTP    DOUBLE PTR FS:[BP+DI+D4D8]
0736:85E1 64DD9CF43A        FSTP    DOUBLE PTR FS:[SI+3AF4]
0736:85E6 26DD9D753A        FSTP    DOUBLE PTR ES:[DI+3A75]
0736:85EB DD9E93CE          FSTP    DOUBLE PTR [BP+CE93]
0736:85EF 64DD9F6BA5        FSTP    DOUBLE PTR FS:[BX+A56B]
0736:85F4 DDA0B31B          FRSTOR  [BX+SI+1BB3]
0736:85F8 DDA17688          FRSTOR  [BX+DI+8876]
0736:85FC 2EDDA21A91        FRSTOR  CS:[BP+SI+911A]
0736:8601 2EDDA32FBA        FRSTOR  CS:[BP+DI+BA2F]
0736:8606 DDA4AE2D          FRSTOR  [SI+2DAE]
0736:860A DDA551D8          FRSTOR  [DI+D851]
0736:860E DDA66E9C          FRSTOR  [BP+9C6E]
0736:8612 DDA77F8D          FRSTOR  [BX+8D7F]
0736:8616 DDB0BF0F          FNSAVE  [BX+SI+0FBF]
0736:861A 3EDDB1EC62        FNSAVE  DS:[BX+DI+62EC]
0736:861F DDB2DD96          FNSAVE  [BP+SI+96DD]
0736:8623 26DDB36352        FNSAVE  ES:[BP+DI+5263]
0736:8628 DDB4D324          FNSAVE  [SI+24D3]
0736:862C 64DDB5EBA1        FNSAVE  FS:[DI+A1EB]
0736:8631 3EDDB68065        FNSAVE  DS:[BP+6580]
0736:8636 26DDB7D7AB        FNSAVE  ES:[BX+ABD7]
0736:863B DDB88EA5          FNSTSW  WORD PTR [BX+SI+A58E]
0736:863F DDB9ABFB          FNSTSW  WORD PTR [BX+DI+FBAB]
0736:8643 26                SEG     ES (unused)
0736:8644 26DDBA63A6        FNSTSW  WORD PTR ES:[BP+SI+A663]
0736:8649 26DDBB4DCC        FNSTSW  WORD PTR ES:[BP+DI+CC4D]
0736:864E DDBC9183          FNSTSW  WORD PTR [SI+8391]
0736:8652 26                SEG     ES (unused)
0736:8653 26DDBD41E3        FNSTSW  WORD PTR ES:[DI+E341]
0736:8658 DDBE37BE          FNSTSW  WORD PTR [BP+BE37]
0736:865C DDBF76E4          FNSTSW  WORD PTR [BX+E476]
0736:8660 DDC0              FFREE   ST(0)
0736:8662 DDC1              FFREE   ST(1)
0736:8664 36                SEG     SS (unused)
0736:8665 DDC2              FFREE   ST(2)
0736:8667 26                SEG     ES (unused)
0736:8668 DDC3              FFREE   ST(3)
0736:866A 64                SEG     FS (unused)
0736:866B DDC4              FFREE   ST(4)
0736:866D 26                SEG     ES (unused)
0736:866E DDC5              FFREE   ST(5)
0736:8670 36                SEG     SS (unused)
0736:8671 DDC6              FFREE   ST(6)
0736:8673 26                SEG     ES (unused)
0736:8674 26                SEG     ES (unused)
0736:8675 DDC7              FFREE   ST(7)
0736:8677 3E                SEG     DS (unused)
0736:8678 DDD0              FST     ST(0)
0736:867A 3E                SEG     DS (unused)
0736:867B DDD1              FST     ST(1)
0736:867D 26                SEG     ES (unused)
0736:867E 26                SEG     ES (unused)
0736:867F DDD2              FST     ST(2)
0736:8681 DDD3              FST     ST(3)
0736:8683 DDD4              FST     ST(4)
0736:8685 DDD5              FST     ST(5)
0736:8687 3E                SEG     DS (unused)
0736:8688 DDD6              FST     ST(6)
0736:868A DDD7              FST     ST(7)
0736:868C DDD8              FSTP    ST(0)
0736:868E DDD9              FSTP    ST(1)
0736:8690 DDDA              FSTP    ST(2)
0736:8692 26                SEG     ES (unused)
0736:8693 DDDB              FSTP    ST(3)
0736:8695 DDDC              FSTP    ST(4)
0736:8697 26                SEG     ES (unused)
0736:8698 DDDD              FSTP    ST(5)
0736:869A 2E                SEG     CS (unused)
0736:869B DDDE              FSTP    ST(6)
0736:869D DDDF              FSTP    ST(7)
0736:869F 26                SEG     ES (unused)
0736:86A0 26                SEG     ES (unused)
0736:86A1 DDE0              FUCOM   ST(0)
0736:86A3 36                SEG     SS (unused)
0736:86A4 DDE1              FUCOM
0736:86A6 36                SEG     SS (unused)
0736:86A7 DDE2              FUCOM   ST(2)
0736:86A9 DDE3              FUCOM   ST(3)
0736:86AB DDE4              FUCOM   ST(4)
0736:86AD DDE5              FUCOM   ST(5)
0736:86AF 26                SEG     ES (unused)
0736:86B0 DDE6              FUCOM   ST(6)
0736:86B2 DDE7              FUCOM   ST(7)
0736:86B4 2E                SEG     CS (unused)
0736:86B5 DDE8              FUCOMP  ST(0)
0736:86B7 64                SEG     FS (unused)
0736:86B8 DDE9              FUCOMP
0736:86BA 36                SEG     SS (unused)
0736:86BB DDEA              FUCOMP  ST(2)
0736:86BD DDEB              FUCOMP  ST(3)
0736:86BF 26                SEG     ES (unused)
0736:86C0 26                SEG     ES (unused)
0736:86C1 DDEC              FUCOMP  ST(4)
0736:86C3 3E                SEG     DS (unused)
0736:86C4 DDED              FUCOMP  ST(5)
0736:86C6 DDEE              FUCOMP  ST(6)
0736:86C8 36                SEG     SS (unused)
0736:86C9 DDEF              FUCOMP  ST(7)
0736:86CB DE00              FIADD   WORD PTR [BX+SI]
0736:86CD 26                SEG     ES (unused)
0736:86CE 26DE01            FIADD   WORD PTR ES:[BX+DI]
0736:86D1 DE02              FIADD   WORD PTR [BP+SI]
0736:86D3 26DE03            FIADD   WORD PTR ES:[BP+DI]
0736:86D6 DE04              FIADD   WORD PTR [SI]
0736:86D8 DE05              FIADD   WORD PTR [DI]
0736:86DA DE06A161          FIADD   WORD PTR [61A1]
0736:86DE 36DE07            FIADD   WORD PTR SS:[BX]
0736:86E1 26DE08            FIMUL   WORD PTR ES:[BX+SI]
0736:86E4 DE09              FIMUL   WORD PTR [BX+DI]
0736:86E6 64DE0A            FIMUL   WORD PTR FS:[BP+SI]
0736:86E9 DE0B              FIMUL   WORD PTR [BP+DI]
0736:86EB DE0C              FIMUL   WORD PTR [SI]
0736:86ED DE0D              FIMUL   WORD PTR [DI]
0736:86EF DE0E8863          FIMUL   WORD PTR [6388]
0736:86F3 DE0F              FIMUL   WORD PTR [BX]
0736:86F5 26DE10            FICOM   WORD PTR ES:[BX+SI]
0736:86F8 2EDE11            FICOM   WORD PTR CS:[BX+DI]
0736:86FB 3EDE12            FICOM   WORD PTR DS:[BP+SI]
0736:86FE DE13              FICOM   WORD PTR [BP+DI]
0736:8700 DE14              FICOM   WORD PTR [SI]
0736:8702 3EDE15            FICOM   WORD PTR DS:[DI]
0736:8705 DE164AB7          FICOM   WORD PTR [B74A]
0736:8709 DE17              FICOM   WORD PTR [BX]
0736:870B 26DE18            FICOMP  WORD PTR ES:[BX+SI]
0736:870E DE19              FICOMP  WORD PTR [BX+DI]
0736:8710 36DE1A            FICOMP  WORD PTR SS:[BP+SI]
0736:8713 DE1B              FICOMP  WORD PTR [BP+DI]
0736:8715 2EDE1C            FICOMP  WORD PTR CS:[SI]
0736:8718 2EDE1D            FICOMP  WORD PTR CS:[DI]
0736:871B 26                SEG     ES (unused)
0736:871C 26DE1EDB27        FICOMP  WORD PTR ES:[27DB]
0736:8721 DE1F              FICOMP  WORD PTR [BX]
0736:8723 DE20              FISUB   WORD PTR [BX+SI]
0736:8725 3EDE21            FISUB   WORD PTR DS:[BX+DI]
0736:8728 DE22              FISUB   WORD PTR [BP+SI]
0736:872A DE23              FISUB   WORD PTR [BP+DI]
0736:872C 26DE24            FISUB   WORD PTR ES:[SI]
0736:872F 2EDE25            FISUB   WORD PTR CS:[DI]
0736:8732 DE26E6ED          FISUB   WORD PTR [EDE6]
0736:8736 DE27              FISUB   WORD PTR [BX]
0736:8738 DE28              FISUBR  WORD PTR [BX+SI]
0736:873A 36DE29            FISUBR  WORD PTR SS:[BX+DI]
0736:873D 36DE2A            FISUBR  WORD PTR SS:[BP+SI]
0736:8740 DE2B              FISUBR  WORD PTR [BP+DI]
0736:8742 DE2C              FISUBR  WORD PTR [SI]
0736:8744 DE2D              FISUBR  WORD PTR [DI]
0736:8746 DE2ED71C          FISUBR  WORD PTR [1CD7]
0736:874A DE2F              FISUBR  WORD PTR [BX]
0736:874C DE30              FIDIV   WORD PTR [BX+SI]
0736:874E DE31              FIDIV   WORD PTR [BX+DI]
0736:8750 3EDE32            FIDIV   WORD PTR DS:[BP+SI]
0736:8753 26                SEG     ES (unused)
0736:8754 26DE33            FIDIV   WORD PTR ES:[BP+DI]
0736:8757 DE34              FIDIV   WORD PTR [SI]
0736:8759 DE35              FIDIV   WORD PTR [DI]
0736:875B DE361396          FIDIV   WORD PTR [9613]
0736:875F 64DE37            FIDIV   WORD PTR FS:[BX]
0736:8762 26DE38            FIDIVR  WORD PTR ES:[BX+SI]
0736:8765 26                SEG     ES (unused)
0736:8766 26DE39            FIDIVR  WORD PTR ES:[BX+DI]
0736:8769 DE3A              FIDIVR  WORD PTR [BP+SI]
0736:876B 36DE3B            FIDIVR  WORD PTR SS:[BP+DI]
0736:876E 26DE3C            FIDIVR  WORD PTR ES:[SI]
0736:8771 3EDE3D            FIDIVR  WORD PTR DS:[DI]
0736:8774 DE3EAC11          FIDIVR  WORD PTR [11AC]
0736:8778 26DE3F            FIDIVR  WORD PTR ES:[BX]
0736:877B DE40F4            FIADD   WORD PTR [BX+SI-0C]
0736:877E DE412E            FIADD   WORD PTR [BX+DI+2E]
0736:8781 DE423C            FIADD   WORD PTR [BP+SI+3C]
0736:8784 DE437D            FIADD   WORD PTR [BP+DI+7D]
0736:8787 DE447F            FIADD   WORD PTR [SI+7F]
0736:878A 26DE45E8          FIADD   WORD PTR ES:[DI-18]
0736:878E DE4671            FIADD   WORD PTR [BP+71]
0736:8791 DE471D            FIADD   WORD PTR [BX+1D]
0736:8794 36DE489A          FIMUL   WORD PTR SS:[BX+SI-66]
0736:8798 DE49F9            FIMUL   WORD PTR [BX+DI-07]
0736:879B 26DE4A49          FIMUL   WORD PTR ES:[BP+SI+49]
0736:879F 3EDE4B88          FIMUL   WORD PTR DS:[BP+DI-78]
0736:87A3 26DE4C7D          FIMUL   WORD PTR ES:[SI+7D]
0736:87A7 26DE4DC8          FIMUL   WORD PTR ES:[DI-38]
0736:87AB DE4ED8            FIMUL   WORD PTR [BP-28]
0736:87AE DE4FB4            FIMUL   WORD PTR [BX-4C]
0736:87B1 DE50B9            FICOM   WORD PTR [BX+SI-47]
0736:87B4 26DE51A7          FICOM   WORD PTR ES:[BX+DI-59]
0736:87B8 DE52F1            FICOM   WORD PTR [BP+SI-0F]
0736:87BB DE5372            FICOM   WORD PTR [BP+DI+72]
0736:87BE 36DE5411          FICOM   WORD PTR SS:[SI+11]
0736:87C2 DE5534            FICOM   WORD PTR [DI+34]
0736:87C5 DE5664            FICOM   WORD PTR [BP+64]
0736:87C8 DE57DD            FICOM   WORD PTR [BX-23]
0736:87CB DE58C2            FICOMP  WORD PTR [BX+SI-3E]
0736:87CE DE5992            FICOMP  WORD PTR [BX+DI-6E]
0736:87D1 26                SEG     ES (unused)
0736:87D2 26DE5A5D          FICOMP  WORD PTR ES:[BP+SI+5D]
0736:87D6 DE5B2E            FICOMP  WORD PTR [BP+DI+2E]
0736:87D9 DE5C6A            FICOMP  WORD PTR [SI+6A]
0736:87DC 3EDE5DB2          FICOMP  WORD PTR DS:[DI-4E]
0736:87E0 26                SEG     ES (unused)
0736:87E1 26DE5E35          FICOMP  WORD PTR ES:[BP+35]
0736:87E5 DE5F40            FICOMP  WORD PTR [BX+40]
0736:87E8 26DE6046          FISUB   WORD PTR ES:[BX+SI+46]
0736:87EC 36DE614F          FISUB   WORD PTR SS:[BX+DI+4F]
0736:87F0 26                SEG     ES (unused)
0736:87F1 26DE6261          FISUB   WORD PTR ES:[BP+SI+61]
0736:87F5 26                SEG     ES (unused)
0736:87F6 26DE634D          FISUB   WORD PTR ES:[BP+DI+4D]
0736:87FA 36DE64B8          FISUB   WORD PTR SS:[SI-48]
0736:87FE DE65BA            FISUB   WORD PTR [DI-46]
0736:8801 DE6638            FISUB   WORD PTR [BP+38]
0736:8804 64DE6754          FISUB   WORD PTR FS:[BX+54]
0736:8808 DE6835            FISUBR  WORD PTR [BX+SI+35]
0736:880B DE6906            FISUBR  WORD PTR [BX+DI+06]
0736:880E DE6A43            FISUBR  WORD PTR [BP+SI+43]
0736:8811 36DE6B2C          FISUBR  WORD PTR SS:[BP+DI+2C]
0736:8815 DE6C39            FISUBR  WORD PTR [SI+39]
0736:8818 DE6D3B            FISUBR  WORD PTR [DI+3B]
0736:881B 26DE6E65          FISUBR  WORD PTR ES:[BP+65]
0736:881F 3EDE6FCC          FISUBR  WORD PTR DS:[BX-34]
0736:8823 64DE7032          FIDIV   WORD PTR FS:[BX+SI+32]
0736:8827 DE7142            FIDIV   WORD PTR [BX+DI+42]
0736:882A DE72F7            FIDIV   WORD PTR [BP+SI-09]
0736:882D DE7336            FIDIV   WORD PTR [BP+DI+36]
0736:8830 64DE74CC          FIDIV   WORD PTR FS:[SI-34]
0736:8834 3EDE7527          FIDIV   WORD PTR DS:[DI+27]
0736:8838 26DE768A          FIDIV   WORD PTR ES:[BP-76]
0736:883C 26                SEG     ES (unused)
0736:883D 26DE7719          FIDIV   WORD PTR ES:[BX+19]
0736:8841 3EDE787A          FIDIVR  WORD PTR DS:[BX+SI+7A]
0736:8845 26                SEG     ES (unused)
0736:8846 26DE7967          FIDIVR  WORD PTR ES:[BX+DI+67]
0736:884A 36DE7A8B          FIDIVR  WORD PTR SS:[BP+SI-75]
0736:884E 64DE7BB0          FIDIVR  WORD PTR FS:[BP+DI-50]
0736:8852 2EDE7C95          FIDIVR  WORD PTR CS:[SI-6B]
0736:8856 DE7DC1            FIDIVR  WORD PTR [DI-3F]
0736:8859 2EDE7E6E          FIDIVR  WORD PTR CS:[BP+6E]
0736:885D DE7F05            FIDIVR  WORD PTR [BX+05]
0736:8860 26                SEG     ES (unused)
0736:8861 26DE808DAA        FIADD   WORD PTR ES:[BX+SI+AA8D]
0736:8866 DE81DC4C          FIADD   WORD PTR [BX+DI+4CDC]
0736:886A DE8208E6          FIADD   WORD PTR [BP+SI+E608]
0736:886E 26                SEG     ES (unused)
0736:886F 26DE83B55C        FIADD   WORD PTR ES:[BP+DI+5CB5]
0736:8874 DE841182          FIADD   WORD PTR [SI+8211]
0736:8878 DE85EE63          FIADD   WORD PTR [DI+63EE]
0736:887C DE86F698          FIADD   WORD PTR [BP+98F6]
0736:8880 DE878925          FIADD   WORD PTR [BX+2589]
0736:8884 26DE8854D8        FIMUL   WORD PTR ES:[BX+SI+D854]
0736:8889 64DE899CA7        FIMUL   WORD PTR FS:[BX+DI+A79C]
0736:888E 2EDE8A80CE        FIMUL   WORD PTR CS:[BP+SI+CE80]
0736:8893 26                SEG     ES (unused)
0736:8894 26DE8BEB99        FIMUL   WORD PTR ES:[BP+DI+99EB]
0736:8899 DE8CBEF2          FIMUL   WORD PTR [SI+F2BE]
0736:889D DE8D65C1          FIMUL   WORD PTR [DI+C165]
0736:88A1 3EDE8E254E        FIMUL   WORD PTR DS:[BP+4E25]
0736:88A6 3EDE8F47D5        FIMUL   WORD PTR DS:[BX+D547]
0736:88AB 3EDE902D2B        FICOM   WORD PTR DS:[BX+SI+2B2D]
0736:88B0 64DE912054        FICOM   WORD PTR FS:[BX+DI+5420]
0736:88B5 26DE92E196        FICOM   WORD PTR ES:[BP+SI+96E1]
0736:88BA 2EDE93C5A9        FICOM   WORD PTR CS:[BP+DI+A9C5]
0736:88BF DE94ED84          FICOM   WORD PTR [SI+84ED]
0736:88C3 DE95F090          FICOM   WORD PTR [DI+90F0]
0736:88C7 DE96AF8D          FICOM   WORD PTR [BP+8DAF]
0736:88CB 2EDE9765AF        FICOM   WORD PTR CS:[BX+AF65]
0736:88D0 DE984D71          FICOMP  WORD PTR [BX+SI+714D]
0736:88D4 3EDE999393        FICOMP  WORD PTR DS:[BX+DI+9393]
0736:88D9 DE9A9700          FICOMP  WORD PTR [BP+SI+0097]
0736:88DD 3EDE9B0401        FICOMP  WORD PTR DS:[BP+DI+0104]
0736:88E2 DE9C0AE2          FICOMP  WORD PTR [SI+E20A]
0736:88E6 26DE9D4288        FICOMP  WORD PTR ES:[DI+8842]
0736:88EB DE9E1B28          FICOMP  WORD PTR [BP+281B]
0736:88EF DE9F3D06          FICOMP  WORD PTR [BX+063D]
0736:88F3 2EDEA048BD        FISUB   WORD PTR CS:[BX+SI+BD48]
0736:88F8 2EDEA1B8AF        FISUB   WORD PTR CS:[BX+DI+AFB8]
0736:88FD DEA2C8F9          FISUB   WORD PTR [BP+SI+F9C8]
0736:8901 DEA38854          FISUB   WORD PTR [BP+DI+5488]
0736:8905 DEA4C61E          FISUB   WORD PTR [SI+1EC6]
0736:8909 DEA50852          FISUB   WORD PTR [DI+5208]
0736:890D DEA6E4E8          FISUB   WORD PTR [BP+E8E4]
0736:8911 DEA794D2          FISUB   WORD PTR [BX+D294]
0736:8915 DEA8BCE5          FISUBR  WORD PTR [BX+SI+E5BC]
0736:8919 2EDEA91CDB        FISUBR  WORD PTR CS:[BX+DI+DB1C]
0736:891E 36DEAA391B        FISUBR  WORD PTR SS:[BP+SI+1B39]
0736:8923 2EDEAB6200        FISUBR  WORD PTR CS:[BP+DI+0062]
0736:8928 3EDEACE6A6        FISUBR  WORD PTR DS:[SI+A6E6]
0736:892D DEAD748A          FISUBR  WORD PTR [DI+8A74]
0736:8931 DEAE945F          FISUBR  WORD PTR [BP+5F94]
0736:8935 26                SEG     ES (unused)
0736:8936 26DEAF18F2        FISUBR  WORD PTR ES:[BX+F218]
0736:893B 3EDEB0AC24        FIDIV   WORD PTR DS:[BX+SI+24AC]
0736:8940 36DEB1E274        FIDIV   WORD PTR SS:[BX+DI+74E2]
0736:8945 DEB21559          FIDIV   WORD PTR [BP+SI+5915]
0736:8949 2EDEB35FDE        FIDIV   WORD PTR CS:[BP+DI+DE5F]
0736:894E 26                SEG     ES (unused)
0736:894F 26DEB470B5        FIDIV   WORD PTR ES:[SI+B570]
0736:8954 DEB50489          FIDIV   WORD PTR [DI+8904]
0736:8958 26                SEG     ES (unused)
0736:8959 26DEB661FC        FIDIV   WORD PTR ES:[BP+FC61]
0736:895E DEB76696          FIDIV   WORD PTR [BX+9666]
0736:8962 3EDEB81A2B        FIDIVR  WORD PTR DS:[BX+SI+2B1A]
0736:8967 26DEB9253B        FIDIVR  WORD PTR ES:[BX+DI+3B25]
0736:896C 26                SEG     ES (unused)
0736:896D 26DEBA4847        FIDIVR  WORD PTR ES:[BP+SI+4748]
0736:8972 26DEBBA627        FIDIVR  WORD PTR ES:[BP+DI+27A6]
0736:8977 DEBC7CD4          FIDIVR  WORD PTR [SI+D47C]
0736:897B 36DEBD5F06        FIDIVR  WORD PTR SS:[DI+065F]
0736:8980 2EDEBE7748        FIDIVR  WORD PTR CS:[BP+4877]
0736:8985 26                SEG     ES (unused)
0736:8986 26DEBFC580        FIDIVR  WORD PTR ES:[BX+80C5]
0736:898B 2E                SEG     CS (unused)
0736:898C DEC0              FADDP   ST(0),ST
0736:898E 36                SEG     SS (unused)
0736:898F DEC1              FADDP
0736:8991 DEC2              FADDP   ST(2),ST
0736:8993 36                SEG     SS (unused)
0736:8994 DEC3              FADDP   ST(3),ST
0736:8996 DEC4              FADDP   ST(4),ST
0736:8998 64                SEG     FS (unused)
0736:8999 DEC5              FADDP   ST(5),ST
0736:899B 64                SEG     FS (unused)
0736:899C DEC6              FADDP   ST(6),ST
0736:899E 36                SEG     SS (unused)
0736:899F DEC7              FADDP   ST(7),ST
0736:89A1 DEC8              FMULP   ST(0),ST
0736:89A3 DEC9              FMULP
0736:89A5 26                SEG     ES (unused)
0736:89A6 26                SEG     ES (unused)
0736:89A7 DECA              FMULP   ST(2),ST
0736:89A9 26                SEG     ES (unused)
0736:89AA 26                SEG     ES (unused)
0736:89AB DECB              FMULP   ST(3),ST
0736:89AD 2E                SEG     CS (unused)
0736:89AE DECC              FMULP   ST(4),ST
0736:89B0 DECD              FMULP   ST(5),ST
0736:89B2 DECE              FMULP   ST(6),ST
0736:89B4 DECF              FMULP   ST(7),ST
0736:89B6 26                SEG     ES (unused)
0736:89B7 26                SEG     ES (unused)
0736:89B8 DE                DB      DE
0736:89B9 D0DE              RCR     DH,1
0736:89BB D126DED2          SHL     WORD PTR [D2DE],1
0736:89BF DE                DB      DE
0736:89C0 D3DE              RCR     SI,CL
0736:89C2 D43E              AAM     3E
0736:89C4 DE                DB      DE
0736:89C5 D564              AAD     64
0736:89C7 DE                DB      DE
0736:89C8 D6                DB      D6
0736:89C9 DE                DB      DE
0736:89CA D7                XLATB
0736:89CB 26                SEG     ES (unused)
0736:89CC 26                SEG     ES (unused)
0736:89CD DED9              FCOMPP
0736:89CF DEE0              FSUBRP  ST(0),ST
0736:89D1 DEE1              FSUBRP
0736:89D3 26                SEG     ES (unused)
0736:89D4 26                SEG     ES (unused)
0736:89D5 DEE2              FSUBRP  ST(2),ST
0736:89D7 DEE3              FSUBRP  ST(3),ST
0736:89D9 3E                SEG     DS (unused)
0736:89DA DEE4              FSUBRP  ST(4),ST
0736:89DC DEE5              FSUBRP  ST(5),ST
0736:89DE DEE6              FSUBRP  ST(6),ST
0736:89E0 DEE7              FSUBRP  ST(7),ST
0736:89E2 26                SEG     ES (unused)
0736:89E3 DEE8              FSUBP   ST(0),ST
0736:89E5 DEE9              FSUBP
0736:89E7 DEEA              FSUBP   ST(2),ST
0736:89E9 3E                SEG     DS (unused)
0736:89EA DEEB              FSUBP   ST(3),ST
0736:89EC 26                SEG     ES (unused)
0736:89ED DEEC              FSUBP   ST(4),ST
0736:89EF 64                SEG     FS (unused)
0736:89F0 DEED              FSUBP   ST(5),ST
0736:89F2 26                SEG     ES (unused)
0736:89F3 DEEE              FSUBP   ST(6),ST
0736:89F5 3E                SEG     DS (unused)
0736:89F6 DEEF              FSUBP   ST(7),ST
0736:89F8 26                SEG     ES (unused)
0736:89F9 DEF0              FDIVRP  ST(0),ST
0736:89FB DEF1              FDIVRP
0736:89FD DEF2              FDIVRP  ST(2),ST
0736:89FF 64                SEG     FS (unused)
0736:8A00 DEF3              FDIVRP  ST(3),ST
0736:8A02 26                SEG     ES (unused)
0736:8A03 DEF4              FDIVRP  ST(4),ST
0736:8A05 64                SEG     FS (unused)
0736:8A06 DEF5              FDIVRP  ST(5),ST
0736:8A08 26                SEG     ES (unused)
0736:8A09 DEF6              FDIVRP  ST(6),ST
0736:8A0B DEF7              FDIVRP  ST(7),ST
0736:8A0D DEF8              FDIVP   ST(0),ST
0736:8A0F 26                SEG     ES (unused)
0736:8A10 DEF9              FDIVP
0736:8A12 3E                SEG     DS (unused)
0736:8A13 DEFA              FDIVP   ST(2),ST
0736:8A15 DEFB              FDIVP   ST(3),ST
0736:8A17 DEFC              FDIVP   ST(4),ST
0736:8A19 26                SEG     ES (unused)
0736:8A1A DEFD              FDIVP   ST(5),ST
0736:8A1C DEFE              FDIVP   ST(6),ST
0736:8A1E 26                SEG     ES (unused)
0736:8A1F 26                SEG     ES (unused)
0736:8A20 DEFF              FDIVP   ST(7),ST
0736:8A22 2EDF00            FILD    WORD PTR CS:[BX+SI]
0736:8A25 DF01              FILD    WORD PTR [BX+DI]
0736:8A27 26                SEG     ES (unused)
0736:8A28 26DF02            FILD    WORD PTR ES:[BP+SI]
0736:8A2B DF03              FILD    WORD PTR [BP+DI]
0736:8A2D DF04              FILD    WORD PTR [SI]
0736:8A2F DF05              FILD    WORD PTR [DI]
0736:8A31 64DF06C7D5        FILD    WORD PTR FS:[D5C7]
0736:8A36 26                SEG     ES (unused)
0736:8A37 26DF07            FILD    WORD PTR ES:[BX]
0736:8A3A DF10              FIST    WORD PTR [BX+SI]
0736:8A3C DF11              FIST    WORD PTR [BX+DI]
0736:8A3E 26DF12            FIST    WORD PTR ES:[BP+SI]
0736:8A41 26                SEG     ES (unused)
0736:8A42 26DF13            FIST    WORD PTR ES:[BP+DI]
0736:8A45 DF14              FIST    WORD PTR [SI]
0736:8A47 26DF15            FIST    WORD PTR ES:[DI]
0736:8A4A 26DF16329E        FIST    WORD PTR ES:[9E32]
0736:8A4F DF17              FIST    WORD PTR [BX]
0736:8A51 26DF18            FISTP   WORD PTR ES:[BX+SI]
0736:8A54 DF19              FISTP   WORD PTR [BX+DI]
0736:8A56 3EDF1A            FISTP   WORD PTR DS:[BP+SI]
0736:8A59 64DF1B            FISTP   WORD PTR FS:[BP+DI]
0736:8A5C DF1C              FISTP   WORD PTR [SI]
0736:8A5E DF1D              FISTP   WORD PTR [DI]
0736:8A60 DF1EB4B0          FISTP   WORD PTR [B0B4]
0736:8A64 26                SEG     ES (unused)
0736:8A65 26DF1F            FISTP   WORD PTR ES:[BX]
0736:8A68 DF20              FBLD    TBYTE PTR [BX+SI]
0736:8A6A DF21              FBLD    TBYTE PTR [BX+DI]
0736:8A6C 3EDF22            FBLD    TBYTE PTR DS:[BP+SI]
0736:8A6F 26                SEG     ES (unused)
0736:8A70 26DF23            FBLD    TBYTE PTR ES:[BP+DI]
0736:8A73 36DF24            FBLD    TBYTE PTR SS:[SI]
0736:8A76 3EDF25            FBLD    TBYTE PTR DS:[DI]
0736:8A79 DF264F57          FBLD    TBYTE PTR [574F]
0736:8A7D 26DF27            FBLD    TBYTE PTR ES:[BX]
0736:8A80 26                SEG     ES (unused)
0736:8A81 26DF28            FILD    QWORD PTR ES:[BX+SI]
0736:8A84 3EDF29            FILD    QWORD PTR DS:[BX+DI]
0736:8A87 26DF2A            FILD    QWORD PTR ES:[BP+SI]
0736:8A8A 2EDF2B            FILD    QWORD PTR CS:[BP+DI]
0736:8A8D DF2C              FILD    QWORD PTR [SI]
0736:8A8F DF2D              FILD    QWORD PTR [DI]
0736:8A91 DF2EFB5E          FILD    QWORD PTR [5EFB]
0736:8A95 26DF2F            FILD    QWORD PTR ES:[BX]
0736:8A98 DF30              FBSTP   TBYTE PTR [BX+SI]
0736:8A9A 64DF31            FBSTP   TBYTE PTR FS:[BX+DI]
0736:8A9D DF32              FBSTP   TBYTE PTR [BP+SI]
0736:8A9F DF33              FBSTP   TBYTE PTR [BP+DI]
0736:8AA1 2EDF34            FBSTP   TBYTE PTR CS:[SI]
0736:8AA4 DF35              FBSTP   TBYTE PTR [DI]
0736:8AA6 26DF36C057        FBSTP   TBYTE PTR ES:[57C0]
0736:8AAB DF37              FBSTP   TBYTE PTR [BX]
0736:8AAD DF38              FISTP   QWORD PTR [BX+SI]
0736:8AAF DF39              FISTP   QWORD PTR [BX+DI]
0736:8AB1 36DF3A            FISTP   QWORD PTR SS:[BP+SI]
0736:8AB4 3EDF3B            FISTP   QWORD PTR DS:[BP+DI]
0736:8AB7 DF3C              FISTP   QWORD PTR [SI]
0736:8AB9 DF3D              FISTP   QWORD PTR [DI]
0736:8ABB DF3E3FFD          FISTP   QWORD PTR [FD3F]
0736:8ABF DF3F              FISTP   QWORD PTR [BX]
0736:8AC1 26DF4029          FILD    WORD PTR ES:[BX+SI+29]
0736:8AC5 26DF4150          FILD    WORD PTR ES:[BX+DI+50]
0736:8AC9 DF4248            FILD    WORD PTR [BP+SI+48]
0736:8ACC 36DF430D          FILD    WORD PTR SS:[BP+DI+0D]
0736:8AD0 DF4459            FILD    WORD PTR [SI+59]
0736:8AD3 26                SEG     ES (unused)
0736:8AD4 26DF4598          FILD    WORD PTR ES:[DI-68]
0736:8AD8 DF46D7            FILD    WORD PTR [BP-29]
0736:8ADB 26                SEG     ES (unused)
0736:8ADC 26DF4771          FILD    WORD PTR ES:[BX+71]
0736:8AE0 2EDF50A6          FIST    WORD PTR CS:[BX+SI-5A]
0736:8AE4 DF51D5            FIST    WORD PTR [BX+DI-2B]
0736:8AE7 2EDF52FE          FIST    WORD PTR CS:[BP+SI-02]
0736:8AEB DF5343            FIST    WORD PTR [BP+DI+43]
0736:8AEE 26DF5469          FIST    WORD PTR ES:[SI+69]
0736:8AF2 DF551A            FIST    WORD PTR [DI+1A]
0736:8AF5 36DF565C          FIST    WORD PTR SS:[BP+5C]
0736:8AF9 DF5720            FIST    WORD PTR [BX+20]
0736:8AFC DF5810            FISTP   WORD PTR [BX+SI+10]
0736:8AFF DF595E            FISTP   WORD PTR [BX+DI+5E]
0736:8B02 DF5A92            FISTP   WORD PTR [BP+SI-6E]
0736:8B05 DF5B7B            FISTP   WORD PTR [BP+DI+7B]
0736:8B08 DF5C27            FISTP   WORD PTR [SI+27]
0736:8B0B DF5DAD            FISTP   WORD PTR [DI-53]
0736:8B0E 64DF5E79          FISTP   WORD PTR FS:[BP+79]
0736:8B12 DF5F04            FISTP   WORD PTR [BX+04]
0736:8B15 26                SEG     ES (unused)
0736:8B16 26DF601A          FBLD    TBYTE PTR ES:[BX+SI+1A]
0736:8B1A DF612C            FBLD    TBYTE PTR [BX+DI+2C]
0736:8B1D DF6229            FBLD    TBYTE PTR [BP+SI+29]
0736:8B20 26                SEG     ES (unused)
0736:8B21 26DF631E          FBLD    TBYTE PTR ES:[BP+DI+1E]
0736:8B25 64DF642F          FBLD    TBYTE PTR FS:[SI+2F]
0736:8B29 26                SEG     ES (unused)
0736:8B2A 26DF6584          FBLD    TBYTE PTR ES:[DI-7C]
0736:8B2E DF66E2            FBLD    TBYTE PTR [BP-1E]
0736:8B31 3EDF670F          FBLD    TBYTE PTR DS:[BX+0F]
0736:8B35 DF68A1            FILD    QWORD PTR [BX+SI-5F]
0736:8B38 2EDF6904          FILD    QWORD PTR CS:[BX+DI+04]
0736:8B3C DF6ADF            FILD    QWORD PTR [BP+SI-21]
0736:8B3F 3EDF6BD0          FILD    QWORD PTR DS:[BP+DI-30]
0736:8B43 36DF6CFB          FILD    QWORD PTR SS:[SI-05]
0736:8B47 3EDF6D91          FILD    QWORD PTR DS:[DI-6F]
0736:8B4B 2EDF6E03          FILD    QWORD PTR CS:[BP+03]
0736:8B4F DF6FE6            FILD    QWORD PTR [BX-1A]
0736:8B52 26                SEG     ES (unused)
0736:8B53 26DF7037          FBSTP   TBYTE PTR ES:[BX+SI+37]
0736:8B57 3EDF71D5          FBSTP   TBYTE PTR DS:[BX+DI-2B]
0736:8B5B 2EDF72D7          FBSTP   TBYTE PTR CS:[BP+SI-29]
0736:8B5F DF7397            FBSTP   TBYTE PTR [BP+DI-69]
0736:8B62 2EDF74D3          FBSTP   TBYTE PTR CS:[SI-2D]
0736:8B66 DF7524            FBSTP   TBYTE PTR [DI+24]
0736:8B69 2EDF7658          FBSTP   TBYTE PTR CS:[BP+58]
0736:8B6D 3EDF77D3          FBSTP   TBYTE PTR DS:[BX-2D]
0736:8B71 64DF78EC          FISTP   QWORD PTR FS:[BX+SI-14]
0736:8B75 DF79EC            FISTP   QWORD PTR [BX+DI-14]
0736:8B78 64DF7A46          FISTP   QWORD PTR FS:[BP+SI+46]
0736:8B7C 26                SEG     ES (unused)
0736:8B7D 26DF7B12          FISTP   QWORD PTR ES:[BP+DI+12]
0736:8B81 DF7C3F            FISTP   QWORD PTR [SI+3F]
0736:8B84 DF7D01            FISTP   QWORD PTR [DI+01]
0736:8B87 36DF7EA1          FISTP   QWORD PTR SS:[BP-5F]
0736:8B8B DF7F99            FISTP   QWORD PTR [BX-67]
0736:8B8E 26DF801289        FILD    WORD PTR ES:[BX+SI+8912]
0736:8B93 DF8129F9          FILD    WORD PTR [BX+DI+F929]
0736:8B97 DF825FC5          FILD    WORD PTR [BP+SI+C55F]
0736:8B9B DF839624          FILD    WORD PTR [BP+DI+2496]
0736:8B9F DF84EB87          FILD    WORD PTR [SI+87EB]
0736:8BA3 DF850DA9          FILD    WORD PTR [DI+A90D]
0736:8BA7 DF863BDF          FILD    WORD PTR [BP+DF3B]
0736:8BAB 26                SEG     ES (unused)
0736:8BAC 26DF87C02F        FILD    WORD PTR ES:[BX+2FC0]
0736:8BB1 DF90630C          FIST    WORD PTR [BX+SI+0C63]
0736:8BB5 64DF910B0D        FIST    WORD PTR FS:[BX+DI+0D0B]
0736:8BBA 2EDF92D899        FIST    WORD PTR CS:[BP+SI+99D8]
0736:8BBF 64DF931F1D        FIST    WORD PTR FS:[BP+DI+1D1F]
0736:8BC4 DF94DB8F          FIST    WORD PTR [SI+8FDB]
0736:8BC8 26DF954D5C        FIST    WORD PTR ES:[DI+5C4D]
0736:8BCD 36DF96BEEA        FIST    WORD PTR SS:[BP+EABE]
0736:8BD2 DF97A532          FIST    WORD PTR [BX+32A5]
0736:8BD6 DF98A53F          FISTP   WORD PTR [BX+SI+3FA5]
0736:8BDA 26DF997DCD        FISTP   WORD PTR ES:[BX+DI+CD7D]
0736:8BDF 64DF9A25AE        FISTP   WORD PTR FS:[BP+SI+AE25]
0736:8BE4 64DF9B726A        FISTP   WORD PTR FS:[BP+DI+6A72]
0736:8BE9 DF9C4BAC          FISTP   WORD PTR [SI+AC4B]
0736:8BED 64DF9DEC05        FISTP   WORD PTR FS:[DI+05EC]
0736:8BF2 2EDF9E2866        FISTP   WORD PTR CS:[BP+6628]
0736:8BF7 3EDF9F9F44        FISTP   WORD PTR DS:[BX+449F]
0736:8BFC DFA09D17          FBLD    TBYTE PTR [BX+SI+179D]
0736:8C00 DFA1ADE4          FBLD    TBYTE PTR [BX+DI+E4AD]
0736:8C04 DFA29802          FBLD    TBYTE PTR [BP+SI+0298]
0736:8C08 36DFA38746        FBLD    TBYTE PTR SS:[BP+DI+4687]
0736:8C0D DFA44491          FBLD    TBYTE PTR [SI+9144]
0736:8C11 3EDFA57DA3        FBLD    TBYTE PTR DS:[DI+A37D]
0736:8C16 DFA63132          FBLD    TBYTE PTR [BP+3231]
0736:8C1A DFA76644          FBLD    TBYTE PTR [BX+4466]
0736:8C1E 36DFA8219D        FILD    QWORD PTR SS:[BX+SI+9D21]
0736:8C23 36DFA98B6C        FILD    QWORD PTR SS:[BX+DI+6C8B]
0736:8C28 DFAA601E          FILD    QWORD PTR [BP+SI+1E60]
0736:8C2C DFABC6D6          FILD    QWORD PTR [BP+DI+D6C6]
0736:8C30 DFACB87E          FILD    QWORD PTR [SI+7EB8]
0736:8C34 DFAD850F          FILD    QWORD PTR [DI+0F85]
0736:8C38 64DFAE801E        FILD    QWORD PTR FS:[BP+1E80]
0736:8C3D 3EDFAFE28F        FILD    QWORD PTR DS:[BX+8FE2]
0736:8C42 64DFB0B84F        FBSTP   TBYTE PTR FS:[BX+SI+4FB8]
0736:8C47 36DFB13219        FBSTP   TBYTE PTR SS:[BX+DI+1932]
0736:8C4C DFB24BA8          FBSTP   TBYTE PTR [BP+SI+A84B]
0736:8C50 64DFB3AAC1        FBSTP   TBYTE PTR FS:[BP+DI+C1AA]
0736:8C55 DFB4D8D2          FBSTP   TBYTE PTR [SI+D2D8]
0736:8C59 36DFB5F219        FBSTP   TBYTE PTR SS:[DI+19F2]
0736:8C5E 2EDFB6CF0E        FBSTP   TBYTE PTR CS:[BP+0ECF]
0736:8C63 26                SEG     ES (unused)
0736:8C64 26DFB7B183        FBSTP   TBYTE PTR ES:[BX+83B1]
0736:8C69 26DFB824AE        FISTP   QWORD PTR ES:[BX+SI+AE24]
0736:8C6E DFB98208          FISTP   QWORD PTR [BX+DI+0882]
0736:8C72 DFBAA1AA          FISTP   QWORD PTR [BP+SI+AAA1]
0736:8C76 36DFBB73DD        FISTP   QWORD PTR SS:[BP+DI+DD73]
0736:8C7B 64DFBC0465        FISTP   QWORD PTR FS:[SI+6504]
0736:8C80 DFBD81C8          FISTP   QWORD PTR [DI+C881]
0736:8C84 26DFBEE3C5        FISTP   QWORD PTR ES:[BP+C5E3]
0736:8C89 DFBF7AD1          FISTP   QWORD PTR [BX+D17A]
0736:8C8D 26                SEG     ES (unused)
0736:8C8E 26                SEG     ES (unused)
0736:8C8F DF                DB      DF
0736:8C90 C02EDFC164        SHR     BYTE PTR [C1DF],64
0736:8C95 DF                DB      DF
0736:8C96 C22EDF            RET     DF2E
0736:8C99 C3                RET
0736:8C9A 2E                SEG     CS (unused)
0736:8C9B DF                DB      DF
0736:8C9C C4                DB      C4
0736:8C9D DF                DB      DF
0736:8C9E C5                DB      C5
0736:8C9F DF                DB      DF
0736:8CA0 C6                DB      C6
0736:8CA1 2E                SEG     CS (unused)
0736:8CA2 DF                DB      DF
0736:8CA3 C7                DB      C7
0736:8CA4 36                SEG     SS (unused)
0736:8CA5 DFE0              FNSTSW  AX
0736:8CA7 DFF0              FCOMIP  ST(0)                           [needs 687]
0736:8CA9 DFF1              FCOMIP                                  [needs 687]
0736:8CAB 64                SEG     FS (unused)
0736:8CAC DFF2              FCOMIP  ST(2)                           [needs 687]
0736:8CAE 3E                SEG     DS (unused)
0736:8CAF DFF3              FCOMIP  ST(3)                           [needs 687]
0736:8CB1 DFF4              FCOMIP  ST(4)                           [needs 687]
0736:8CB3 DFF5              FCOMIP  ST(5)                           [needs 687]
0736:8CB5 26                SEG     ES (unused)
0736:8CB6 26                SEG     ES (unused)
0736:8CB7 DFF6              FCOMIP  ST(6)                           [needs 687]
0736:8CB9 DFF7              FCOMIP  ST(7)                           [needs 687]
0736:8CBB D127              SHL     WORD PTR [BX],1
0736:8CBD D26778            SHL     BYTE PTR [BX+78],CL
0736:8CC0 D1A75634          SHL     WORD PTR [BX+3456],1
0736:8CC4 D3E7              SHL     DI,CL
0736:8CC6 D06069            SHL     BYTE PTR [BX+SI+69],1
0736:8CC9 D3A07856          SHL     WORD PTR [BX+SI+5678],CL
0736:8CCD D121              SHL     WORD PTR [BX+DI],1
0736:8CCF D36149            SHL     WORD PTR [BX+DI+49],CL
0736:8CD2 D1E6              SHL     SI,1
0736:8CD4 D224              SHL     BYTE PTR [SI],CL
0736:8CD6 D16478            SHL     WORD PTR [SI+78],1
0736:8CD9 D2A45634          SHL     BYTE PTR [SI+3456],CL
0736:8CDD D125              SHL     WORD PTR [DI],1
0736:8CDF D26578            SHL     BYTE PTR [DI+78],CL
0736:8CE2 D1A55634          SHL     WORD PTR [DI+3456],1
0736:8CE6 D36600            SHL     WORD PTR [BP+00],CL
0736:8CE9 D16678            SHL     WORD PTR [BP+78],1
0736:8CEC D2E6              SHL     DH,CL
0736:8CEE D022              SHL     BYTE PTR [BP+SI],1
0736:8CF0 D36259            SHL     WORD PTR [BP+SI+59],CL
0736:8CF3 D1A27856          SHL     WORD PTR [BP+SI+5678],1
0736:8CF7 D223              SHL     BYTE PTR [BP+DI],CL
0736:8CF9 D16319            SHL     WORD PTR [BP+DI+19],1
0736:8CFC D3A37856          SHL     WORD PTR [BP+DI+5678],CL
0736:8D00 D12F              SHR     WORD PTR [BX],1
0736:8D02 D26F78            SHR     BYTE PTR [BX+78],CL
0736:8D05 D1AF5634          SHR     WORD PTR [BX+3456],1
0736:8D09 D328              SHR     WORD PTR [BX+SI],CL
0736:8D0B D06869            SHR     BYTE PTR [BX+SI+69],1
0736:8D0E D3A87856          SHR     WORD PTR [BX+SI+5678],CL
0736:8D12 D129              SHR     WORD PTR [BX+DI],1
0736:8D14 D36949            SHR     WORD PTR [BX+DI+49],CL
0736:8D17 D1A97856          SHR     WORD PTR [BX+DI+5678],1
0736:8D1B D22C              SHR     BYTE PTR [SI],CL
0736:8D1D D16C78            SHR     WORD PTR [SI+78],1
0736:8D20 D2AC5634          SHR     BYTE PTR [SI+3456],CL
0736:8D24 D12D              SHR     WORD PTR [DI],1
0736:8D26 D2E8              SHR     AL,CL
0736:8D28 D1AD5634          SHR     WORD PTR [DI+3456],1
0736:8D2C D36E00            SHR     WORD PTR [BP+00],CL
0736:8D2F D16E78            SHR     WORD PTR [BP+78],1
0736:8D32 D3E9              SHR     CX,CL
0736:8D34 D02A              SHR     BYTE PTR [BP+SI],1
0736:8D36 D36A59            SHR     WORD PTR [BP+SI+59],CL
0736:8D39 D1AA7856          SHR     WORD PTR [BP+SI+5678],1
0736:8D3D D22B              SHR     BYTE PTR [BP+DI],CL
0736:8D3F D1ED              SHR     BP,1
0736:8D41 D3AB7856          SHR     WORD PTR [BP+DI+5678],CL
0736:8D45 D107              ROL     WORD PTR [BX],1
0736:8D47 D24778            ROL     BYTE PTR [BX+78],CL
0736:8D4A D1875634          ROL     WORD PTR [BX+3456],1
0736:8D4E D3C7              ROL     DI,CL
0736:8D50 D04069            ROL     BYTE PTR [BX+SI+69],1
0736:8D53 D3807856          ROL     WORD PTR [BX+SI+5678],CL
0736:8D57 D101              ROL     WORD PTR [BX+DI],1
0736:8D59 D34149            ROL     WORD PTR [BX+DI+49],CL
0736:8D5C D1C6              ROL     SI,1
0736:8D5E D204              ROL     BYTE PTR [SI],CL
0736:8D60 D14478            ROL     WORD PTR [SI+78],1
0736:8D63 D2845634          ROL     BYTE PTR [SI+3456],CL
0736:8D67 D105              ROL     WORD PTR [DI],1
0736:8D69 D24578            ROL     BYTE PTR [DI+78],CL
0736:8D6C D1855634          ROL     WORD PTR [DI+3456],1
0736:8D70 D34600            ROL     WORD PTR [BP+00],CL
0736:8D73 D14678            ROL     WORD PTR [BP+78],1
0736:8D76 D2C6              ROL     DH,CL
0736:8D78 D002              ROL     BYTE PTR [BP+SI],1
0736:8D7A D34259            ROL     WORD PTR [BP+SI+59],CL
0736:8D7D D1827856          ROL     WORD PTR [BP+SI+5678],1
0736:8D81 D203              ROL     BYTE PTR [BP+DI],CL
0736:8D83 D14319            ROL     WORD PTR [BP+DI+19],1
0736:8D86 D3837856          ROL     WORD PTR [BP+DI+5678],CL
0736:8D8A D10F              ROR     WORD PTR [BX],1
0736:8D8C D24F78            ROR     BYTE PTR [BX+78],CL
0736:8D8F D18F5634          ROR     WORD PTR [BX+3456],1
0736:8D93 D3CF              ROR     DI,CL
0736:8D95 D04869            ROR     BYTE PTR [BX+SI+69],1
0736:8D98 D3887856          ROR     WORD PTR [BX+SI+5678],CL
0736:8D9C D109              ROR     WORD PTR [BX+DI],1
0736:8D9E D34949            ROR     WORD PTR [BX+DI+49],CL
0736:8DA1 D1CE              ROR     SI,1
0736:8DA3 D20C              ROR     BYTE PTR [SI],CL
0736:8DA5 D14C78            ROR     WORD PTR [SI+78],1
0736:8DA8 D28C5634          ROR     BYTE PTR [SI+3456],CL
0736:8DAC D10D              ROR     WORD PTR [DI],1
0736:8DAE D24D78            ROR     BYTE PTR [DI+78],CL
0736:8DB1 D18D5634          ROR     WORD PTR [DI+3456],1
0736:8DB5 D34E00            ROR     WORD PTR [BP+00],CL
0736:8DB8 D14E78            ROR     WORD PTR [BP+78],1
0736:8DBB D2CE              ROR     DH,CL
0736:8DBD D00A              ROR     BYTE PTR [BP+SI],1
0736:8DBF D34A59            ROR     WORD PTR [BP+SI+59],CL
0736:8DC2 D18A7856          ROR     WORD PTR [BP+SI+5678],1
0736:8DC6 D20B              ROR     BYTE PTR [BP+DI],CL
0736:8DC8 D14B19            ROR     WORD PTR [BP+DI+19],1
0736:8DCB D38B7856          ROR     WORD PTR [BP+DI+5678],CL
0736:8DCF D11F              RCR     WORD PTR [BX],1
0736:8DD1 D25F78            RCR     BYTE PTR [BX+78],CL
0736:8DD4 D19F5634          RCR     WORD PTR [BX+3456],1
0736:8DD8 D3DF              RCR     DI,CL
0736:8DDA D05869            RCR     BYTE PTR [BX+SI+69],1
0736:8DDD D3987856          RCR     WORD PTR [BX+SI+5678],CL
0736:8DE1 D119              RCR     WORD PTR [BX+DI],1
0736:8DE3 D35949            RCR     WORD PTR [BX+DI+49],CL
0736:8DE6 D1DE              RCR     SI,1
0736:8DE8 D21C              RCR     BYTE PTR [SI],CL
0736:8DEA D15C78            RCR     WORD PTR [SI+78],1
0736:8DED D29C5634          RCR     BYTE PTR [SI+3456],CL
0736:8DF1 D11D              RCR     WORD PTR [DI],1
0736:8DF3 D25D78            RCR     BYTE PTR [DI+78],CL
0736:8DF6 D19D5634          RCR     WORD PTR [DI+3456],1
0736:8DFA D35E00            RCR     WORD PTR [BP+00],CL
0736:8DFD D15E78            RCR     WORD PTR [BP+78],1
0736:8E00 D2DE              RCR     DH,CL
0736:8E02 D01A              RCR     BYTE PTR [BP+SI],1
0736:8E04 D35A59            RCR     WORD PTR [BP+SI+59],CL
0736:8E07 D19A7856          RCR     WORD PTR [BP+SI+5678],1
0736:8E0B D21B              RCR     BYTE PTR [BP+DI],CL
0736:8E0D D15B19            RCR     WORD PTR [BP+DI+19],1
0736:8E10 D39B7856          RCR     WORD PTR [BP+DI+5678],CL
0736:8E14 D117              RCL     WORD PTR [BX],1
0736:8E16 D25778            RCL     BYTE PTR [BX+78],CL
0736:8E19 D1975634          RCL     WORD PTR [BX+3456],1
0736:8E1D D3D7              RCL     DI,CL
0736:8E1F D05069            RCL     BYTE PTR [BX+SI+69],1
0736:8E22 D3907856          RCL     WORD PTR [BX+SI+5678],CL
0736:8E26 D111              RCL     WORD PTR [BX+DI],1
0736:8E28 D35149            RCL     WORD PTR [BX+DI+49],CL
0736:8E2B D1D6              RCL     SI,1
0736:8E2D D214              RCL     BYTE PTR [SI],CL
0736:8E2F D15478            RCL     WORD PTR [SI+78],1
0736:8E32 D2945634          RCL     BYTE PTR [SI+3456],CL
0736:8E36 D115              RCL     WORD PTR [DI],1
0736:8E38 D25578            RCL     BYTE PTR [DI+78],CL
0736:8E3B D1955634          RCL     WORD PTR [DI+3456],1
0736:8E3F D35600            RCL     WORD PTR [BP+00],CL
0736:8E42 D15678            RCL     WORD PTR [BP+78],1
0736:8E45 D2D6              RCL     DH,CL
0736:8E47 D012              RCL     BYTE PTR [BP+SI],1
0736:8E49 D35259            RCL     WORD PTR [BP+SI+59],CL
0736:8E4C D1927856          RCL     WORD PTR [BP+SI+5678],1
0736:8E50 D213              RCL     BYTE PTR [BP+DI],CL
0736:8E52 D15319            RCL     WORD PTR [BP+DI+19],1
0736:8E55 D3937856          RCL     WORD PTR [BP+DI+5678],CL
0736:8E59 F7D5              NOT     BP
0736:8E5B F75658            NOT     WORD PTR [BP+58]
0736:8E5E F7965634          NOT     WORD PTR [BP+3456]
0736:8E62 F7D1              NOT     CX
0736:8E64 F75239            NOT     WORD PTR [BP+SI+39]
0736:8E67 F7927856          NOT     WORD PTR [BP+SI+5678]
0736:8E6B F7D2              NOT     DX
0736:8E6D F75349            NOT     WORD PTR [BP+DI+49]
0736:8E70 F7D6              NOT     SI
0736:8E72 F65578            NOT     BYTE PTR [DI+78]
0736:8E75 F6955634          NOT     BYTE PTR [DI+3456]
0736:8E79 F6D6              NOT     DH
0736:8E7B F65678            NOT     BYTE PTR [BP+78]
0736:8E7E F6965634          NOT     BYTE PTR [BP+3456]
0736:8E82 F6D4              NOT     AH
0736:8E84 F6D3              NOT     BL
0736:8E86 F6955634          NOT     BYTE PTR [DI+3456]
0736:8E8A 230F              AND     CX,[BX]
0736:8E8C 235778            AND     DX,[BX+78]
0736:8E8F 239F5634          AND     BX,[BX+3456]
0736:8E93 2330              AND     SI,[BX+SI]
0736:8E95 237879            AND     DI,[BX+SI+79]
0736:8E98 23A87856          AND     BP,[BX+SI+5678]
0736:8E9C 2331              AND     SI,[BX+DI]
0736:8E9E 237929            AND     DI,[BX+DI+29]
0736:8EA1 23A97856          AND     BP,[BX+DI+5678]
0736:8EA5 2324              AND     SP,[SI]
0736:8EA7 235428            AND     DX,[SI+28]
0736:8EAA 239C5634          AND     BX,[SI+3456]
0736:8EAE 2305              AND     AX,[DI]
0736:8EB0 235558            AND     DX,[DI+58]
0736:8EB3 239D5634          AND     BX,[DI+3456]
0736:8EB7 234E00            AND     CX,[BP+00]
0736:8EBA 235658            AND     DX,[BP+58]
0736:8EBD 239E5634          AND     BX,[BP+3456]
0736:8EC1 2332              AND     SI,[BP+SI]
0736:8EC3 237A39            AND     DI,[BP+SI+39]
0736:8EC6 23AA7856          AND     BP,[BP+SI+5678]
0736:8ECA 2333              AND     SI,[BP+DI]
0736:8ECC 237B49            AND     DI,[BP+DI+49]
0736:8ECF 23AB7856          AND     BP,[BP+DI+5678]
0736:8ED3 210F              AND     [BX],CX
0736:8ED5 215778            AND     [BX+78],DX
0736:8ED8 219F5634          AND     [BX+3456],BX
0736:8EDC 2100              AND     [BX+SI],AX
0736:8EDE 216069            AND     [BX+SI+69],SP
0736:8EE1 21B87856          AND     [BX+SI+5678],DI
0736:8EE5 2129              AND     [BX+DI],BP
0736:8EE7 217149            AND     [BX+DI+49],SI
0736:8EEA 21B97856          AND     [BX+DI+5678],DI
0736:8EEE 2104              AND     [SI],AX
0736:8EF0 214C78            AND     [SI+78],CX
0736:8EF3 21945634          AND     [SI+3456],DX
0736:8EF7 212D              AND     [DI],BP
0736:8EF9 216578            AND     [DI+78],SP
0736:8EFC 21B55634          AND     [DI+3456],SI
0736:8F00 217E00            AND     [BP+00],DI
0736:8F03 214E78            AND     [BP+78],CX
0736:8F06 21965634          AND     [BP+3456],DX
0736:8F0A 2132              AND     [BP+SI],SI
0736:8F0C 217A59            AND     [BP+SI+59],DI
0736:8F0F 21827856          AND     [BP+SI+5678],AX
0736:8F13 213B              AND     [BP+DI],DI
0736:8F15 215B19            AND     [BP+DI+19],BX
0736:8F18 21937856          AND     [BP+DI+5678],DX
0736:8F1C 2205              AND     AL,[DI]
0736:8F1E 226578            AND     AH,[DI+78]
0736:8F21 22BD5634          AND     BH,[DI+3456]
0736:8F25 224E00            AND     CL,[BP+00]
0736:8F28 225678            AND     DL,[BP+78]
0736:8F2B 229E5634          AND     BL,[BP+3456]
0736:8F2F 222A              AND     CH,[BP+SI]
0736:8F31 207578            AND     [DI+78],DH
0736:8F34 20955634          AND     [DI+3456],DL
0736:8F38 206E00            AND     [BP+00],CH
0736:8F3B 204E56            AND     [BP+56],CL
0736:8F3E 20BE5634          AND     [BP+3456],BH
0736:8F42 201A              AND     [BP+SI],BL
0736:8F44 206245            AND     [BP+SI+45],AH
0736:8F47 20827856          AND     [BP+SI+5678],AL
0736:8F4B 80657815          AND     BYTE PTR [DI+78],15
0736:8F4F 80A5563416        AND     BYTE PTR [DI+3456],16
0736:8F54 80660028          AND     BYTE PTR [BP+00],28
0736:8F58 80665688          AND     BYTE PTR [BP+56],88
0736:8F5C 81A656343412      AND     WORD PTR [BP+3456],1234
0736:8F62 81221534          AND     WORD PTR [BP+SI],3415
0736:8F66 8162458547        AND     WORD PTR [BP+SI+45],4785
0736:8F6B 81A278563615      AND     WORD PTR [BP+SI+5678],1536
0736:8F71 80E115            AND     CL,15
0736:8F74 80E516            AND     CH,16
0736:8F77 80E228            AND     DL,28
0736:8F7A 80E488            AND     AH,88
0736:8F7D 81E33412          AND     BX,1234
0736:8F81 81E71534          AND     DI,3415
0736:8F85 81E48547          AND     SP,4785
0736:8F89 81E53615          AND     BP,1536
0736:8F8D 2415              AND     AL,15
0736:8F8F 251516            AND     AX,1615
0736:8F92 850F              TEST    [BX],CX
0736:8F94 855778            TEST    [BX+78],DX
0736:8F97 859F5634          TEST    [BX+3456],BX
0736:8F9B 8530              TEST    [BX+SI],SI
0736:8F9D 857879            TEST    [BX+SI+79],DI
0736:8FA0 85A87856          TEST    [BX+SI+5678],BP
0736:8FA4 8531              TEST    [BX+DI],SI
0736:8FA6 857929            TEST    [BX+DI+29],DI
0736:8FA9 85A97856          TEST    [BX+DI+5678],BP
0736:8FAD 8524              TEST    [SI],SP
0736:8FAF 855428            TEST    [SI+28],DX
0736:8FB2 859C5634          TEST    [SI+3456],BX
0736:8FB6 8505              TEST    [DI],AX
0736:8FB8 855558            TEST    [DI+58],DX
0736:8FBB 859D5634          TEST    [DI+3456],BX
0736:8FBF 854E00            TEST    [BP+00],CX
0736:8FC2 855658            TEST    [BP+58],DX
0736:8FC5 859E5634          TEST    [BP+3456],BX
0736:8FC9 8532              TEST    [BP+SI],SI
0736:8FCB 857A39            TEST    [BP+SI+39],DI
0736:8FCE 85AA7856          TEST    [BP+SI+5678],BP
0736:8FD2 8533              TEST    [BP+DI],SI
0736:8FD4 857B49            TEST    [BP+DI+49],DI
0736:8FD7 85AB7856          TEST    [BP+DI+5678],BP
0736:8FDB 850F              TEST    [BX],CX
0736:8FDD 855778            TEST    [BX+78],DX
0736:8FE0 859F5634          TEST    [BX+3456],BX
0736:8FE4 8500              TEST    [BX+SI],AX
0736:8FE6 856069            TEST    [BX+SI+69],SP
0736:8FE9 85B87856          TEST    [BX+SI+5678],DI
0736:8FED 8529              TEST    [BX+DI],BP
0736:8FEF 857149            TEST    [BX+DI+49],SI
0736:8FF2 85B97856          TEST    [BX+DI+5678],DI
0736:8FF6 8504              TEST    [SI],AX
0736:8FF8 854C78            TEST    [SI+78],CX
0736:8FFB 85945634          TEST    [SI+3456],DX
0736:8FFF 852D              TEST    [DI],BP
0736:9001 856578            TEST    [DI+78],SP
0736:9004 85B55634          TEST    [DI+3456],SI
0736:9008 857E00            TEST    [BP+00],DI
0736:900B 854E78            TEST    [BP+78],CX
0736:900E 85965634          TEST    [BP+3456],DX
0736:9012 8532              TEST    [BP+SI],SI
0736:9014 857A59            TEST    [BP+SI+59],DI
0736:9017 85827856          TEST    [BP+SI+5678],AX
0736:901B 853B              TEST    [BP+DI],DI
0736:901D 855B19            TEST    [BP+DI+19],BX
0736:9020 85937856          TEST    [BP+DI+5678],DX
0736:9024 8405              TEST    [DI],AL
0736:9026 846578            TEST    [DI+78],AH
0736:9029 84BD5634          TEST    [DI+3456],BH
0736:902D 844E00            TEST    [BP+00],CL
0736:9030 845678            TEST    [BP+78],DL
0736:9033 849E5634          TEST    [BP+3456],BL
0736:9037 842A              TEST    [BP+SI],CH
0736:9039 847578            TEST    [DI+78],DH
0736:903C 84955634          TEST    [DI+3456],DL
0736:9040 846E00            TEST    [BP+00],CH
0736:9043 844E56            TEST    [BP+56],CL
0736:9046 84BE5634          TEST    [BP+3456],BH
0736:904A 841A              TEST    [BP+SI],BL
0736:904C 846245            TEST    [BP+SI+45],AH
0736:904F 84827856          TEST    [BP+SI+5678],AL
0736:9053 F6457815          TEST    BYTE PTR [DI+78],15
0736:9057 F685563416        TEST    BYTE PTR [DI+3456],16
0736:905C F6460028          TEST    BYTE PTR [BP+00],28
0736:9060 F6465688          TEST    BYTE PTR [BP+56],88
0736:9064 F78656343412      TEST    WORD PTR [BP+3456],1234
0736:906A F7021534          TEST    WORD PTR [BP+SI],3415
0736:906E F742458547        TEST    WORD PTR [BP+SI+45],4785
0736:9073 F78278563615      TEST    WORD PTR [BP+SI+5678],1536
0736:9079 F6C115            TEST    CL,15
0736:907C F6C516            TEST    CH,16
0736:907F F6C228            TEST    DL,28
0736:9082 F6C488            TEST    AH,88
0736:9085 F7C33412          TEST    BX,1234
0736:9089 F7C71534          TEST    DI,3415
0736:908D F7C48547          TEST    SP,4785
0736:9091 F7C53615          TEST    BP,1536
0736:9095 A815              TEST    AL,15
0736:9097 A91516            TEST    AX,1615
0736:909A 0B0F              OR      CX,[BX]
0736:909C 0B5778            OR      DX,[BX+78]
0736:909F 0B9F5634          OR      BX,[BX+3456]
0736:90A3 0B30              OR      SI,[BX+SI]
0736:90A5 0B7879            OR      DI,[BX+SI+79]
0736:90A8 0BA87856          OR      BP,[BX+SI+5678]
0736:90AC 0B31              OR      SI,[BX+DI]
0736:90AE 0B7929            OR      DI,[BX+DI+29]
0736:90B1 0BA97856          OR      BP,[BX+DI+5678]
0736:90B5 0B24              OR      SP,[SI]
0736:90B7 0B5428            OR      DX,[SI+28]
0736:90BA 0B9C5634          OR      BX,[SI+3456]
0736:90BE 0B05              OR      AX,[DI]
0736:90C0 0B5558            OR      DX,[DI+58]
0736:90C3 0B9D5634          OR      BX,[DI+3456]
0736:90C7 0B4E00            OR      CX,[BP+00]
0736:90CA 0B5658            OR      DX,[BP+58]
0736:90CD 0B9E5634          OR      BX,[BP+3456]
0736:90D1 0B32              OR      SI,[BP+SI]
0736:90D3 0B7A39            OR      DI,[BP+SI+39]
0736:90D6 0BAA7856          OR      BP,[BP+SI+5678]
0736:90DA 0B33              OR      SI,[BP+DI]
0736:90DC 0B7B49            OR      DI,[BP+DI+49]
0736:90DF 0BAB7856          OR      BP,[BP+DI+5678]
0736:90E3 090F              OR      [BX],CX
0736:90E5 095778            OR      [BX+78],DX
0736:90E8 099F5634          OR      [BX+3456],BX
0736:90EC 0900              OR      [BX+SI],AX
0736:90EE 096069            OR      [BX+SI+69],SP
0736:90F1 09B87856          OR      [BX+SI+5678],DI
0736:90F5 0929              OR      [BX+DI],BP
0736:90F7 097149            OR      [BX+DI+49],SI
0736:90FA 09B97856          OR      [BX+DI+5678],DI
0736:90FE 0904              OR      [SI],AX
0736:9100 094C78            OR      [SI+78],CX
0736:9103 09945634          OR      [SI+3456],DX
0736:9107 092D              OR      [DI],BP
0736:9109 096578            OR      [DI+78],SP
0736:910C 09B55634          OR      [DI+3456],SI
0736:9110 097E00            OR      [BP+00],DI
0736:9113 094E78            OR      [BP+78],CX
0736:9116 09965634          OR      [BP+3456],DX
0736:911A 0932              OR      [BP+SI],SI
0736:911C 097A59            OR      [BP+SI+59],DI
0736:911F 09827856          OR      [BP+SI+5678],AX
0736:9123 093B              OR      [BP+DI],DI
0736:9125 095B19            OR      [BP+DI+19],BX
0736:9128 09937856          OR      [BP+DI+5678],DX
0736:912C 0A05              OR      AL,[DI]
0736:912E 0A6578            OR      AH,[DI+78]
0736:9131 0ABD5634          OR      BH,[DI+3456]
0736:9135 0A4E00            OR      CL,[BP+00]
0736:9138 0A5678            OR      DL,[BP+78]
0736:913B 0A9E5634          OR      BL,[BP+3456]
0736:913F 0A2A              OR      CH,[BP+SI]
0736:9141 087578            OR      [DI+78],DH
0736:9144 08955634          OR      [DI+3456],DL
0736:9148 086E00            OR      [BP+00],CH
0736:914B 084E56            OR      [BP+56],CL
0736:914E 08BE5634          OR      [BP+3456],BH
0736:9152 081A              OR      [BP+SI],BL
0736:9154 086245            OR      [BP+SI+45],AH
0736:9157 08827856          OR      [BP+SI+5678],AL
0736:915B 804D7815          OR      BYTE PTR [DI+78],15
0736:915F 808D563416        OR      BYTE PTR [DI+3456],16
0736:9164 804E0028          OR      BYTE PTR [BP+00],28
0736:9168 804E5688          OR      BYTE PTR [BP+56],88
0736:916C 818E56343412      OR      WORD PTR [BP+3456],1234
0736:9172 810A1534          OR      WORD PTR [BP+SI],3415
0736:9176 814A458547        OR      WORD PTR [BP+SI+45],4785
0736:917B 818A78563615      OR      WORD PTR [BP+SI+5678],1536
0736:9181 80C915            OR      CL,15
0736:9184 80CD16            OR      CH,16
0736:9187 80CA28            OR      DL,28
0736:918A 80CC88            OR      AH,88
0736:918D 81CB3412          OR      BX,1234
0736:9191 81CF1534          OR      DI,3415
0736:9195 81CC8547          OR      SP,4785
0736:9199 81CD3615          OR      BP,1536
0736:919D 0C15              OR      AL,15
0736:919F 0D1716            OR      AX,1617
0736:91A2 330F              XOR     CX,[BX]
0736:91A4 335778            XOR     DX,[BX+78]
0736:91A7 339F5634          XOR     BX,[BX+3456]
0736:91AB 3330              XOR     SI,[BX+SI]
0736:91AD 337879            XOR     DI,[BX+SI+79]
0736:91B0 33A87856          XOR     BP,[BX+SI+5678]
0736:91B4 3331              XOR     SI,[BX+DI]
0736:91B6 337929            XOR     DI,[BX+DI+29]
0736:91B9 33A97856          XOR     BP,[BX+DI+5678]
0736:91BD 3324              XOR     SP,[SI]
0736:91BF 335428            XOR     DX,[SI+28]
0736:91C2 339C5634          XOR     BX,[SI+3456]
0736:91C6 3305              XOR     AX,[DI]
0736:91C8 335558            XOR     DX,[DI+58]
0736:91CB 339D5634          XOR     BX,[DI+3456]
0736:91CF 334E00            XOR     CX,[BP+00]
0736:91D2 335658            XOR     DX,[BP+58]
0736:91D5 339E5634          XOR     BX,[BP+3456]
0736:91D9 3332              XOR     SI,[BP+SI]
0736:91DB 337A39            XOR     DI,[BP+SI+39]
0736:91DE 33AA7856          XOR     BP,[BP+SI+5678]
0736:91E2 3333              XOR     SI,[BP+DI]
0736:91E4 337B49            XOR     DI,[BP+DI+49]
0736:91E7 33AB7856          XOR     BP,[BP+DI+5678]
0736:91EB 310F              XOR     [BX],CX
0736:91ED 315778            XOR     [BX+78],DX
0736:91F0 319F5634          XOR     [BX+3456],BX
0736:91F4 3100              XOR     [BX+SI],AX
0736:91F6 316069            XOR     [BX+SI+69],SP
0736:91F9 31B87856          XOR     [BX+SI+5678],DI
0736:91FD 3129              XOR     [BX+DI],BP
0736:91FF 317149            XOR     [BX+DI+49],SI
0736:9202 31B97856          XOR     [BX+DI+5678],DI
0736:9206 3104              XOR     [SI],AX
0736:9208 314C78            XOR     [SI+78],CX
0736:920B 31945634          XOR     [SI+3456],DX
0736:920F 312D              XOR     [DI],BP
0736:9211 316578            XOR     [DI+78],SP
0736:9214 31B55634          XOR     [DI+3456],SI
0736:9218 317E00            XOR     [BP+00],DI
0736:921B 314E78            XOR     [BP+78],CX
0736:921E 31965634          XOR     [BP+3456],DX
0736:9222 3132              XOR     [BP+SI],SI
0736:9224 317A59            XOR     [BP+SI+59],DI
0736:9227 31827856          XOR     [BP+SI+5678],AX
0736:922B 313B              XOR     [BP+DI],DI
0736:922D 315B19            XOR     [BP+DI+19],BX
0736:9230 31937856          XOR     [BP+DI+5678],DX
0736:9234 3205              XOR     AL,[DI]
0736:9236 326578            XOR     AH,[DI+78]
0736:9239 32BD5634          XOR     BH,[DI+3456]
0736:923D 324E00            XOR     CL,[BP+00]
0736:9240 325678            XOR     DL,[BP+78]
0736:9243 329E5634          XOR     BL,[BP+3456]
0736:9247 322A              XOR     CH,[BP+SI]
0736:9249 307578            XOR     [DI+78],DH
0736:924C 30955634          XOR     [DI+3456],DL
0736:9250 306E00            XOR     [BP+00],CH
0736:9253 304E56            XOR     [BP+56],CL
0736:9256 30BE5634          XOR     [BP+3456],BH
0736:925A 301A              XOR     [BP+SI],BL
0736:925C 306245            XOR     [BP+SI+45],AH
0736:925F 30827856          XOR     [BP+SI+5678],AL
0736:9263 80757815          XOR     BYTE PTR [DI+78],15
0736:9267 80B5563416        XOR     BYTE PTR [DI+3456],16
0736:926C 80760028          XOR     BYTE PTR [BP+00],28
0736:9270 80765688          XOR     BYTE PTR [BP+56],88
0736:9274 81B656343412      XOR     WORD PTR [BP+3456],1234
0736:927A 81321534          XOR     WORD PTR [BP+SI],3415
0736:927E 8172458547        XOR     WORD PTR [BP+SI+45],4785
0736:9283 81B278563615      XOR     WORD PTR [BP+SI+5678],1536
0736:9289 80F115            XOR     CL,15
0736:928C 80F516            XOR     CH,16
0736:928F 80F228            XOR     DL,28
0736:9292 80F488            XOR     AH,88
0736:9295 81F33412          XOR     BX,1234
0736:9299 81F71534          XOR     DI,3415
0736:929D 81F48547          XOR     SP,4785
0736:92A1 81F53615          XOR     BP,1536
0736:92A5 3418              XOR     AL,18
0736:92A7 357756            XOR     AX,5677
0736:92AA AC                LODSB
0736:92AB AD                LODSW
0736:92AC A4                MOVSB
0736:92AD A5                MOVSW
0736:92AE A6                CMPSB
0736:92AF A7                CMPSW
0736:92B0 AE                SCASB
0736:92B1 AF                SCASW
0736:92B2 AA                STOSB
0736:92B3 AB                STOSW
0736:92B4 F3A6              REPE    CMPSB
0736:92B6 F2A6              REPNE   CMPSB
0736:92B8 F8                CLC
0736:92B9 F5                CMC
0736:92BA F9                STC
0736:92BB FC                CLD
0736:92BC FD                STD
0736:92BD FA                CLI
0736:92BE FB                STI
0736:92BF F4                HLT
0736:92C0 9B                WAIT    (unused)
0736:92C1 F0                LOCK    (unused)
0736:92C2 741E              JZ      92E2
0736:92C4 741D              JZ      92E3
0736:92C6 7CFA              JL      92C2
0736:92C8 7E48              JLE     9312
0736:92CA 72F6              JB      92C2
0736:92CC 7614              JBE     92E2
0736:92CE 7A14              JPE     92E4
0736:92D0 70F0              JO      92C2
0736:92D2 78F0              JS      92C4
0736:92D4 75F0              JNZ     92C6
0736:92D6 75EC              JNZ     92C4
0736:92D8 7D08              JGE     92E2
0736:92DA 7F09              JG      92E5
0736:92DC 73E6              JAE     92C4
0736:92DE 77E2              JA      92C2
0736:92E0 7BF0              JPO     92D2
0736:92E2 71DE              JNO     92C2
0736:92E4 792C              JNS     9312
0736:92E6 E22C              LOOPW   9314
0736:92E8 E1D8              LOOPZW  92C2
0736:92EA E1D7              LOOPZW  92C3
0736:92EC E0D6              LOOPNZW 92C4
0736:92EE E0D5              LOOPNZW 92C5
0736:92F0 E3F5              JCXZ    92E7
0736:92F2 E82333            CALL    C618
0736:92F5 FF17              CALL    WORD PTR [BX]
0736:92F7 FF5778            CALL    WORD PTR [BX+78]
0736:92FA FF975634          CALL    WORD PTR [BX+3456]
0736:92FE FF10              CALL    WORD PTR [BX+SI]
0736:9300 FF5079            CALL    WORD PTR [BX+SI+79]
0736:9303 FF907856          CALL    WORD PTR [BX+SI+5678]
0736:9307 FF11              CALL    WORD PTR [BX+DI]
0736:9309 FF5129            CALL    WORD PTR [BX+DI+29]
0736:930C FF917856          CALL    WORD PTR [BX+DI+5678]
0736:9310 FF14              CALL    WORD PTR [SI]
0736:9312 FF5428            CALL    WORD PTR [SI+28]
0736:9315 FF945634          CALL    WORD PTR [SI+3456]
0736:9319 FF15              CALL    WORD PTR [DI]
0736:931B FFD0              CALL    AX
0736:931D FFD3              CALL    BX
0736:931F FFD1              CALL    CX
0736:9321 FFD2              CALL    DX
0736:9323 FFD4              CALL    SP
0736:9325 FFD7              CALL    DI
0736:9327 FFD5              CALL    BP
0736:9329 FFD6              CALL    SI
0736:932B FFD5              CALL    BP
0736:932D 9A45225634        CALL    3456:2245
0736:9332 FF1F              CALL    FAR [BX]
0736:9334 FF5F78            CALL    FAR [BX+78]
0736:9337 FF9F5634          CALL    FAR [BX+3456]
0736:933B FF18              CALL    FAR [BX+SI]
0736:933D FF5879            CALL    FAR [BX+SI+79]
0736:9340 FF987856          CALL    FAR [BX+SI+5678]
0736:9344 FF19              CALL    FAR [BX+DI]
0736:9346 FF5929            CALL    FAR [BX+DI+29]
0736:9349 FF997856          CALL    FAR [BX+DI+5678]
0736:934D FF1C              CALL    FAR [SI]
0736:934F FF5C28            CALL    FAR [SI+28]
0736:9352 FF9C5634          CALL    FAR [SI+3456]
0736:9356 FF1D              CALL    FAR [DI]
0736:9358 E9BD32            JMP     C618
0736:935B EB15              JMP     9372
0736:935D FF27              JMP     WORD PTR [BX]
0736:935F FF6778            JMP     WORD PTR [BX+78]
0736:9362 FFA75634          JMP     WORD PTR [BX+3456]
0736:9366 FF20              JMP     WORD PTR [BX+SI]
0736:9368 FF6079            JMP     WORD PTR [BX+SI+79]
0736:936B FFA07856          JMP     WORD PTR [BX+SI+5678]
0736:936F FF21              JMP     WORD PTR [BX+DI]
0736:9371 FF6129            JMP     WORD PTR [BX+DI+29]
0736:9374 FFA17856          JMP     WORD PTR [BX+DI+5678]
0736:9378 FF24              JMP     WORD PTR [SI]
0736:937A FF6428            JMP     WORD PTR [SI+28]
0736:937D FFA45634          JMP     WORD PTR [SI+3456]
0736:9381 FF25              JMP     WORD PTR [DI]
0736:9383 FFE0              JMP     AX
0736:9385 FFE3              JMP     BX
0736:9387 FFE1              JMP     CX
0736:9389 FFE2              JMP     DX
0736:938B FFE4              JMP     SP
0736:938D FFE7              JMP     DI
0736:938F FFE5              JMP     BP
0736:9391 FFE6              JMP     SI
0736:9393 FFE5              JMP     BP
0736:9395 EA45225634        JMP     3456:2245
0736:939A FF2F              JMP     FAR [BX]
0736:939C FF6F78            JMP     FAR [BX+78]
0736:939F FFAF5634          JMP     FAR [BX+3456]
0736:93A3 FF28              JMP     FAR [BX+SI]
0736:93A5 FF6879            JMP     FAR [BX+SI+79]
0736:93A8 FFA87856          JMP     FAR [BX+SI+5678]
0736:93AC FF29              JMP     FAR [BX+DI]
0736:93AE FF6929            JMP     FAR [BX+DI+29]
0736:93B1 FFA97856          JMP     FAR [BX+DI+5678]
0736:93B5 FF2C              JMP     FAR [SI]
0736:93B7 FF6C28            JMP     FAR [SI+28]
0736:93BA FFAC5634          JMP     FAR [SI+3456]
0736:93BE FF2D              JMP     FAR [DI]
0736:93C0 C3                RET
0736:93C1 C22301            RET     0123
0736:93C4 CB                RETF
0736:93C5 CA4523            RETF    2345
0736:93C8 CC                INT     3
0736:93C9 CE                INTO
0736:93CA CD21              INT     21
0736:93CC CD80              INT     80
0736:93CE D9D0              FNOP
0736:93D0 D904              FLD     FLOAT PTR [SI]
0736:93D2 DD00              FLD     DOUBLE PTR [BX+SI]
0736:93D4 DF05              FILD    WORD PTR [DI]
0736:93D6 DF6712            FBLD    TBYTE PTR [BX+12]
0736:93D9 D9CB              FXCH    ST(3)
0736:93DB D9E4              FTST
0736:93DD DF1E6745          FISTP   WORD PTR [4567]
0736:93E1 D9FA              FSQRT
0736:93E3 D9F3              FPATAN
0736:93E5 9BD92F            FLDCW   WORD PTR [BX]
0736:93E8 8B0F              MOV     CX,[BX]
0736:93EA 8B5778            MOV     DX,[BX+78]
0736:93ED 8B9F5634          MOV     BX,[BX+3456]
0736:93F1 8B30              MOV     SI,[BX+SI]
0736:93F3 8B7879            MOV     DI,[BX+SI+79]
0736:93F6 8BA87856          MOV     BP,[BX+SI+5678]
0736:93FA 8B31              MOV     SI,[BX+DI]
0736:93FC 8B7929            MOV     DI,[BX+DI+29]
0736:93FF 8BA97856          MOV     BP,[BX+DI+5678]
0736:9403 8B24              MOV     SP,[SI]
0736:9405 8B5428            MOV     DX,[SI+28]
0736:9408 8B9C5634          MOV     BX,[SI+3456]
0736:940C 8B05              MOV     AX,[DI]
0736:940E 8B5558            MOV     DX,[DI+58]
0736:9411 8B9D5634          MOV     BX,[DI+3456]
0736:9415 8B4E00            MOV     CX,[BP+00]
0736:9418 8B5658            MOV     DX,[BP+58]
0736:941B 8B9E5634          MOV     BX,[BP+3456]
0736:941F 8B32              MOV     SI,[BP+SI]
0736:9421 8B7A39            MOV     DI,[BP+SI+39]
0736:9424 8BAA7856          MOV     BP,[BP+SI+5678]
0736:9428 8B33              MOV     SI,[BP+DI]
0736:942A 8B7B49            MOV     DI,[BP+DI+49]
0736:942D 8BAB7856          MOV     BP,[BP+DI+5678]
0736:9431 890F              MOV     [BX],CX
0736:9433 895778            MOV     [BX+78],DX
0736:9436 899F5634          MOV     [BX+3456],BX
0736:943A 8900              MOV     [BX+SI],AX
0736:943C 896069            MOV     [BX+SI+69],SP
0736:943F 89B87856          MOV     [BX+SI+5678],DI
0736:9443 8929              MOV     [BX+DI],BP
0736:9445 897149            MOV     [BX+DI+49],SI
0736:9448 89B97856          MOV     [BX+DI+5678],DI
0736:944C 8904              MOV     [SI],AX
0736:944E 894C78            MOV     [SI+78],CX
0736:9451 89945634          MOV     [SI+3456],DX
0736:9455 892D              MOV     [DI],BP
0736:9457 896578            MOV     [DI+78],SP
0736:945A 89B55634          MOV     [DI+3456],SI
0736:945E 897E00            MOV     [BP+00],DI
0736:9461 894E78            MOV     [BP+78],CX
0736:9464 89965634          MOV     [BP+3456],DX
0736:9468 8932              MOV     [BP+SI],SI
0736:946A 897A59            MOV     [BP+SI+59],DI
0736:946D 89827856          MOV     [BP+SI+5678],AX
0736:9471 893B              MOV     [BP+DI],DI
0736:9473 895B19            MOV     [BP+DI+19],BX
0736:9476 89937856          MOV     [BP+DI+5678],DX
0736:947A 8A05              MOV     AL,[DI]
0736:947C 8A6578            MOV     AH,[DI+78]
0736:947F 8ABD5634          MOV     BH,[DI+3456]
0736:9483 8A4E00            MOV     CL,[BP+00]
0736:9486 8A5678            MOV     DL,[BP+78]
0736:9489 8A9E5634          MOV     BL,[BP+3456]
0736:948D 8A2A              MOV     CH,[BP+SI]
0736:948F 887578            MOV     [DI+78],DH
0736:9492 88955634          MOV     [DI+3456],DL
0736:9496 886E00            MOV     [BP+00],CH
0736:9499 884E56            MOV     [BP+56],CL
0736:949C 88BE5634          MOV     [BP+3456],BH
0736:94A0 881A              MOV     [BP+SI],BL
0736:94A2 886245            MOV     [BP+SI+45],AH
0736:94A5 88827856          MOV     [BP+SI+5678],AL
0736:94A9 C6457815          MOV     BYTE PTR [DI+78],15
0736:94AD C685563416        MOV     BYTE PTR [DI+3456],16
0736:94B2 C6460028          MOV     BYTE PTR [BP+00],28
0736:94B6 C6465688          MOV     BYTE PTR [BP+56],88
0736:94BA C78656343412      MOV     WORD PTR [BP+3456],1234
0736:94C0 C7021534          MOV     WORD PTR [BP+SI],3415
0736:94C4 C742458547        MOV     WORD PTR [BP+SI+45],4785
0736:94C9 C78278563615      MOV     WORD PTR [BP+SI+5678],1536
0736:94CF B015              MOV     AL,15
0736:94D1 B416              MOV     AH,16
0736:94D3 B128              MOV     CL,28
0736:94D5 B688              MOV     DH,88
0736:94D7 BB3412            MOV     BX,1234
0736:94DA BE1534            MOV     SI,3415
0736:94DD BC8547            MOV     SP,4785
0736:94E0 BD3615            MOV     BP,1536
0736:94E3 C7C51254          MOV     BP,5412
0736:94E7 A13412            MOV     AX,[1234]
0736:94EA A03412            MOV     AL,[1234]
0736:94ED A31234            MOV     [3412],AX
0736:94F0 A21234            MOV     [3412],AL
0736:94F3 8C0F              MOV     WORD PTR [BX],CS
0736:94F5 8C5778            MOV     WORD PTR [BX+78],SS
0736:94F8 8C9F5634          MOV     WORD PTR [BX+3456],DS
0736:94FC 8C00              MOV     WORD PTR [BX+SI],ES
0736:94FE 8C4869            MOV     WORD PTR [BX+SI+69],CS
0736:9501 8E1F              MOV     DS,WORD PTR [BX]
0736:9503 8E4F78            MOV     CS,WORD PTR [BX+78]
0736:9506 8E975634          MOV     SS,WORD PTR [BX+3456]
0736:950A 8E00              MOV     ES,WORD PTR [BX+SI]
0736:950C 8E5869            MOV     DS,WORD PTR [BX+SI+69]
0736:950F FF37              PUSH    WORD PTR [BX]
0736:9511 FF7778            PUSH    WORD PTR [BX+78]
0736:9514 FFB75634          PUSH    WORD PTR [BX+3456]
0736:9518 FF30              PUSH    WORD PTR [BX+SI]
0736:951A FF7079            PUSH    WORD PTR [BX+SI+79]
0736:951D FFB07856          PUSH    WORD PTR [BX+SI+5678]
0736:9521 FF31              PUSH    WORD PTR [BX+DI]
0736:9523 FF35              PUSH    WORD PTR [DI]
0736:9525 FF7558            PUSH    WORD PTR [DI+58]
0736:9528 FFB55634          PUSH    WORD PTR [DI+3456]
0736:952C FF7600            PUSH    WORD PTR [BP+00]
0736:952F FF7658            PUSH    WORD PTR [BP+58]
0736:9532 FFB65634          PUSH    WORD PTR [BP+3456]
0736:9536 FFB37856          PUSH    WORD PTR [BP+DI+5678]
0736:953A 1E                PUSH    DS
0736:953B 0E                PUSH    CS
0736:953C 16                PUSH    SS
0736:953D 06                PUSH    ES
0736:953E 8F07              POP     WORD PTR [BX]
0736:9540 8F4778            POP     WORD PTR [BX+78]
0736:9543 8F875634          POP     WORD PTR [BX+3456]
0736:9547 8F00              POP     WORD PTR [BX+SI]
0736:9549 8F4079            POP     WORD PTR [BX+SI+79]
0736:954C 8F807856          POP     WORD PTR [BX+SI+5678]
0736:9550 8F01              POP     WORD PTR [BX+DI]
0736:9552 8F05              POP     WORD PTR [DI]
0736:9554 8F4558            POP     WORD PTR [DI+58]
0736:9557 8F855634          POP     WORD PTR [DI+3456]
0736:955B 8F4600            POP     WORD PTR [BP+00]
0736:955E 8F4658            POP     WORD PTR [BP+58]
0736:9561 8F865634          POP     WORD PTR [BP+3456]
0736:9565 8F837856          POP     WORD PTR [BP+DI+5678]
0736:9569 1F                POP     DS
0736:956A 0F                DB      0F
0736:956B 17                POP     SS
0736:956C 07                POP     ES
0736:956D 50                PUSH    AX
0736:956E 51                PUSH    CX
0736:956F 52                PUSH    DX
0736:9570 53                PUSH    BX
0736:9571 54                PUSH    SP
0736:9572 55                PUSH    BP
0736:9573 56                PUSH    SI
0736:9574 57                PUSH    DI
0736:9575 58                POP     AX
0736:9576 59                POP     CX
0736:9577 5A                POP     DX
0736:9578 5B                POP     BX
0736:9579 5C                POP     SP
0736:957A 5D                POP     BP
0736:957B 5E                POP     SI
0736:957C 5F                POP     DI
0736:957D 86E0              XCHG    AH,AL
0736:957F 86E1              XCHG    AH,CL
0736:9581 86D8              XCHG    BL,AL
0736:9583 86EA              XCHG    CH,DL
0736:9585 86FE              XCHG    BH,DH
0736:9587 87CB              XCHG    CX,BX
0736:9589 87DB              XCHG    BX,BX
0736:958B 87CA              XCHG    CX,DX
0736:958D 87D9              XCHG    BX,CX
0736:958F 87EC              XCHG    BP,SP
0736:9591 87FE              XCHG    DI,SI
0736:9593 87F9              XCHG    DI,CX
0736:9595 87F7              XCHG    SI,DI
0736:9597 87CD              XCHG    CX,BP
0736:9599 87EA              XCHG    BP,DX
0736:959B 8607              XCHG    AL,[BX]
0736:959D 864E00            XCHG    CL,[BP+00]
0736:95A0 8600              XCHG    AL,[BX+SI]
0736:95A2 86964523          XCHG    DL,[BP+2345]
0736:95A6 86B45423          XCHG    DH,[SI+2354]
0736:95AA 8737              XCHG    SI,[BX]
0736:95AC 870B              XCHG    CX,[BP+DI]
0736:95AE 874015            XCHG    AX,[BX+SI+15]
0736:95B1 87AB4523          XCHG    BP,[BP+DI+2345]
0736:95B5 87945423          XCHG    DX,[SI+2354]
0736:95B9 90                NOP
0736:95BA 91                XCHG    AX,CX
0736:95BB 92                XCHG    AX,DX
0736:95BC 93                XCHG    AX,BX
0736:95BD 94                XCHG    AX,SP
0736:95BE 95                XCHG    AX,BP
0736:95BF 96                XCHG    AX,SI
0736:95C0 97                XCHG    AX,DI
0736:95C1 E412              IN      AL,12
0736:95C3 E515              IN      AX,15
0736:95C5 EC                IN      AL,DX
0736:95C6 ED                IN      AX,DX
0736:95C7 E617              OUT     17,AL
0736:95C9 E745              OUT     45,AX
0736:95CB EE                OUT     DX,AL
0736:95CC EF                OUT     DX,AX
0736:95CD D7                XLATB
0736:95CE 8D985423          LEA     BX,[BX+SI+2354]
0736:95D2 8D4A54            LEA     CX,[BP+SI+54]
0736:95D5 8D5600            LEA     DX,[BP+00]
0736:95D8 8D3E1200          LEA     DI,[0012]
0736:95DC C4985423          LES     BX,[BX+SI+2354]
0736:95E0 C54A54            LDS     CX,[BP+SI+54]
0736:95E3 C45600            LES     DX,[BP+00]
0736:95E6 9F                LAHF
0736:95E7 9E                SAHF
0736:95E8 9C                PUSHF
0736:95E9 9D                POPF
0736:95EA 030F              ADD     CX,[BX]
0736:95EC 035778            ADD     DX,[BX+78]
0736:95EF 039F5634          ADD     BX,[BX+3456]
0736:95F3 0330              ADD     SI,[BX+SI]
0736:95F5 037879            ADD     DI,[BX+SI+79]
0736:95F8 03A87856          ADD     BP,[BX+SI+5678]
0736:95FC 0331              ADD     SI,[BX+DI]
0736:95FE 037929            ADD     DI,[BX+DI+29]
0736:9601 03A97856          ADD     BP,[BX+DI+5678]
0736:9605 0324              ADD     SP,[SI]
0736:9607 035428            ADD     DX,[SI+28]
0736:960A 039C5634          ADD     BX,[SI+3456]
0736:960E 0305              ADD     AX,[DI]
0736:9610 035558            ADD     DX,[DI+58]
0736:9613 039D5634          ADD     BX,[DI+3456]
0736:9617 034E00            ADD     CX,[BP+00]
0736:961A 035658            ADD     DX,[BP+58]
0736:961D 039E5634          ADD     BX,[BP+3456]
0736:9621 0332              ADD     SI,[BP+SI]
0736:9623 037A39            ADD     DI,[BP+SI+39]
0736:9626 03AA7856          ADD     BP,[BP+SI+5678]
0736:962A 0333              ADD     SI,[BP+DI]
0736:962C 037B49            ADD     DI,[BP+DI+49]
0736:962F 03AB7856          ADD     BP,[BP+DI+5678]
0736:9633 010F              ADD     [BX],CX
0736:9635 015778            ADD     [BX+78],DX
0736:9638 019F5634          ADD     [BX+3456],BX
0736:963C 0100              ADD     [BX+SI],AX
0736:963E 016069            ADD     [BX+SI+69],SP
0736:9641 01B87856          ADD     [BX+SI+5678],DI
0736:9645 0129              ADD     [BX+DI],BP
0736:9647 017149            ADD     [BX+DI+49],SI
0736:964A 01B97856          ADD     [BX+DI+5678],DI
0736:964E 0104              ADD     [SI],AX
0736:9650 014C78            ADD     [SI+78],CX
0736:9653 01945634          ADD     [SI+3456],DX
0736:9657 012D              ADD     [DI],BP
0736:9659 016578            ADD     [DI+78],SP
0736:965C 01B55634          ADD     [DI+3456],SI
0736:9660 017E00            ADD     [BP+00],DI
0736:9663 014E78            ADD     [BP+78],CX
0736:9666 01965634          ADD     [BP+3456],DX
0736:966A 0132              ADD     [BP+SI],SI
0736:966C 017A59            ADD     [BP+SI+59],DI
0736:966F 01827856          ADD     [BP+SI+5678],AX
0736:9673 013B              ADD     [BP+DI],DI
0736:9675 015B19            ADD     [BP+DI+19],BX
0736:9678 01937856          ADD     [BP+DI+5678],DX
0736:967C 0205              ADD     AL,[DI]
0736:967E 026578            ADD     AH,[DI+78]
0736:9681 02BD5634          ADD     BH,[DI+3456]
0736:9685 024E00            ADD     CL,[BP+00]
0736:9688 025678            ADD     DL,[BP+78]
0736:968B 029E5634          ADD     BL,[BP+3456]
0736:968F 022A              ADD     CH,[BP+SI]
0736:9691 007578            ADD     [DI+78],DH
0736:9694 00955634          ADD     [DI+3456],DL
0736:9698 006E00            ADD     [BP+00],CH
0736:969B 004E56            ADD     [BP+56],CL
0736:969E 00BE5634          ADD     [BP+3456],BH
0736:96A2 001A              ADD     [BP+SI],BL
0736:96A4 006245            ADD     [BP+SI+45],AH
0736:96A7 00827856          ADD     [BP+SI+5678],AL
0736:96AB 80457815          ADD     BYTE PTR [DI+78],15
0736:96AF 8085563416        ADD     BYTE PTR [DI+3456],16
0736:96B4 80460028          ADD     BYTE PTR [BP+00],28
0736:96B8 80465688          ADD     BYTE PTR [BP+56],88
0736:96BC 818656343412      ADD     WORD PTR [BP+3456],1234
0736:96C2 81021534          ADD     WORD PTR [BP+SI],3415
0736:96C6 8142458547        ADD     WORD PTR [BP+SI+45],4785
0736:96CB 818278563615      ADD     WORD PTR [BP+SI+5678],1536
0736:96D1 8386563412        ADD     WORD PTR [BP+3456],+12
0736:96D6 830235            ADD     WORD PTR [BP+SI],+35
0736:96D9 83424545          ADD     WORD PTR [BP+SI+45],+45
0736:96DD 8382785616        ADD     WORD PTR [BP+SI+5678],+16
0736:96E2 80C115            ADD     CL,15
0736:96E5 80C516            ADD     CH,16
0736:96E8 80C228            ADD     DL,28
0736:96EB 80C488            ADD     AH,88
0736:96EE 81C33412          ADD     BX,1234
0736:96F2 81C71534          ADD     DI,3415
0736:96F6 81C48547          ADD     SP,4785
0736:96FA 81C53615          ADD     BP,1536
0736:96FE 83C314            ADD     BX,+14
0736:9701 83C635            ADD     SI,+35
0736:9704 83C465            ADD     SP,+65
0736:9707 83C516            ADD     BP,+16
0736:970A 0417              ADD     AL,17
0736:970C 051752            ADD     AX,5217
0736:970F 130F              ADC     CX,[BX]
0736:9711 135778            ADC     DX,[BX+78]
0736:9714 139F5634          ADC     BX,[BX+3456]
0736:9718 1330              ADC     SI,[BX+SI]
0736:971A 137879            ADC     DI,[BX+SI+79]
0736:971D 13A87856          ADC     BP,[BX+SI+5678]
0736:9721 1331              ADC     SI,[BX+DI]
0736:9723 137929            ADC     DI,[BX+DI+29]
0736:9726 13A97856          ADC     BP,[BX+DI+5678]
0736:972A 1324              ADC     SP,[SI]
0736:972C 135428            ADC     DX,[SI+28]
0736:972F 139C5634          ADC     BX,[SI+3456]
0736:9733 1305              ADC     AX,[DI]
0736:9735 135558            ADC     DX,[DI+58]
0736:9738 139D5634          ADC     BX,[DI+3456]
0736:973C 134E00            ADC     CX,[BP+00]
0736:973F 135658            ADC     DX,[BP+58]
0736:9742 139E5634          ADC     BX,[BP+3456]
0736:9746 1332              ADC     SI,[BP+SI]
0736:9748 137A39            ADC     DI,[BP+SI+39]
0736:974B 13AA7856          ADC     BP,[BP+SI+5678]
0736:974F 1333              ADC     SI,[BP+DI]
0736:9751 137B49            ADC     DI,[BP+DI+49]
0736:9754 13AB7856          ADC     BP,[BP+DI+5678]
0736:9758 110F              ADC     [BX],CX
0736:975A 115778            ADC     [BX+78],DX
0736:975D 119F5634          ADC     [BX+3456],BX
0736:9761 1100              ADC     [BX+SI],AX
0736:9763 116069            ADC     [BX+SI+69],SP
0736:9766 11B87856          ADC     [BX+SI+5678],DI
0736:976A 1129              ADC     [BX+DI],BP
0736:976C 117149            ADC     [BX+DI+49],SI
0736:976F 11B97856          ADC     [BX+DI+5678],DI
0736:9773 1104              ADC     [SI],AX
0736:9775 114C78            ADC     [SI+78],CX
0736:9778 11945634          ADC     [SI+3456],DX
0736:977C 112D              ADC     [DI],BP
0736:977E 116578            ADC     [DI+78],SP
0736:9781 11B55634          ADC     [DI+3456],SI
0736:9785 117E00            ADC     [BP+00],DI
0736:9788 114E78            ADC     [BP+78],CX
0736:978B 11965634          ADC     [BP+3456],DX
0736:978F 1132              ADC     [BP+SI],SI
0736:9791 117A59            ADC     [BP+SI+59],DI
0736:9794 11827856          ADC     [BP+SI+5678],AX
0736:9798 113B              ADC     [BP+DI],DI
0736:979A 115B19            ADC     [BP+DI+19],BX
0736:979D 11937856          ADC     [BP+DI+5678],DX
0736:97A1 1205              ADC     AL,[DI]
0736:97A3 126578            ADC     AH,[DI+78]
0736:97A6 12BD5634          ADC     BH,[DI+3456]
0736:97AA 124E00            ADC     CL,[BP+00]
0736:97AD 125678            ADC     DL,[BP+78]
0736:97B0 129E5634          ADC     BL,[BP+3456]
0736:97B4 122A              ADC     CH,[BP+SI]
0736:97B6 107578            ADC     [DI+78],DH
0736:97B9 10955634          ADC     [DI+3456],DL
0736:97BD 106E00            ADC     [BP+00],CH
0736:97C0 104E56            ADC     [BP+56],CL
0736:97C3 10BE5634          ADC     [BP+3456],BH
0736:97C7 101A              ADC     [BP+SI],BL
0736:97C9 106245            ADC     [BP+SI+45],AH
0736:97CC 10827856          ADC     [BP+SI+5678],AL
0736:97D0 80557815          ADC     BYTE PTR [DI+78],15
0736:97D4 8095563416        ADC     BYTE PTR [DI+3456],16
0736:97D9 80560028          ADC     BYTE PTR [BP+00],28
0736:97DD 80565688          ADC     BYTE PTR [BP+56],88
0736:97E1 819656343412      ADC     WORD PTR [BP+3456],1234
0736:97E7 81121534          ADC     WORD PTR [BP+SI],3415
0736:97EB 8152458547        ADC     WORD PTR [BP+SI+45],4785
0736:97F0 819278563615      ADC     WORD PTR [BP+SI+5678],1536
0736:97F6 8396563412        ADC     WORD PTR [BP+3456],+12
0736:97FB 831235            ADC     WORD PTR [BP+SI],+35
0736:97FE 83524545          ADC     WORD PTR [BP+SI+45],+45
0736:9802 8392785616        ADC     WORD PTR [BP+SI+5678],+16
0736:9807 80D115            ADC     CL,15
0736:980A 80D516            ADC     CH,16
0736:980D 80D228            ADC     DL,28
0736:9810 80D488            ADC     AH,88
0736:9813 81D33412          ADC     BX,1234
0736:9817 81D71534          ADC     DI,3415
0736:981B 81D48547          ADC     SP,4785
0736:981F 81D53615          ADC     BP,1536
0736:9823 83D314            ADC     BX,+14
0736:9826 83D635            ADC     SI,+35
0736:9829 83D465            ADC     SP,+65
0736:982C 83D516            ADC     BP,+16
0736:982F 0417              ADD     AL,17
0736:9831 051752            ADD     AX,5217
0736:9834 3B0F              CMP     CX,[BX]
0736:9836 3B5778            CMP     DX,[BX+78]
0736:9839 3B9F5634          CMP     BX,[BX+3456]
0736:983D 3B30              CMP     SI,[BX+SI]
0736:983F 3B7879            CMP     DI,[BX+SI+79]
0736:9842 3BA87856          CMP     BP,[BX+SI+5678]
0736:9846 3B31              CMP     SI,[BX+DI]
0736:9848 3B7929            CMP     DI,[BX+DI+29]
0736:984B 3BA97856          CMP     BP,[BX+DI+5678]
0736:984F 3B24              CMP     SP,[SI]
0736:9851 3B5428            CMP     DX,[SI+28]
0736:9854 3B9C5634          CMP     BX,[SI+3456]
0736:9858 3B05              CMP     AX,[DI]
0736:985A 3B5558            CMP     DX,[DI+58]
0736:985D 3B9D5634          CMP     BX,[DI+3456]
0736:9861 3B4E00            CMP     CX,[BP+00]
0736:9864 3B5658            CMP     DX,[BP+58]
0736:9867 3B9E5634          CMP     BX,[BP+3456]
0736:986B 3B32              CMP     SI,[BP+SI]
0736:986D 3B7A39            CMP     DI,[BP+SI+39]
0736:9870 3BAA7856          CMP     BP,[BP+SI+5678]
0736:9874 3B33              CMP     SI,[BP+DI]
0736:9876 3B7B49            CMP     DI,[BP+DI+49]
0736:9879 3BAB7856          CMP     BP,[BP+DI+5678]
0736:987D 390F              CMP     [BX],CX
0736:987F 395778            CMP     [BX+78],DX
0736:9882 399F5634          CMP     [BX+3456],BX
0736:9886 3900              CMP     [BX+SI],AX
0736:9888 396069            CMP     [BX+SI+69],SP
0736:988B 39B87856          CMP     [BX+SI+5678],DI
0736:988F 3929              CMP     [BX+DI],BP
0736:9891 397149            CMP     [BX+DI+49],SI
0736:9894 39B97856          CMP     [BX+DI+5678],DI
0736:9898 3904              CMP     [SI],AX
0736:989A 394C78            CMP     [SI+78],CX
0736:989D 39945634          CMP     [SI+3456],DX
0736:98A1 392D              CMP     [DI],BP
0736:98A3 396578            CMP     [DI+78],SP
0736:98A6 39B55634          CMP     [DI+3456],SI
0736:98AA 397E00            CMP     [BP+00],DI
0736:98AD 394E78            CMP     [BP+78],CX
0736:98B0 39965634          CMP     [BP+3456],DX
0736:98B4 3932              CMP     [BP+SI],SI
0736:98B6 397A59            CMP     [BP+SI+59],DI
0736:98B9 39827856          CMP     [BP+SI+5678],AX
0736:98BD 393B              CMP     [BP+DI],DI
0736:98BF 395B19            CMP     [BP+DI+19],BX
0736:98C2 39937856          CMP     [BP+DI+5678],DX
0736:98C6 3A05              CMP     AL,[DI]
0736:98C8 3A6578            CMP     AH,[DI+78]
0736:98CB 3ABD5634          CMP     BH,[DI+3456]
0736:98CF 3A4E00            CMP     CL,[BP+00]
0736:98D2 3A5678            CMP     DL,[BP+78]
0736:98D5 3A9E5634          CMP     BL,[BP+3456]
0736:98D9 3A2A              CMP     CH,[BP+SI]
0736:98DB 387578            CMP     [DI+78],DH
0736:98DE 38955634          CMP     [DI+3456],DL
0736:98E2 386E00            CMP     [BP+00],CH
0736:98E5 384E56            CMP     [BP+56],CL
0736:98E8 38BE5634          CMP     [BP+3456],BH
0736:98EC 381A              CMP     [BP+SI],BL
0736:98EE 386245            CMP     [BP+SI+45],AH
0736:98F1 38827856          CMP     [BP+SI+5678],AL
0736:98F5 807D7815          CMP     BYTE PTR [DI+78],15
0736:98F9 80BD563416        CMP     BYTE PTR [DI+3456],16
0736:98FE 807E0028          CMP     BYTE PTR [BP+00],28
0736:9902 807E5688          CMP     BYTE PTR [BP+56],88
0736:9906 81BE56343412      CMP     WORD PTR [BP+3456],1234
0736:990C 813A1534          CMP     WORD PTR [BP+SI],3415
0736:9910 817A458547        CMP     WORD PTR [BP+SI+45],4785
0736:9915 81BA78563615      CMP     WORD PTR [BP+SI+5678],1536
0736:991B 83BE563412        CMP     WORD PTR [BP+3456],+12
0736:9920 833A35            CMP     WORD PTR [BP+SI],+35
0736:9923 837A4545          CMP     WORD PTR [BP+SI+45],+45
0736:9927 83BA785616        CMP     WORD PTR [BP+SI+5678],+16
0736:992C 80F915            CMP     CL,15
0736:992F 80FD16            CMP     CH,16
0736:9932 80FA28            CMP     DL,28
0736:9935 80FC88            CMP     AH,88
0736:9938 81FB3412          CMP     BX,1234
0736:993C 81FF1534          CMP     DI,3415
0736:9940 81FC8547          CMP     SP,4785
0736:9944 81FD3615          CMP     BP,1536
0736:9948 83FB14            CMP     BX,+14
0736:994B 83FE35            CMP     SI,+35
0736:994E 83FC65            CMP     SP,+65
0736:9951 83FD16            CMP     BP,+16
0736:9954 0417              ADD     AL,17
0736:9956 051752            ADD     AX,5217
0736:9959 2B0F              SUB     CX,[BX]
0736:995B 2B5778            SUB     DX,[BX+78]
0736:995E 2B9F5634          SUB     BX,[BX+3456]
0736:9962 2B30              SUB     SI,[BX+SI]
0736:9964 2B7879            SUB     DI,[BX+SI+79]
0736:9967 2BA87856          SUB     BP,[BX+SI+5678]
0736:996B 2B31              SUB     SI,[BX+DI]
0736:996D 2B7929            SUB     DI,[BX+DI+29]
0736:9970 2BA97856          SUB     BP,[BX+DI+5678]
0736:9974 2B24              SUB     SP,[SI]
0736:9976 2B5428            SUB     DX,[SI+28]
0736:9979 2B9C5634          SUB     BX,[SI+3456]
0736:997D 2B05              SUB     AX,[DI]
0736:997F 2B5558            SUB     DX,[DI+58]
0736:9982 2B9D5634          SUB     BX,[DI+3456]
0736:9986 2B4E00            SUB     CX,[BP+00]
0736:9989 2B5658            SUB     DX,[BP+58]
0736:998C 2B9E5634          SUB     BX,[BP+3456]
0736:9990 2B32              SUB     SI,[BP+SI]
0736:9992 2B7A39            SUB     DI,[BP+SI+39]
0736:9995 2BAA7856          SUB     BP,[BP+SI+5678]
0736:9999 2B33              SUB     SI,[BP+DI]
0736:999B 2B7B49            SUB     DI,[BP+DI+49]
0736:999E 2BAB7856          SUB     BP,[BP+DI+5678]
0736:99A2 290F              SUB     [BX],CX
0736:99A4 295778            SUB     [BX+78],DX
0736:99A7 299F5634          SUB     [BX+3456],BX
0736:99AB 2900              SUB     [BX+SI],AX
0736:99AD 296069            SUB     [BX+SI+69],SP
0736:99B0 29B87856          SUB     [BX+SI+5678],DI
0736:99B4 2929              SUB     [BX+DI],BP
0736:99B6 297149            SUB     [BX+DI+49],SI
0736:99B9 29B97856          SUB     [BX+DI+5678],DI
0736:99BD 2904              SUB     [SI],AX
0736:99BF 294C78            SUB     [SI+78],CX
0736:99C2 29945634          SUB     [SI+3456],DX
0736:99C6 292D              SUB     [DI],BP
0736:99C8 296578            SUB     [DI+78],SP
0736:99CB 29B55634          SUB     [DI+3456],SI
0736:99CF 297E00            SUB     [BP+00],DI
0736:99D2 294E78            SUB     [BP+78],CX
0736:99D5 29965634          SUB     [BP+3456],DX
0736:99D9 2932              SUB     [BP+SI],SI
0736:99DB 297A59            SUB     [BP+SI+59],DI
0736:99DE 29827856          SUB     [BP+SI+5678],AX
0736:99E2 293B              SUB     [BP+DI],DI
0736:99E4 295B19            SUB     [BP+DI+19],BX
0736:99E7 29937856          SUB     [BP+DI+5678],DX
0736:99EB 2A05              SUB     AL,[DI]
0736:99ED 2A6578            SUB     AH,[DI+78]
0736:99F0 2ABD5634          SUB     BH,[DI+3456]
0736:99F4 2A4E00            SUB     CL,[BP+00]
0736:99F7 2A5678            SUB     DL,[BP+78]
0736:99FA 2A9E5634          SUB     BL,[BP+3456]
0736:99FE 2A2A              SUB     CH,[BP+SI]
0736:9A00 287578            SUB     [DI+78],DH
0736:9A03 28955634          SUB     [DI+3456],DL
0736:9A07 286E00            SUB     [BP+00],CH
0736:9A0A 284E56            SUB     [BP+56],CL
0736:9A0D 28BE5634          SUB     [BP+3456],BH
0736:9A11 281A              SUB     [BP+SI],BL
0736:9A13 286245            SUB     [BP+SI+45],AH
0736:9A16 28827856          SUB     [BP+SI+5678],AL
0736:9A1A 806D7815          SUB     BYTE PTR [DI+78],15
0736:9A1E 80AD563416        SUB     BYTE PTR [DI+3456],16
0736:9A23 806E0028          SUB     BYTE PTR [BP+00],28
0736:9A27 806E5688          SUB     BYTE PTR [BP+56],88
0736:9A2B 81AE56343412      SUB     WORD PTR [BP+3456],1234
0736:9A31 812A1534          SUB     WORD PTR [BP+SI],3415
0736:9A35 816A458547        SUB     WORD PTR [BP+SI+45],4785
0736:9A3A 81AA78563615      SUB     WORD PTR [BP+SI+5678],1536
0736:9A40 83AE563412        SUB     WORD PTR [BP+3456],+12
0736:9A45 832A35            SUB     WORD PTR [BP+SI],+35
0736:9A48 836A4545          SUB     WORD PTR [BP+SI+45],+45
0736:9A4C 83AA785616        SUB     WORD PTR [BP+SI+5678],+16
0736:9A51 80E915            SUB     CL,15
0736:9A54 80ED16            SUB     CH,16
0736:9A57 80EA28            SUB     DL,28
0736:9A5A 80EC88            SUB     AH,88
0736:9A5D 81EB3412          SUB     BX,1234
0736:9A61 81EF1534          SUB     DI,3415
0736:9A65 81EC8547          SUB     SP,4785
0736:9A69 81ED3615          SUB     BP,1536
0736:9A6D 83EB14            SUB     BX,+14
0736:9A70 83EE35            SUB     SI,+35
0736:9A73 83EC65            SUB     SP,+65
0736:9A76 83ED16            SUB     BP,+16
0736:9A79 0417              ADD     AL,17
0736:9A7B 051752            ADD     AX,5217
0736:9A7E 1B0F              SBB     CX,[BX]
0736:9A80 1B5778            SBB     DX,[BX+78]
0736:9A83 1B9F5634          SBB     BX,[BX+3456]
0736:9A87 1B30              SBB     SI,[BX+SI]
0736:9A89 1B7879            SBB     DI,[BX+SI+79]
0736:9A8C 1BA87856          SBB     BP,[BX+SI+5678]
0736:9A90 1B31              SBB     SI,[BX+DI]
0736:9A92 1B7929            SBB     DI,[BX+DI+29]
0736:9A95 1BA97856          SBB     BP,[BX+DI+5678]
0736:9A99 1B24              SBB     SP,[SI]
0736:9A9B 1B5428            SBB     DX,[SI+28]
0736:9A9E 1B9C5634          SBB     BX,[SI+3456]
0736:9AA2 1B05              SBB     AX,[DI]
0736:9AA4 1B5558            SBB     DX,[DI+58]
0736:9AA7 1B9D5634          SBB     BX,[DI+3456]
0736:9AAB 1B4E00            SBB     CX,[BP+00]
0736:9AAE 1B5658            SBB     DX,[BP+58]
0736:9AB1 1B9E5634          SBB     BX,[BP+3456]
0736:9AB5 1B32              SBB     SI,[BP+SI]
0736:9AB7 1B7A39            SBB     DI,[BP+SI+39]
0736:9ABA 1BAA7856          SBB     BP,[BP+SI+5678]
0736:9ABE 1B33              SBB     SI,[BP+DI]
0736:9AC0 1B7B49            SBB     DI,[BP+DI+49]
0736:9AC3 1BAB7856          SBB     BP,[BP+DI+5678]
0736:9AC7 190F              SBB     [BX],CX
0736:9AC9 195778            SBB     [BX+78],DX
0736:9ACC 199F5634          SBB     [BX+3456],BX
0736:9AD0 1900              SBB     [BX+SI],AX
0736:9AD2 196069            SBB     [BX+SI+69],SP
0736:9AD5 19B87856          SBB     [BX+SI+5678],DI
0736:9AD9 1929              SBB     [BX+DI],BP
0736:9ADB 197149            SBB     [BX+DI+49],SI
0736:9ADE 19B97856          SBB     [BX+DI+5678],DI
0736:9AE2 1904              SBB     [SI],AX
0736:9AE4 194C78            SBB     [SI+78],CX
0736:9AE7 19945634          SBB     [SI+3456],DX
0736:9AEB 192D              SBB     [DI],BP
0736:9AED 196578            SBB     [DI+78],SP
0736:9AF0 19B55634          SBB     [DI+3456],SI
0736:9AF4 197E00            SBB     [BP+00],DI
0736:9AF7 194E78            SBB     [BP+78],CX
0736:9AFA 19965634          SBB     [BP+3456],DX
0736:9AFE 1932              SBB     [BP+SI],SI
0736:9B00 197A59            SBB     [BP+SI+59],DI
0736:9B03 19827856          SBB     [BP+SI+5678],AX
0736:9B07 193B              SBB     [BP+DI],DI
0736:9B09 195B19            SBB     [BP+DI+19],BX
0736:9B0C 19937856          SBB     [BP+DI+5678],DX
0736:9B10 1A05              SBB     AL,[DI]
0736:9B12 1A6578            SBB     AH,[DI+78]
0736:9B15 1ABD5634          SBB     BH,[DI+3456]
0736:9B19 1A4E00            SBB     CL,[BP+00]
0736:9B1C 1A5678            SBB     DL,[BP+78]
0736:9B1F 1A9E5634          SBB     BL,[BP+3456]
0736:9B23 1A2A              SBB     CH,[BP+SI]
0736:9B25 187578            SBB     [DI+78],DH
0736:9B28 18955634          SBB     [DI+3456],DL
0736:9B2C 186E00            SBB     [BP+00],CH
0736:9B2F 184E56            SBB     [BP+56],CL
0736:9B32 18BE5634          SBB     [BP+3456],BH
0736:9B36 181A              SBB     [BP+SI],BL
0736:9B38 186245            SBB     [BP+SI+45],AH
0736:9B3B 18827856          SBB     [BP+SI+5678],AL
0736:9B3F 805D7815          SBB     BYTE PTR [DI+78],15
0736:9B43 809D563416        SBB     BYTE PTR [DI+3456],16
0736:9B48 805E0028          SBB     BYTE PTR [BP+00],28
0736:9B4C 805E5688          SBB     BYTE PTR [BP+56],88
0736:9B50 819E56343412      SBB     WORD PTR [BP+3456],1234
0736:9B56 811A1534          SBB     WORD PTR [BP+SI],3415
0736:9B5A 815A458547        SBB     WORD PTR [BP+SI+45],4785
0736:9B5F 819A78563615      SBB     WORD PTR [BP+SI+5678],1536
0736:9B65 839E563412        SBB     WORD PTR [BP+3456],+12
0736:9B6A 831A35            SBB     WORD PTR [BP+SI],+35
0736:9B6D 835A4545          SBB     WORD PTR [BP+SI+45],+45
0736:9B71 839A785616        SBB     WORD PTR [BP+SI+5678],+16
0736:9B76 80D915            SBB     CL,15
0736:9B79 80DD16            SBB     CH,16
0736:9B7C 80DA28            SBB     DL,28
0736:9B7F 80DC88            SBB     AH,88
0736:9B82 81DB3412          SBB     BX,1234
0736:9B86 81DF1534          SBB     DI,3415
0736:9B8A 81DC8547          SBB     SP,4785
0736:9B8E 81DD3615          SBB     BP,1536
0736:9B92 83DB14            SBB     BX,+14
0736:9B95 83DE35            SBB     SI,+35
0736:9B98 83DC65            SBB     SP,+65
0736:9B9B 83DD16            SBB     BP,+16
0736:9B9E 0417              ADD     AL,17
0736:9BA0 051752            ADD     AX,5217
0736:9BA3 F727              MUL     WORD PTR [BX]
0736:9BA5 F76778            MUL     WORD PTR [BX+78]
0736:9BA8 F7A75634          MUL     WORD PTR [BX+3456]
0736:9BAC F720              MUL     WORD PTR [BX+SI]
0736:9BAE F76079            MUL     WORD PTR [BX+SI+79]
0736:9BB1 F7A07856          MUL     WORD PTR [BX+SI+5678]
0736:9BB5 F721              MUL     WORD PTR [BX+DI]
0736:9BB7 F76129            MUL     WORD PTR [BX+DI+29]
0736:9BBA F7A17856          MUL     WORD PTR [BX+DI+5678]
0736:9BBE F724              MUL     WORD PTR [SI]
0736:9BC0 F76428            MUL     WORD PTR [SI+28]
0736:9BC3 F7A45634          MUL     WORD PTR [SI+3456]
0736:9BC7 F725              MUL     WORD PTR [DI]
0736:9BC9 F76558            MUL     WORD PTR [DI+58]
0736:9BCC F7A55634          MUL     WORD PTR [DI+3456]
0736:9BD0 F7E5              MUL     BP
0736:9BD2 F76658            MUL     WORD PTR [BP+58]
0736:9BD5 F7A65634          MUL     WORD PTR [BP+3456]
0736:9BD9 F7E1              MUL     CX
0736:9BDB F76239            MUL     WORD PTR [BP+SI+39]
0736:9BDE F7A27856          MUL     WORD PTR [BP+SI+5678]
0736:9BE2 F7E2              MUL     DX
0736:9BE4 F76349            MUL     WORD PTR [BP+DI+49]
0736:9BE7 F7E6              MUL     SI
0736:9BE9 F66578            MUL     BYTE PTR [DI+78]
0736:9BEC F6A55634          MUL     BYTE PTR [DI+3456]
0736:9BF0 F6E6              MUL     DH
0736:9BF2 F66678            MUL     BYTE PTR [BP+78]
0736:9BF5 F6A65634          MUL     BYTE PTR [BP+3456]
0736:9BF9 F6E4              MUL     AH
0736:9BFB F6E3              MUL     BL
0736:9BFD F6A55634          MUL     BYTE PTR [DI+3456]
0736:9C01 F72F              IMUL    WORD PTR [BX]
0736:9C03 F76F78            IMUL    WORD PTR [BX+78]
0736:9C06 F7AF5634          IMUL    WORD PTR [BX+3456]
0736:9C0A F728              IMUL    WORD PTR [BX+SI]
0736:9C0C F76879            IMUL    WORD PTR [BX+SI+79]
0736:9C0F F7A87856          IMUL    WORD PTR [BX+SI+5678]
0736:9C13 F729              IMUL    WORD PTR [BX+DI]
0736:9C15 F76929            IMUL    WORD PTR [BX+DI+29]
0736:9C18 F7A97856          IMUL    WORD PTR [BX+DI+5678]
0736:9C1C F72C              IMUL    WORD PTR [SI]
0736:9C1E F76C28            IMUL    WORD PTR [SI+28]
0736:9C21 F7AC5634          IMUL    WORD PTR [SI+3456]
0736:9C25 F72D              IMUL    WORD PTR [DI]
0736:9C27 F76D58            IMUL    WORD PTR [DI+58]
0736:9C2A F7AD5634          IMUL    WORD PTR [DI+3456]
0736:9C2E F7ED              IMUL    BP
0736:9C30 F76E58            IMUL    WORD PTR [BP+58]
0736:9C33 F7AE5634          IMUL    WORD PTR [BP+3456]
0736:9C37 F7E9              IMUL    CX
0736:9C39 F76A39            IMUL    WORD PTR [BP+SI+39]
0736:9C3C F7AA7856          IMUL    WORD PTR [BP+SI+5678]
0736:9C40 F7EF              IMUL    DI
0736:9C42 F76B49            IMUL    WORD PTR [BP+DI+49]
0736:9C45 F7EE              IMUL    SI
0736:9C47 F66D78            IMUL    BYTE PTR [DI+78]
0736:9C4A F6AD5634          IMUL    BYTE PTR [DI+3456]
0736:9C4E F6EE              IMUL    DH
0736:9C50 F66E78            IMUL    BYTE PTR [BP+78]
0736:9C53 F6AE5634          IMUL    BYTE PTR [BP+3456]
0736:9C57 F6EC              IMUL    AH
0736:9C59 F6EB              IMUL    BL
0736:9C5B F6AD5634          IMUL    BYTE PTR [DI+3456]
0736:9C5F F737              DIV     WORD PTR [BX]
0736:9C61 F77778            DIV     WORD PTR [BX+78]
0736:9C64 F7B75634          DIV     WORD PTR [BX+3456]
0736:9C68 F730              DIV     WORD PTR [BX+SI]
0736:9C6A F77079            DIV     WORD PTR [BX+SI+79]
0736:9C6D F7B07856          DIV     WORD PTR [BX+SI+5678]
0736:9C71 F731              DIV     WORD PTR [BX+DI]
0736:9C73 F77129            DIV     WORD PTR [BX+DI+29]
0736:9C76 F7B17856          DIV     WORD PTR [BX+DI+5678]
0736:9C7A F734              DIV     WORD PTR [SI]
0736:9C7C F77428            DIV     WORD PTR [SI+28]
0736:9C7F F7B45634          DIV     WORD PTR [SI+3456]
0736:9C83 F735              DIV     WORD PTR [DI]
0736:9C85 F77558            DIV     WORD PTR [DI+58]
0736:9C88 F7B55634          DIV     WORD PTR [DI+3456]
0736:9C8C F7F5              DIV     BP
0736:9C8E F77658            DIV     WORD PTR [BP+58]
0736:9C91 F7B65634          DIV     WORD PTR [BP+3456]
0736:9C95 F7F1              DIV     CX
0736:9C97 F77239            DIV     WORD PTR [BP+SI+39]
0736:9C9A F7B27856          DIV     WORD PTR [BP+SI+5678]
0736:9C9E F7F2              DIV     DX
0736:9CA0 F77349            DIV     WORD PTR [BP+DI+49]
0736:9CA3 F7F6              DIV     SI
0736:9CA5 F67578            DIV     BYTE PTR [DI+78]
0736:9CA8 F6B55634          DIV     BYTE PTR [DI+3456]
0736:9CAC F6F6              DIV     DH
0736:9CAE F67678            DIV     BYTE PTR [BP+78]
0736:9CB1 F6B65634          DIV     BYTE PTR [BP+3456]
0736:9CB5 F6F2              DIV     DL
0736:9CB7 F6F3              DIV     BL
0736:9CB9 F6B55634          DIV     BYTE PTR [DI+3456]
0736:9CBD F73F              IDIV    WORD PTR [BX]
0736:9CBF F77F78            IDIV    WORD PTR [BX+78]
0736:9CC2 F7BF5634          IDIV    WORD PTR [BX+3456]
0736:9CC6 F738              IDIV    WORD PTR [BX+SI]
0736:9CC8 F77879            IDIV    WORD PTR [BX+SI+79]
0736:9CCB F7B87856          IDIV    WORD PTR [BX+SI+5678]
0736:9CCF F739              IDIV    WORD PTR [BX+DI]
0736:9CD1 F77929            IDIV    WORD PTR [BX+DI+29]
0736:9CD4 F7B97856          IDIV    WORD PTR [BX+DI+5678]
0736:9CD8 F73C              IDIV    WORD PTR [SI]
0736:9CDA F77C28            IDIV    WORD PTR [SI+28]
0736:9CDD F7BC5634          IDIV    WORD PTR [SI+3456]
0736:9CE1 F73D              IDIV    WORD PTR [DI]
0736:9CE3 F77D58            IDIV    WORD PTR [DI+58]
0736:9CE6 F7BD5634          IDIV    WORD PTR [DI+3456]
0736:9CEA F7FD              IDIV    BP
0736:9CEC F77E58            IDIV    WORD PTR [BP+58]
0736:9CEF F7BE5634          IDIV    WORD PTR [BP+3456]
0736:9CF3 F7F8              IDIV    AX
0736:9CF5 F77A39            IDIV    WORD PTR [BP+SI+39]
0736:9CF8 F7BA7856          IDIV    WORD PTR [BP+SI+5678]
0736:9CFC F7FA              IDIV    DX
0736:9CFE F77B49            IDIV    WORD PTR [BP+DI+49]
0736:9D01 F7FE              IDIV    SI
0736:9D03 F67D78            IDIV    BYTE PTR [DI+78]
0736:9D06 F6BD5634          IDIV    BYTE PTR [DI+3456]
0736:9D0A F6FE              IDIV    DH
0736:9D0C F67E78            IDIV    BYTE PTR [BP+78]
0736:9D0F F6BE5634          IDIV    BYTE PTR [BP+3456]
0736:9D13 F6FC              IDIV    AH
0736:9D15 F6FB              IDIV    BL
0736:9D17 F6BD5634          IDIV    BYTE PTR [DI+3456]
0736:9D1B FF07              INC     WORD PTR [BX]
0736:9D1D FF4778            INC     WORD PTR [BX+78]
0736:9D20 FF875634          INC     WORD PTR [BX+3456]
0736:9D24 FF00              INC     WORD PTR [BX+SI]
0736:9D26 FF4079            INC     WORD PTR [BX+SI+79]
0736:9D29 FF807856          INC     WORD PTR [BX+SI+5678]
0736:9D2D FF01              INC     WORD PTR [BX+DI]
0736:9D2F FF4129            INC     WORD PTR [BX+DI+29]
0736:9D32 FF817856          INC     WORD PTR [BX+DI+5678]
0736:9D36 FF04              INC     WORD PTR [SI]
0736:9D38 FF4428            INC     WORD PTR [SI+28]
0736:9D3B FF845634          INC     WORD PTR [SI+3456]
0736:9D3F FF05              INC     WORD PTR [DI]
0736:9D41 FF4558            INC     WORD PTR [DI+58]
0736:9D44 FF855634          INC     WORD PTR [DI+3456]
0736:9D48 FEC0              INC     AL
0736:9D4A FEC1              INC     CL
0736:9D4C FEC2              INC     DL
0736:9D4E FEC3              INC     BL
0736:9D50 FEC4              INC     AH
0736:9D52 FEC5              INC     CH
0736:9D54 FEC7              INC     BH
0736:9D56 FEC6              INC     DH
0736:9D58 40                INC     AX
0736:9D59 41                INC     CX
0736:9D5A 42                INC     DX
0736:9D5B 43                INC     BX
0736:9D5C 44                INC     SP
0736:9D5D 45                INC     BP
0736:9D5E 46                INC     SI
0736:9D5F 47                INC     DI
0736:9D60 FF0F              DEC     WORD PTR [BX]
0736:9D62 FF4F78            DEC     WORD PTR [BX+78]
0736:9D65 FF8F5634          DEC     WORD PTR [BX+3456]
0736:9D69 FF08              DEC     WORD PTR [BX+SI]
0736:9D6B FF4879            DEC     WORD PTR [BX+SI+79]
0736:9D6E FF887856          DEC     WORD PTR [BX+SI+5678]
0736:9D72 FF09              DEC     WORD PTR [BX+DI]
0736:9D74 FF4929            DEC     WORD PTR [BX+DI+29]
0736:9D77 FF897856          DEC     WORD PTR [BX+DI+5678]
0736:9D7B FF0C              DEC     WORD PTR [SI]
0736:9D7D FF4C28            DEC     WORD PTR [SI+28]
0736:9D80 FF8C5634          DEC     WORD PTR [SI+3456]
0736:9D84 FF0D              DEC     WORD PTR [DI]
0736:9D86 FF4D58            DEC     WORD PTR [DI+58]
0736:9D89 FF8D5634          DEC     WORD PTR [DI+3456]
0736:9D8D FEC8              DEC     AL
0736:9D8F FEC9              DEC     CL
0736:9D91 FECA              DEC     DL
0736:9D93 FECB              DEC     BL
0736:9D95 FECC              DEC     AH
0736:9D97 FECD              DEC     CH
0736:9D99 FECF              DEC     BH
0736:9D9B FECE              DEC     DH
0736:9D9D 48                DEC     AX
0736:9D9E 49                DEC     CX
0736:9D9F 4A                DEC     DX
0736:9DA0 4B                DEC     BX
0736:9DA1 4C                DEC     SP
0736:9DA2 4D                DEC     BP
0736:9DA3 4E                DEC     SI
0736:9DA4 4F                DEC     DI
0736:9DA5 37                AAA
0736:9DA6 D50A              AAD     0A
0736:9DA8 3F                AAS
0736:9DA9 D40A              AAM     0A
0736:9DAB D505              AAD     05
0736:9DAD D403              AAM     03
0736:9DAF 27                DAA
0736:9DB0 2F                DAS
0736:9DB1 F7DD              NEG     BP
0736:9DB3 F75E58            NEG     WORD PTR [BP+58]
0736:9DB6 F79E5634          NEG     WORD PTR [BP+3456]
0736:9DBA F7D9              NEG     CX
0736:9DBC F75A39            NEG     WORD PTR [BP+SI+39]
0736:9DBF F79A7856          NEG     WORD PTR [BP+SI+5678]
0736:9DC3 F7DA              NEG     DX
0736:9DC5 F75B49            NEG     WORD PTR [BP+DI+49]
0736:9DC8 F7DE              NEG     SI
0736:9DCA F65D78            NEG     BYTE PTR [DI+78]
0736:9DCD F69D5634          NEG     BYTE PTR [DI+3456]
0736:9DD1 F6DE              NEG     DH
0736:9DD3 F65E78            NEG     BYTE PTR [BP+78]
0736:9DD6 F69E5634          NEG     BYTE PTR [BP+3456]
0736:9DDA F6DC              NEG     AH
0736:9DDC F6DB              NEG     BL
0736:9DDE F69D5634          NEG     BYTE PTR [DI+3456]
0736:9DE2 98                CBW
0736:9DE3 99                CWD
