0734:0100 741E                JE	0120
0734:0102 741D                JE	0121
0734:0104 7CFA                JL	0100
0734:0106 7E48                JLE	0150
0734:0108 72F6                JB	0100
0734:010A 7614                JBE	0120
0734:010C 7A14                JP	0122
0734:010E 70F0                JO	0100
0734:0110 78F0                JS	0102
0734:0112 75F0                JNE	0104
0734:0114 75EC                JNE	0102
0734:0116 7D08                JNL	0120
0734:0118 7F09                JG	0123
0734:011A 73E6                JNB	0102
0734:011C 77E2                JA	0100
0734:011E 7BF0                JNP	0110
0734:0120 71DE                JNO	0100
0734:0122 792C                JNS	0150
0734:0124 E22C                LOOP	0152
0734:0126 E1D8                LOOPE	0100
0734:0128 E1D7                LOOPE	0101
0734:012A E0D6                LOOPNE	0102
0734:012C E0D5                LOOPNE	0103
0734:012E E3F5                JCXZ	0125
0734:0130 E82333              CALL 3453
0734:0133 FF17                CALL WORD PTR [BX]
0734:0135 FF5778              CALL WORD PTR [BX+78]
0734:0138 FF975634            CALL WORD PTR [BX+3456]
0734:013C FF10                CALL WORD PTR [BX+SI]
0734:013E FF5079              CALL WORD PTR [BX+SI+79]
0734:0141 FF907856            CALL WORD PTR [BX+SI+5678]
0734:0145 FF11                CALL WORD PTR [BX+DI]
0734:0147 FF5129              CALL WORD PTR [BX+DI+29]
0734:014A FF917856            CALL WORD PTR [BX+DI+5678]
0734:014E FF14                CALL WORD PTR [SI]
0734:0150 FF5428              CALL WORD PTR [SI+28]
0734:0153 FF945634            CALL WORD PTR [SI+3456]
0734:0157 FF15                CALL WORD PTR [DI]
0734:0159 FFD0                CALL AX
0734:015B FFD3                CALL BX
0734:015D FFD1                CALL CX
0734:015F FFD2                CALL DX
0734:0161 FFD4                CALL SP
0734:0163 FFD7                CALL DI
0734:0165 FFD5                CALL BP
0734:0167 FFD6                CALL SI
0734:0169 FFD5                CALL BP
0734:016B 9A45225634          CALL 3456:2245
0734:0170 FF1F                CALL FAR [BX]
0734:0172 FF5F78              CALL FAR [BX+78]
0734:0175 FF9F5634            CALL FAR [BX+3456]
0734:0179 FF18                CALL FAR [BX+SI]
0734:017B FF5879              CALL FAR [BX+SI+79]
0734:017E FF987856            CALL FAR [BX+SI+5678]
0734:0182 FF19                CALL FAR [BX+DI]
0734:0184 FF5929              CALL FAR [BX+DI+29]
0734:0187 FF997856            CALL FAR [BX+DI+5678]
0734:018B FF1C                CALL FAR [SI]
0734:018D FF5C28              CALL FAR [SI+28]
0734:0190 FF9C5634            CALL FAR [SI+3456]
0734:0194 FF1D                CALL FAR [DI]
0734:0196 E9BD32              JMP 3453
0734:0199 EB15                JMP	01B0
0734:019B FF27                JMP WORD PTR [BX]
0734:019D FF6778              JMP WORD PTR [BX+78]
0734:01A0 FFA75634            JMP WORD PTR [BX+3456]
0734:01A4 FF20                JMP WORD PTR [BX+SI]
0734:01A6 FF6079              JMP WORD PTR [BX+SI+79]
0734:01A9 FFA07856            JMP WORD PTR [BX+SI+5678]
0734:01AD FF21                JMP WORD PTR [BX+DI]
0734:01AF FF6129              JMP WORD PTR [BX+DI+29]
0734:01B2 FFA17856            JMP WORD PTR [BX+DI+5678]
0734:01B6 FF24                JMP WORD PTR [SI]
0734:01B8 FF6428              JMP WORD PTR [SI+28]
0734:01BB FFA45634            JMP WORD PTR [SI+3456]
0734:01BF FF25                JMP WORD PTR [DI]
0734:01C1 FFE0                JMP AX
0734:01C3 FFE3                JMP BX
0734:01C5 FFE1                JMP CX
0734:01C7 FFE2                JMP DX
0734:01C9 FFE4                JMP SP
0734:01CB FFE7                JMP DI
0734:01CD FFE5                JMP BP
0734:01CF FFE6                JMP SI
0734:01D1 FFE5                JMP BP
0734:01D3 EA45225634          JMP 3456:2245
0734:01D8 FF2F                JMP FAR [BX]
0734:01DA FF6F78              JMP FAR [BX+78]
0734:01DD FFAF5634            JMP FAR [BX+3456]
0734:01E1 FF28                JMP FAR [BX+SI]
0734:01E3 FF6879              JMP FAR [BX+SI+79]
0734:01E6 FFA87856            JMP FAR [BX+SI+5678]
0734:01EA FF29                JMP FAR [BX+DI]
0734:01EC FF6929              JMP FAR [BX+DI+29]
0734:01EF FFA97856            JMP FAR [BX+DI+5678]
0734:01F3 FF2C                JMP FAR [SI]
0734:01F5 FF6C28              JMP FAR [SI+28]
0734:01F8 FFAC5634            JMP FAR [SI+3456]
0734:01FC FF2D                JMP FAR [DI]
0734:01FE C3                  RET
0734:01FF C22301              RET 0123
0734:0202 CB                  RETF
0734:0203 CA4523              RETF 2345
0734:0206 CC                  INT 3
0734:0207 CE                  INTO
0734:0208 CD21                INT 21
0734:020A CD80                INT 80
0734:020C 8B0F                MOV CX, [BX]
0734:020E 8B5778              MOV DX, [BX+78]
0734:0211 8B9F5634            MOV BX, [BX+3456]
0734:0215 8B30                MOV SI, [BX+SI]
0734:0217 8B7879              MOV DI, [BX+SI+79]
0734:021A 8BA87856            MOV BP, [BX+SI+5678]
0734:021E 8B31                MOV SI, [BX+DI]
0734:0220 8B7929              MOV DI, [BX+DI+29]
0734:0223 8BA97856            MOV BP, [BX+DI+5678]
0734:0227 8B24                MOV SP, [SI]
0734:0229 8B5428              MOV DX, [SI+28]
0734:022C 8B9C5634            MOV BX, [SI+3456]
0734:0230 8B05                MOV AX, [DI]
0734:0232 8B5558              MOV DX, [DI+58]
0734:0235 8B9D5634            MOV BX, [DI+3456]
0734:0239 8B4E00              MOV CX, [BP+00]
0734:023C 8B5658              MOV DX, [BP+58]
0734:023F 8B9E5634            MOV BX, [BP+3456]
0734:0243 8B32                MOV SI, [BP+SI]
0734:0245 8B7A39              MOV DI, [BP+SI+39]
0734:0248 8BAA7856            MOV BP, [BP+SI+5678]
0734:024C 8B33                MOV SI, [BP+DI]
0734:024E 8B7B49              MOV DI, [BP+DI+49]
0734:0251 8BAB7856            MOV BP, [BP+DI+5678]
0734:0255 890F                MOV [BX], CX
0734:0257 895778              MOV [BX+78], DX
0734:025A 899F5634            MOV [BX+3456], BX
0734:025E 8900                MOV [BX+SI], AX
0734:0260 896069              MOV [BX+SI+69], SP
0734:0263 89B87856            MOV [BX+SI+5678], DI
0734:0267 8929                MOV [BX+DI], BP
0734:0269 897149              MOV [BX+DI+49], SI
0734:026C 89B97856            MOV [BX+DI+5678], DI
0734:0270 8904                MOV [SI], AX
0734:0272 894C78              MOV [SI+78], CX
0734:0275 89945634            MOV [SI+3456], DX
0734:0279 892D                MOV [DI], BP
0734:027B 896578              MOV [DI+78], SP
0734:027E 89B55634            MOV [DI+3456], SI
0734:0282 897E00              MOV [BP+00], DI
0734:0285 894E78              MOV [BP+78], CX
0734:0288 89965634            MOV [BP+3456], DX
0734:028C 8932                MOV [BP+SI], SI
0734:028E 897A59              MOV [BP+SI+59], DI
0734:0291 89827856            MOV [BP+SI+5678], AX
0734:0295 893B                MOV [BP+DI], DI
0734:0297 895B19              MOV [BP+DI+19], BX
0734:029A 89937856            MOV [BP+DI+5678], DX
0734:029E 8A05                MOV AL, [DI]
0734:02A0 8A6578              MOV AH, [DI+78]
0734:02A3 8ABD5634            MOV BH, [DI+3456]
0734:02A7 8A4E00              MOV CL, [BP+00]
0734:02AA 8A5678              MOV DL, [BP+78]
0734:02AD 8A9E5634            MOV BL, [BP+3456]
0734:02B1 8A2A                MOV CH, [BP+SI]
0734:02B3 887578              MOV [DI+78], DH
0734:02B6 88955634            MOV [DI+3456], DL
0734:02BA 886E00              MOV [BP+00], CH
0734:02BD 884E56              MOV [BP+56], CL
0734:02C0 88BE5634            MOV [BP+3456], BH
0734:02C4 881A                MOV [BP+SI], BL
0734:02C6 886245              MOV [BP+SI+45], AH
0734:02C9 88827856            MOV [BP+SI+5678], AL
0734:02CD C6457815            MOV BYTE PTR [DI+78], 15
0734:02D1 C685563416          MOV BYTE PTR [DI+3456], 16
0734:02D6 C6460028            MOV BYTE PTR [BP+00], 28
0734:02DA C6465688            MOV BYTE PTR [BP+56], 88
0734:02DE C78656343412        MOV WORD PTR [BP+3456], 1234
0734:02E4 C7021534            MOV WORD PTR [BP+SI], 3415
0734:02E8 C742458547          MOV WORD PTR [BP+SI+45], 4785
0734:02ED C78278563615        MOV WORD PTR [BP+SI+5678], 1536
0734:02F3 B015                MOV AL, 15
0734:02F5 B416                MOV AH, 16
0734:02F7 B128                MOV CL, 28
0734:02F9 B688                MOV DH, 88
0734:02FB BB3412              MOV BX, 1234
0734:02FE BE1534              MOV SI, 3415
0734:0301 BC8547              MOV SP, 4785
0734:0304 BD3615              MOV BP, 1536
0734:0307 C7C51254            MOV BP, 5412
0734:030B A13412              MOV AX, [1234]
0734:030E A03412              MOV AL, [1234]
0734:0311 A31234              MOV [3412], AX
0734:0314 A21234              MOV [3412], AL
0734:0317 8C0F                MOV WORD PTR [BX], SS
0734:0319 8C5778              MOV WORD PTR [BX+78], CS
0734:031C 8C9F5634            MOV WORD PTR [BX+3456], DS
0734:0320 8C00                MOV WORD PTR [BX+SI], ES
0734:0322 8C4869              MOV WORD PTR [BX+SI+69], SS
0734:0325 8E1F                MOV DS, WORD PTR [BX]
0734:0327 8E4F78              MOV SS, WORD PTR [BX+78]
0734:032A 8E975634            MOV CS, WORD PTR [BX+3456]
0734:032E 8E00                MOV ES, WORD PTR [BX+SI]
0734:0330 8E5869              MOV DS, WORD PTR [BX+SI+69]
0734:0333 D127                SHL WORD PTR [BX], 1
0734:0335 D26778              SHL BYTE PTR [BX+78], CL
0734:0338 D1A75634            SHL WORD PTR [BX+3456], 1
0734:033C D3E7                SHL DI, CL
0734:033E D06069              SHL BYTE PTR [BX+SI+69], 1
0734:0341 D3A07856            SHL WORD PTR [BX+SI+5678], CL
0734:0345 D121                SHL WORD PTR [BX+DI], 1
0734:0347 D36149              SHL WORD PTR [BX+DI+49], CL
0734:034A D1E6                SHL SI, 1
0734:034C D224                SHL BYTE PTR [SI], CL
0734:034E D16478              SHL WORD PTR [SI+78], 1
0734:0351 D2A45634            SHL BYTE PTR [SI+3456], CL
0734:0355 D125                SHL WORD PTR [DI], 1
0734:0357 D26578              SHL BYTE PTR [DI+78], CL
0734:035A D1A55634            SHL WORD PTR [DI+3456], 1
0734:035E D36600              SHL WORD PTR [BP+00], CL
0734:0361 D16678              SHL WORD PTR [BP+78], 1
0734:0364 D2E6                SHL DH, CL
0734:0366 D022                SHL BYTE PTR [BP+SI], 1
0734:0368 D36259              SHL WORD PTR [BP+SI+59], CL
0734:036B D1A27856            SHL WORD PTR [BP+SI+5678], 1
0734:036F D223                SHL BYTE PTR [BP+DI], CL
0734:0371 D16319              SHL WORD PTR [BP+DI+19], 1
0734:0374 D3A37856            SHL WORD PTR [BP+DI+5678], CL
0734:0378 D12F                SHR WORD PTR [BX], 1
0734:037A D26F78              SHR BYTE PTR [BX+78], CL
0734:037D D1AF5634            SHR WORD PTR [BX+3456], 1
0734:0381 D328                SHR WORD PTR [BX+SI], CL
0734:0383 D06869              SHR BYTE PTR [BX+SI+69], 1
0734:0386 D3A87856            SHR WORD PTR [BX+SI+5678], CL
0734:038A D129                SHR WORD PTR [BX+DI], 1
0734:038C D36949              SHR WORD PTR [BX+DI+49], CL
0734:038F D1A97856            SHR WORD PTR [BX+DI+5678], 1
0734:0393 D22C                SHR BYTE PTR [SI], CL
0734:0395 D16C78              SHR WORD PTR [SI+78], 1
0734:0398 D2AC5634            SHR BYTE PTR [SI+3456], CL
0734:039C D12D                SHR WORD PTR [DI], 1
0734:039E D2E8                SHR AL, CL
0734:03A0 D1AD5634            SHR WORD PTR [DI+3456], 1
0734:03A4 D36E00              SHR WORD PTR [BP+00], CL
0734:03A7 D16E78              SHR WORD PTR [BP+78], 1
0734:03AA D3E9                SHR CX, CL
0734:03AC D02A                SHR BYTE PTR [BP+SI], 1
0734:03AE D36A59              SHR WORD PTR [BP+SI+59], CL
0734:03B1 D1AA7856            SHR WORD PTR [BP+SI+5678], 1
0734:03B5 D22B                SHR BYTE PTR [BP+DI], CL
0734:03B7 D1ED                SHR BP, 1
0734:03B9 D3AB7856            SHR WORD PTR [BP+DI+5678], CL
0734:03BD D107                ROL WORD PTR [BX], 1
0734:03BF D24778              ROL BYTE PTR [BX+78], CL
0734:03C2 D1875634            ROL WORD PTR [BX+3456], 1
0734:03C6 D3C7                ROL DI, CL
0734:03C8 D04069              ROL BYTE PTR [BX+SI+69], 1
0734:03CB D3807856            ROL WORD PTR [BX+SI+5678], CL
0734:03CF D101                ROL WORD PTR [BX+DI], 1
0734:03D1 D34149              ROL WORD PTR [BX+DI+49], CL
0734:03D4 D1C6                ROL SI, 1
0734:03D6 D204                ROL BYTE PTR [SI], CL
0734:03D8 D14478              ROL WORD PTR [SI+78], 1
0734:03DB D2845634            ROL BYTE PTR [SI+3456], CL
0734:03DF D105                ROL WORD PTR [DI], 1
0734:03E1 D24578              ROL BYTE PTR [DI+78], CL
0734:03E4 D1855634            ROL WORD PTR [DI+3456], 1
0734:03E8 D34600              ROL WORD PTR [BP+00], CL
0734:03EB D14678              ROL WORD PTR [BP+78], 1
0734:03EE D2C6                ROL DH, CL
0734:03F0 D002                ROL BYTE PTR [BP+SI], 1
0734:03F2 D34259              ROL WORD PTR [BP+SI+59], CL
0734:03F5 D1827856            ROL WORD PTR [BP+SI+5678], 1
0734:03F9 D203                ROL BYTE PTR [BP+DI], CL
0734:03FB D14319              ROL WORD PTR [BP+DI+19], 1
0734:03FE D3837856            ROL WORD PTR [BP+DI+5678], CL
0734:0402 D10F                ROR WORD PTR [BX], 1
0734:0404 D24F78              ROR BYTE PTR [BX+78], CL
0734:0407 D18F5634            ROR WORD PTR [BX+3456], 1
0734:040B D3CF                ROR DI, CL
0734:040D D04869              ROR BYTE PTR [BX+SI+69], 1
0734:0410 D3887856            ROR WORD PTR [BX+SI+5678], CL
0734:0414 D109                ROR WORD PTR [BX+DI], 1
0734:0416 D34949              ROR WORD PTR [BX+DI+49], CL
0734:0419 D1CE                ROR SI, 1
0734:041B D20C                ROR BYTE PTR [SI], CL
0734:041D D14C78              ROR WORD PTR [SI+78], 1
0734:0420 D28C5634            ROR BYTE PTR [SI+3456], CL
0734:0424 D10D                ROR WORD PTR [DI], 1
0734:0426 D24D78              ROR BYTE PTR [DI+78], CL
0734:0429 D18D5634            ROR WORD PTR [DI+3456], 1
0734:042D D34E00              ROR WORD PTR [BP+00], CL
0734:0430 D14E78              ROR WORD PTR [BP+78], 1
0734:0433 D2CE                ROR DH, CL
0734:0435 D00A                ROR BYTE PTR [BP+SI], 1
0734:0437 D34A59              ROR WORD PTR [BP+SI+59], CL
0734:043A D18A7856            ROR WORD PTR [BP+SI+5678], 1
0734:043E D20B                ROR BYTE PTR [BP+DI], CL
0734:0440 D14B19              ROR WORD PTR [BP+DI+19], 1
0734:0443 D38B7856            ROR WORD PTR [BP+DI+5678], CL
0734:0447 D11F                RCR WORD PTR [BX], 1
0734:0449 D25F78              RCR BYTE PTR [BX+78], CL
0734:044C D19F5634            RCR WORD PTR [BX+3456], 1
0734:0450 D3DF                RCR DI, CL
0734:0452 D05869              RCR BYTE PTR [BX+SI+69], 1
0734:0455 D3987856            RCR WORD PTR [BX+SI+5678], CL
0734:0459 D119                RCR WORD PTR [BX+DI], 1
0734:045B D35949              RCR WORD PTR [BX+DI+49], CL
0734:045E D1DE                RCR SI, 1
0734:0460 D21C                RCR BYTE PTR [SI], CL
0734:0462 D15C78              RCR WORD PTR [SI+78], 1
0734:0465 D29C5634            RCR BYTE PTR [SI+3456], CL
0734:0469 D11D                RCR WORD PTR [DI], 1
0734:046B D25D78              RCR BYTE PTR [DI+78], CL
0734:046E D19D5634            RCR WORD PTR [DI+3456], 1
0734:0472 D35E00              RCR WORD PTR [BP+00], CL
0734:0475 D15E78              RCR WORD PTR [BP+78], 1
0734:0478 D2DE                RCR DH, CL
0734:047A D01A                RCR BYTE PTR [BP+SI], 1
0734:047C D35A59              RCR WORD PTR [BP+SI+59], CL
0734:047F D19A7856            RCR WORD PTR [BP+SI+5678], 1
0734:0483 D21B                RCR BYTE PTR [BP+DI], CL
0734:0485 D15B19              RCR WORD PTR [BP+DI+19], 1
0734:0488 D39B7856            RCR WORD PTR [BP+DI+5678], CL
0734:048C D117                RCL WORD PTR [BX], 1
0734:048E D25778              RCL BYTE PTR [BX+78], CL
0734:0491 D1975634            RCL WORD PTR [BX+3456], 1
0734:0495 D3D7                RCL DI, CL
0734:0497 D05069              RCL BYTE PTR [BX+SI+69], 1
0734:049A D3907856            RCL WORD PTR [BX+SI+5678], CL
0734:049E D111                RCL WORD PTR [BX+DI], 1
0734:04A0 D35149              RCL WORD PTR [BX+DI+49], CL
0734:04A3 D1D6                RCL SI, 1
0734:04A5 D214                RCL BYTE PTR [SI], CL
0734:04A7 D15478              RCL WORD PTR [SI+78], 1
0734:04AA D2945634            RCL BYTE PTR [SI+3456], CL
0734:04AE D115                RCL WORD PTR [DI], 1
0734:04B0 D25578              RCL BYTE PTR [DI+78], CL
0734:04B3 D1955634            RCL WORD PTR [DI+3456], 1
0734:04B7 D35600              RCL WORD PTR [BP+00], CL
0734:04BA D15678              RCL WORD PTR [BP+78], 1
0734:04BD D2D6                RCL DH, CL
0734:04BF D012                RCL BYTE PTR [BP+SI], 1
0734:04C1 D35259              RCL WORD PTR [BP+SI+59], CL
0734:04C4 D1927856            RCL WORD PTR [BP+SI+5678], 1
0734:04C8 D213                RCL BYTE PTR [BP+DI], CL
0734:04CA D15319              RCL WORD PTR [BP+DI+19], 1
0734:04CD D3937856            RCL WORD PTR [BP+DI+5678], CL
0734:04D1 F7D5                NOT BP
0734:04D3 F75658              NOT WORD PTR [BP+58]
0734:04D6 F7965634            NOT WORD PTR [BP+3456]
0734:04DA F7D1                NOT CX
0734:04DC F75239              NOT WORD PTR [BP+SI+39]
0734:04DF F7927856            NOT WORD PTR [BP+SI+5678]
0734:04E3 F7D2                NOT DX
0734:04E5 F75349              NOT WORD PTR [BP+DI+49]
0734:04E8 F7D6                NOT SI
0734:04EA F65578              NOT BYTE PTR [DI+78]
0734:04ED F6955634            NOT BYTE PTR [DI+3456]
0734:04F1 F6D6                NOT DH
0734:04F3 F65678              NOT BYTE PTR [BP+78]
0734:04F6 F6965634            NOT BYTE PTR [BP+3456]
0734:04FA F6D4                NOT AH
0734:04FC F6D3                NOT BL
0734:04FE F6955634            NOT BYTE PTR [DI+3456]
0734:0502 230F                AND CX, [BX]
0734:0504 235778              AND DX, [BX+78]
0734:0507 239F5634            AND BX, [BX+3456]
0734:050B 2330                AND SI, [BX+SI]
0734:050D 237879              AND DI, [BX+SI+79]
0734:0510 23A87856            AND BP, [BX+SI+5678]
0734:0514 2331                AND SI, [BX+DI]
0734:0516 237929              AND DI, [BX+DI+29]
0734:0519 23A97856            AND BP, [BX+DI+5678]
0734:051D 2324                AND SP, [SI]
0734:051F 235428              AND DX, [SI+28]
0734:0522 239C5634            AND BX, [SI+3456]
0734:0526 2305                AND AX, [DI]
0734:0528 235558              AND DX, [DI+58]
0734:052B 239D5634            AND BX, [DI+3456]
0734:052F 234E00              AND CX, [BP+00]
0734:0532 235658              AND DX, [BP+58]
0734:0535 239E5634            AND BX, [BP+3456]
0734:0539 2332                AND SI, [BP+SI]
0734:053B 237A39              AND DI, [BP+SI+39]
0734:053E 23AA7856            AND BP, [BP+SI+5678]
0734:0542 2333                AND SI, [BP+DI]
0734:0544 237B49              AND DI, [BP+DI+49]
0734:0547 23AB7856            AND BP, [BP+DI+5678]
0734:054B 210F                AND [BX], CX
0734:054D 215778              AND [BX+78], DX
0734:0550 219F5634            AND [BX+3456], BX
0734:0554 2100                AND [BX+SI], AX
0734:0556 216069              AND [BX+SI+69], SP
0734:0559 21B87856            AND [BX+SI+5678], DI
0734:055D 2129                AND [BX+DI], BP
0734:055F 217149              AND [BX+DI+49], SI
0734:0562 21B97856            AND [BX+DI+5678], DI
0734:0566 2104                AND [SI], AX
0734:0568 214C78              AND [SI+78], CX
0734:056B 21945634            AND [SI+3456], DX
0734:056F 212D                AND [DI], BP
0734:0571 216578              AND [DI+78], SP
0734:0574 21B55634            AND [DI+3456], SI
0734:0578 217E00              AND [BP+00], DI
0734:057B 214E78              AND [BP+78], CX
0734:057E 21965634            AND [BP+3456], DX
0734:0582 2132                AND [BP+SI], SI
0734:0584 217A59              AND [BP+SI+59], DI
0734:0587 21827856            AND [BP+SI+5678], AX
0734:058B 213B                AND [BP+DI], DI
0734:058D 215B19              AND [BP+DI+19], BX
0734:0590 21937856            AND [BP+DI+5678], DX
0734:0594 2205                AND AL, [DI]
0734:0596 226578              AND AH, [DI+78]
0734:0599 22BD5634            AND BH, [DI+3456]
0734:059D 224E00              AND CL, [BP+00]
0734:05A0 225678              AND DL, [BP+78]
0734:05A3 229E5634            AND BL, [BP+3456]
0734:05A7 222A                AND CH, [BP+SI]
0734:05A9 207578              AND [DI+78], DH
0734:05AC 20955634            AND [DI+3456], DL
0734:05B0 206E00              AND [BP+00], CH
0734:05B3 204E56              AND [BP+56], CL
0734:05B6 20BE5634            AND [BP+3456], BH
0734:05BA 201A                AND [BP+SI], BL
0734:05BC 206245              AND [BP+SI+45], AH
0734:05BF 20827856            AND [BP+SI+5678], AL
0734:05C3 80657815            AND BYTE PTR [DI+78], 15
0734:05C7 80A5563416          AND BYTE PTR [DI+3456], 16
0734:05CC 80660028            AND BYTE PTR [BP+00], 28
0734:05D0 80665688            AND BYTE PTR [BP+56], 88
0734:05D4 81A656343412        AND WORD PTR [BP+3456], 1234
0734:05DA 81221534            AND WORD PTR [BP+SI], 3415
0734:05DE 8162458547          AND WORD PTR [BP+SI+45], 4785
0734:05E3 81A278563615        AND WORD PTR [BP+SI+5678], 1536
0734:05E9 80E115              AND CL, 15
0734:05EC 80E516              AND CH, 16
0734:05EF 80E228              AND DL, 28
0734:05F2 80E488              AND AH, 88
0734:05F5 81E33412            AND BX, 1234
0734:05F9 81E71534            AND DI, 3415
0734:05FD 81E48547            AND SP, 4785
0734:0601 81E53615            AND BP, 1536
0734:0605 2415                AND AL, 15
0734:0607 251516              AND AX, 1615
0734:060A 850F                TEST [BX], CX
0734:060C 855778              TEST [BX+78], DX
0734:060F 859F5634            TEST [BX+3456], BX
0734:0613 8530                TEST [BX+SI], SI
0734:0615 857879              TEST [BX+SI+79], DI
0734:0618 85A87856            TEST [BX+SI+5678], BP
0734:061C 8531                TEST [BX+DI], SI
0734:061E 857929              TEST [BX+DI+29], DI
0734:0621 85A97856            TEST [BX+DI+5678], BP
0734:0625 8524                TEST [SI], SP
0734:0627 855428              TEST [SI+28], DX
0734:062A 859C5634            TEST [SI+3456], BX
0734:062E 8505                TEST [DI], AX
0734:0630 855558              TEST [DI+58], DX
0734:0633 859D5634            TEST [DI+3456], BX
0734:0637 854E00              TEST [BP+00], CX
0734:063A 855658              TEST [BP+58], DX
0734:063D 859E5634            TEST [BP+3456], BX
0734:0641 8532                TEST [BP+SI], SI
0734:0643 857A39              TEST [BP+SI+39], DI
0734:0646 85AA7856            TEST [BP+SI+5678], BP
0734:064A 8533                TEST [BP+DI], SI
0734:064C 857B49              TEST [BP+DI+49], DI
0734:064F 85AB7856            TEST [BP+DI+5678], BP
0734:0653 850F                TEST [BX], CX
0734:0655 855778              TEST [BX+78], DX
0734:0658 859F5634            TEST [BX+3456], BX
0734:065C 8500                TEST [BX+SI], AX
0734:065E 856069              TEST [BX+SI+69], SP
0734:0661 85B87856            TEST [BX+SI+5678], DI
0734:0665 8529                TEST [BX+DI], BP
0734:0667 857149              TEST [BX+DI+49], SI
0734:066A 85B97856            TEST [BX+DI+5678], DI
0734:066E 8504                TEST [SI], AX
0734:0670 854C78              TEST [SI+78], CX
0734:0673 85945634            TEST [SI+3456], DX
0734:0677 852D                TEST [DI], BP
0734:0679 856578              TEST [DI+78], SP
0734:067C 85B55634            TEST [DI+3456], SI
0734:0680 857E00              TEST [BP+00], DI
0734:0683 854E78              TEST [BP+78], CX
0734:0686 85965634            TEST [BP+3456], DX
0734:068A 8532                TEST [BP+SI], SI
0734:068C 857A59              TEST [BP+SI+59], DI
0734:068F 85827856            TEST [BP+SI+5678], AX
0734:0693 853B                TEST [BP+DI], DI
0734:0695 855B19              TEST [BP+DI+19], BX
0734:0698 85937856            TEST [BP+DI+5678], DX
0734:069C 8405                TEST [DI], AL
0734:069E 846578              TEST [DI+78], AH
0734:06A1 84BD5634            TEST [DI+3456], BH
0734:06A5 844E00              TEST [BP+00], CL
0734:06A8 845678              TEST [BP+78], DL
0734:06AB 849E5634            TEST [BP+3456], BL
0734:06AF 842A                TEST [BP+SI], CH
0734:06B1 847578              TEST [DI+78], DH
0734:06B4 84955634            TEST [DI+3456], DL
0734:06B8 846E00              TEST [BP+00], CH
0734:06BB 844E56              TEST [BP+56], CL
0734:06BE 84BE5634            TEST [BP+3456], BH
0734:06C2 841A                TEST [BP+SI], BL
0734:06C4 846245              TEST [BP+SI+45], AH
0734:06C7 84827856            TEST [BP+SI+5678], AL
0734:06CB F6457815            TEST BYTE PTR [DI+78], 15
0734:06CF F685563416          TEST BYTE PTR [DI+3456], 16
0734:06D4 F6460028            TEST BYTE PTR [BP+00], 28
0734:06D8 F6465688            TEST BYTE PTR [BP+56], 88
0734:06DC F78656343412        TEST WORD PTR [BP+3456], 1234
0734:06E2 F7021534            TEST WORD PTR [BP+SI], 3415
0734:06E6 F742458547          TEST WORD PTR [BP+SI+45], 4785
0734:06EB F78278563615        TEST WORD PTR [BP+SI+5678], 1536
0734:06F1 F6C115              TEST CL, 15
0734:06F4 F6C516              TEST CH, 16
0734:06F7 F6C228              TEST DL, 28
0734:06FA F6C488              TEST AH, 88
0734:06FD F7C33412            TEST BX, 1234
0734:0701 F7C71534            TEST DI, 3415
0734:0705 F7C48547            TEST SP, 4785
0734:0709 F7C53615            TEST BP, 1536
0734:070D A815                TEST AL, 15
0734:070F A91516              TEST AX, 1615
0734:0712 0B0F                OR CX, [BX]
0734:0714 0B5778              OR DX, [BX+78]
0734:0717 0B9F5634            OR BX, [BX+3456]
0734:071B 0B30                OR SI, [BX+SI]
0734:071D 0B7879              OR DI, [BX+SI+79]
0734:0720 0BA87856            OR BP, [BX+SI+5678]
0734:0724 0B31                OR SI, [BX+DI]
0734:0726 0B7929              OR DI, [BX+DI+29]
0734:0729 0BA97856            OR BP, [BX+DI+5678]
0734:072D 0B24                OR SP, [SI]
0734:072F 0B5428              OR DX, [SI+28]
0734:0732 0B9C5634            OR BX, [SI+3456]
0734:0736 0B05                OR AX, [DI]
0734:0738 0B5558              OR DX, [DI+58]
0734:073B 0B9D5634            OR BX, [DI+3456]
0734:073F 0B4E00              OR CX, [BP+00]
0734:0742 0B5658              OR DX, [BP+58]
0734:0745 0B9E5634            OR BX, [BP+3456]
0734:0749 0B32                OR SI, [BP+SI]
0734:074B 0B7A39              OR DI, [BP+SI+39]
0734:074E 0BAA7856            OR BP, [BP+SI+5678]
0734:0752 0B33                OR SI, [BP+DI]
0734:0754 0B7B49              OR DI, [BP+DI+49]
0734:0757 0BAB7856            OR BP, [BP+DI+5678]
0734:075B 090F                OR [BX], CX
0734:075D 095778              OR [BX+78], DX
0734:0760 099F5634            OR [BX+3456], BX
0734:0764 0900                OR [BX+SI], AX
0734:0766 096069              OR [BX+SI+69], SP
0734:0769 09B87856            OR [BX+SI+5678], DI
0734:076D 0929                OR [BX+DI], BP
0734:076F 097149              OR [BX+DI+49], SI
0734:0772 09B97856            OR [BX+DI+5678], DI
0734:0776 0904                OR [SI], AX
0734:0778 094C78              OR [SI+78], CX
0734:077B 09945634            OR [SI+3456], DX
0734:077F 092D                OR [DI], BP
0734:0781 096578              OR [DI+78], SP
0734:0784 09B55634            OR [DI+3456], SI
0734:0788 097E00              OR [BP+00], DI
0734:078B 094E78              OR [BP+78], CX
0734:078E 09965634            OR [BP+3456], DX
0734:0792 0932                OR [BP+SI], SI
0734:0794 097A59              OR [BP+SI+59], DI
0734:0797 09827856            OR [BP+SI+5678], AX
0734:079B 093B                OR [BP+DI], DI
0734:079D 095B19              OR [BP+DI+19], BX
0734:07A0 09937856            OR [BP+DI+5678], DX
0734:07A4 0A05                OR AL, [DI]
0734:07A6 0A6578              OR AH, [DI+78]
0734:07A9 0ABD5634            OR BH, [DI+3456]
0734:07AD 0A4E00              OR CL, [BP+00]
0734:07B0 0A5678              OR DL, [BP+78]
0734:07B3 0A9E5634            OR BL, [BP+3456]
0734:07B7 0A2A                OR CH, [BP+SI]
0734:07B9 087578              OR [DI+78], DH
0734:07BC 08955634            OR [DI+3456], DL
0734:07C0 086E00              OR [BP+00], CH
0734:07C3 084E56              OR [BP+56], CL
0734:07C6 08BE5634            OR [BP+3456], BH
0734:07CA 081A                OR [BP+SI], BL
0734:07CC 086245              OR [BP+SI+45], AH
0734:07CF 08827856            OR [BP+SI+5678], AL
0734:07D3 804D7815            OR [DI+78], 15
0734:07D7 808D563416          OR [DI+3456], 16
0734:07DC 804E0028            OR [BP+00], 28
0734:07E0 804E5688            OR [BP+56], 88
0734:07E4 818E56343412        OR [BP+3456], 1234
0734:07EA 810A1534            OR [BP+SI], 3415
0734:07EE 814A458547          OR [BP+SI+45], 4785
0734:07F3 818A78563615        OR [BP+SI+5678], 1536
0734:07F9 80C915              OR CL, 15
0734:07FC 80CD16              OR CH, 16
0734:07FF 80CA28              OR DL, 28
0734:0802 80CC88              OR AH, 88
0734:0805 81CB3412            OR BX, 1234
0734:0809 81CF1534            OR DI, 3415
0734:080D 81CC8547            OR SP, 4785
0734:0811 81CD3615            OR BP, 1536
0734:0815 0C15                OR AL, 15
0734:0817 0D1716              OR AX, 1617
0734:081A 330F                XOR CX, [BX]
0734:081C 335778              XOR DX, [BX+78]
0734:081F 339F5634            XOR BX, [BX+3456]
0734:0823 3330                XOR SI, [BX+SI]
0734:0825 337879              XOR DI, [BX+SI+79]
0734:0828 33A87856            XOR BP, [BX+SI+5678]
0734:082C 3331                XOR SI, [BX+DI]
0734:082E 337929              XOR DI, [BX+DI+29]
0734:0831 33A97856            XOR BP, [BX+DI+5678]
0734:0835 3324                XOR SP, [SI]
0734:0837 335428              XOR DX, [SI+28]
0734:083A 339C5634            XOR BX, [SI+3456]
0734:083E 3305                XOR AX, [DI]
0734:0840 335558              XOR DX, [DI+58]
0734:0843 339D5634            XOR BX, [DI+3456]
0734:0847 334E00              XOR CX, [BP+00]
0734:084A 335658              XOR DX, [BP+58]
0734:084D 339E5634            XOR BX, [BP+3456]
0734:0851 3332                XOR SI, [BP+SI]
0734:0853 337A39              XOR DI, [BP+SI+39]
0734:0856 33AA7856            XOR BP, [BP+SI+5678]
0734:085A 3333                XOR SI, [BP+DI]
0734:085C 337B49              XOR DI, [BP+DI+49]
0734:085F 33AB7856            XOR BP, [BP+DI+5678]
0734:0863 310F                XOR [BX], CX
0734:0865 315778              XOR [BX+78], DX
0734:0868 319F5634            XOR [BX+3456], BX
0734:086C 3100                XOR [BX+SI], AX
0734:086E 316069              XOR [BX+SI+69], SP
0734:0871 31B87856            XOR [BX+SI+5678], DI
0734:0875 3129                XOR [BX+DI], BP
0734:0877 317149              XOR [BX+DI+49], SI
0734:087A 31B97856            XOR [BX+DI+5678], DI
0734:087E 3104                XOR [SI], AX
0734:0880 314C78              XOR [SI+78], CX
0734:0883 31945634            XOR [SI+3456], DX
0734:0887 312D                XOR [DI], BP
0734:0889 316578              XOR [DI+78], SP
0734:088C 31B55634            XOR [DI+3456], SI
0734:0890 317E00              XOR [BP+00], DI
0734:0893 314E78              XOR [BP+78], CX
0734:0896 31965634            XOR [BP+3456], DX
0734:089A 3132                XOR [BP+SI], SI
0734:089C 317A59              XOR [BP+SI+59], DI
0734:089F 31827856            XOR [BP+SI+5678], AX
0734:08A3 313B                XOR [BP+DI], DI
0734:08A5 315B19              XOR [BP+DI+19], BX
0734:08A8 31937856            XOR [BP+DI+5678], DX
0734:08AC 3205                XOR AL, [DI]
0734:08AE 326578              XOR AH, [DI+78]
0734:08B1 32BD5634            XOR BH, [DI+3456]
0734:08B5 324E00              XOR CL, [BP+00]
0734:08B8 325678              XOR DL, [BP+78]
0734:08BB 329E5634            XOR BL, [BP+3456]
0734:08BF 322A                XOR CH, [BP+SI]
0734:08C1 307578              XOR [DI+78], DH
0734:08C4 30955634            XOR [DI+3456], DL
0734:08C8 306E00              XOR [BP+00], CH
0734:08CB 304E56              XOR [BP+56], CL
0734:08CE 30BE5634            XOR [BP+3456], BH
0734:08D2 301A                XOR [BP+SI], BL
0734:08D4 306245              XOR [BP+SI+45], AH
0734:08D7 30827856            XOR [BP+SI+5678], AL
0734:08DB 80757815            XOR [DI+78], 15
0734:08DF 80B5563416          XOR [DI+3456], 16
0734:08E4 80760028            XOR [BP+00], 28
0734:08E8 80765688            XOR [BP+56], 88
0734:08EC 81B656343412        XOR [BP+3456], 1234
0734:08F2 81321534            XOR [BP+SI], 3415
0734:08F6 8172458547          XOR [BP+SI+45], 4785
0734:08FB 81B278563615        XOR [BP+SI+5678], 1536
0734:0901 80F115              XOR CL, 15
0734:0904 80F516              XOR CH, 16
0734:0907 80F228              XOR DL, 28
0734:090A 80F488              XOR AH, 88
0734:090D 81F33412            XOR BX, 1234
0734:0911 81F71534            XOR DI, 3415
0734:0915 81F48547            XOR SP, 4785
0734:0919 81F53615            XOR BP, 1536
0734:091D 3418                XOR AL, 18
0734:091F 357756              XOR AX, 5677
0734:0922 AC                  LODSB
0734:0923 AD                  LODSW
0734:0924 A4                  MOVSB
0734:0925 A5                  MOVSW
0734:0926 A6                  CMPSB
0734:0927 A7                  CMPSW
0734:0928 AE                  SCASB
0734:0929 AF                  SCASW
0734:092A AA                  STOSB
0734:092B AB                  STOSW
0734:092C F3A6                REPE                    CMPSW
0734:092E F2A6                REPNE                    CMPSB
0734:0930 F8                  CLC
0734:0931 F5                  CMC
0734:0932 F9                  STC
0734:0933 FC                  CLD
0734:0934 FD                  STD
0734:0935 FA                  CLI
0734:0936 FB                  STI
0734:0937 F4                  HLT
0734:0938 9B                  WAIT (unused)
0734:0939 F0                  LOCK (unused)
0734:093A D9D0                FNOP
0734:093C D904                FLD FLOAT PTR [SI]
0734:093E DD00                FLD DWORD PTR [BX+SI]
0734:0940 DF05                FILD WORD PTR [DI]
0734:0942 DF6712              FBLD TBYTE PTR [BX+12]
0734:0945 D9CB                FXCH ST(3)
0734:0947 D9E4                FTST
0734:0949 DF1E6745            FISTP WORD PTR [4567]
0734:094D D9FA                FSQRT
0734:094F D9F3                FPATAN
0734:0951 9BD92F              FSTCW WORD PTR [BX]
0734:0954 FF37                PUSH WORD PTR [BX]
0734:0956 FF7778              PUSH WORD PTR [BX+78]
0734:0959 FFB75634            PUSH WORD PTR [BX+3456]
0734:095D FF30                PUSH WORD PTR [BX+SI]
0734:095F FF7079              PUSH WORD PTR [BX+SI+79]
0734:0962 FFB07856            PUSH WORD PTR [BX+SI+5678]
0734:0966 FF31                PUSH WORD PTR [BX+DI]
0734:0968 FF35                PUSH WORD PTR [DI]
0734:096A FF7558              PUSH WORD PTR [DI+58]
0734:096D FFB55634            PUSH WORD PTR [DI+3456]
0734:0971 FF7600              PUSH WORD PTR [BP+00]
0734:0974 FF7658              PUSH WORD PTR [BP+58]
0734:0977 FFB65634            PUSH WORD PTR [BP+3456]
0734:097B FFB37856            PUSH WORD PTR [BP+DI+5678]
0734:097F 1E                  PUSH DS
0734:0980 0E                  PUSH CS
0734:0981 16                  PUSH SS
0734:0982 06                  PUSH ES
0734:0983 8F07                POP [BX]
0734:0985 8F4778              POP [BX+78]
0734:0988 8F875634            POP [BX+3456]
0734:098C 8F00                POP [BX+SI]
0734:098E 8F4079              POP [BX+SI+79]
0734:0991 8F807856            POP [BX+SI+5678]
0734:0995 8F01                POP [BX+DI]
0734:0997 8F05                POP [DI]
0734:0999 8F4558              POP [DI+58]
0734:099C 8F855634            POP [DI+3456]
0734:09A0 8F4600              POP [BP+00]
0734:09A3 8F4658              POP [BP+58]
0734:09A6 8F865634            POP [BP+3456]
0734:09AA 8F837856            POP [BP+DI+5678]
0734:09AE 1F                  POP DS
0734:09AF 0F                  DB 0F
0734:09B0 17                  POP SS
0734:09B1 07                  POP ES
0734:09B2 50                  PUSH AL
0734:09B3 51                  PUSH CX
0734:09B4 52                  PUSH DL
0734:09B5 53                  PUSH BX
0734:09B6 54                  PUSH AH
0734:09B7 55                  PUSH BP
0734:09B8 56                  PUSH DH
0734:09B9 57                  PUSH DI
0734:09BA 58                  POP AX
0734:09BB 59                  POP CX
0734:09BC 5A                  POP DX
0734:09BD 5B                  POP BX
0734:09BE 5C                  POP SP
0734:09BF 5D                  POP BP
0734:09C0 5E                  POP SI
0734:09C1 5F                  POP DI
0734:09C2 86E0                XCHG AL, AL
0734:09C4 86E1                XCHG AH, CL
0734:09C6 86D8                XCHG AH, AL
0734:09C8 86EA                XCHG BL, DL
0734:09CA 86FE                XCHG CH, DH
0734:09CC 87CB                XCHG DI, BX
0734:09CE 87DB                XCHG CX, BX
0734:09D0 87CA                XCHG BX, DX
0734:09D2 87D9                XCHG CX, CX
0734:09D4 87EC                XCHG BX, SP
0734:09D6 87FE                XCHG BP, SI
0734:09D8 87F9                XCHG DI, CX
0734:09DA 87F7                XCHG DI, DI
0734:09DC 87CD                XCHG SI, BP
0734:09DE 87EA                XCHG CX, DX
0734:09E0 8607                XCHG CH, BYTE PTR [BX]
0734:09E2 864E00              XCHG AL, BYTE PTR [BP+00]
0734:09E5 8600                XCHG CL, BYTE PTR [BX+SI]
0734:09E7 86964523            XCHG AL, BYTE PTR [BP+2345]
0734:09EB 86B45423            XCHG DL, BYTE PTR [SI+2354]
0734:09EF 8737                XCHG SI, WORD PTR [BX]
0734:09F1 870B                XCHG SI, WORD PTR [BP+DI]
0734:09F3 874015              XCHG CX, WORD PTR [BX+SI+15]
0734:09F6 87AB4523            XCHG AX, WORD PTR [BP+DI+2345]
0734:09FA 87945423            XCHG BP, WORD PTR [SI+2354]
0734:09FE 90                  XCHG AX, AX
0734:09FF 91                  XCHG AX, CX
0734:0A00 92                  XCHG AX, DX
0734:0A01 93                  XCHG AX, BX
0734:0A02 94                  XCHG AX, SP
0734:0A03 95                  XCHG AX, BP
0734:0A04 96                  XCHG AX, SI
0734:0A05 97                  XCHG AX, DI
0734:0A06 E412                IN AL, 12
0734:0A08 E515                IN AX, 15
0734:0A0A EC                  IN AL, DX
0734:0A0B ED                  IN AX, DX
0734:0A0C E617                OUT 17, AL
0734:0A0E E745                OUT 45, AX
0734:0A10 EE                  OUT DX, AL
0734:0A11 EF                  OUT DX, AX
0734:0A12 D7                  XLAT
0734:0A13 8D985423            LEA BX, [BX+SI+2354]
0734:0A17 8D4A54              LEA CX, [BP+SI+54]
0734:0A1A 8D5600              LEA DX, [BP+00]
0734:0A1D 8D3E1200            LEA DI, [0012]
0734:0A21 C4985423            LES BX, [BX+SI+2354]
0734:0A25 C54A54              LDS CX, [BP+SI+54]
0734:0A28 C45600              LES DX, [BP+00]
0734:0A2B 9F                  LAHF
0734:0A2C 9E                  SAHF
0734:0A2D 9C                  PUSHF
0734:0A2E 9D                  POPF
0734:0A2F 030F                ADD CX, [BX]
0734:0A31 035778              ADD DX, [BX+78]
0734:0A34 039F5634            ADD BX, [BX+3456]
0734:0A38 0330                ADD SI, [BX+SI]
0734:0A3A 037879              ADD DI, [BX+SI+79]
0734:0A3D 03A87856            ADD BP, [BX+SI+5678]
0734:0A41 0331                ADD SI, [BX+DI]
0734:0A43 037929              ADD DI, [BX+DI+29]
0734:0A46 03A97856            ADD BP, [BX+DI+5678]
0734:0A4A 0324                ADD SP, [SI]
0734:0A4C 035428              ADD DX, [SI+28]
0734:0A4F 039C5634            ADD BX, [SI+3456]
0734:0A53 0305                ADD AX, [DI]
0734:0A55 035558              ADD DX, [DI+58]
0734:0A58 039D5634            ADD BX, [DI+3456]
0734:0A5C 034E00              ADD CX, [BP+00]
0734:0A5F 035658              ADD DX, [BP+58]
0734:0A62 039E5634            ADD BX, [BP+3456]
0734:0A66 0332                ADD SI, [BP+SI]
0734:0A68 037A39              ADD DI, [BP+SI+39]
0734:0A6B 03AA7856            ADD BP, [BP+SI+5678]
0734:0A6F 0333                ADD SI, [BP+DI]
0734:0A71 037B49              ADD DI, [BP+DI+49]
0734:0A74 03AB7856            ADD BP, [BP+DI+5678]
0734:0A78 010F                ADD [BX], CX
0734:0A7A 015778              ADD [BX+78], DX
0734:0A7D 019F5634            ADD [BX+3456], BX
0734:0A81 0100                ADD [BX+SI], AX
0734:0A83 016069              ADD [BX+SI+69], SP
0734:0A86 01B87856            ADD [BX+SI+5678], DI
0734:0A8A 0129                ADD [BX+DI], BP
0734:0A8C 017149              ADD [BX+DI+49], SI
0734:0A8F 01B97856            ADD [BX+DI+5678], DI
0734:0A93 0104                ADD [SI], AX
0734:0A95 014C78              ADD [SI+78], CX
0734:0A98 01945634            ADD [SI+3456], DX
0734:0A9C 012D                ADD [DI], BP
0734:0A9E 016578              ADD [DI+78], SP
0734:0AA1 01B55634            ADD [DI+3456], SI
0734:0AA5 017E00              ADD [BP+00], DI
0734:0AA8 014E78              ADD [BP+78], CX
0734:0AAB 01965634            ADD [BP+3456], DX
0734:0AAF 0132                ADD [BP+SI], SI
0734:0AB1 017A59              ADD [BP+SI+59], DI
0734:0AB4 01827856            ADD [BP+SI+5678], AX
0734:0AB8 013B                ADD [BP+DI], DI
0734:0ABA 015B19              ADD [BP+DI+19], BX
0734:0ABD 01937856            ADD [BP+DI+5678], DX
0734:0AC1 0205                ADD AL, [DI]
0734:0AC3 026578              ADD AH, [DI+78]
0734:0AC6 02BD5634            ADD BH, [DI+3456]
0734:0ACA 024E00              ADD CL, [BP+00]
0734:0ACD 025678              ADD DL, [BP+78]
0734:0AD0 029E5634            ADD BL, [BP+3456]
0734:0AD4 022A                ADD CH, [BP+SI]
0734:0AD6 007578              ADD [DI+78], DH
0734:0AD9 00955634            ADD [DI+3456], DL
0734:0ADD 006E00              ADD [BP+00], CH
0734:0AE0 004E56              ADD [BP+56], CL
0734:0AE3 00BE5634            ADD [BP+3456], BH
0734:0AE7 001A                ADD [BP+SI], BL
0734:0AE9 006245              ADD [BP+SI+45], AH
0734:0AEC 00827856            ADD [BP+SI+5678], AL
0734:0AF0 80457815            ADD BYTE PTR [DI+78], 15
0734:0AF4 8085563416          ADD BYTE PTR [DI+3456], 16
0734:0AF9 80460028            ADD BYTE PTR [BP+00], 28
0734:0AFD 80465688            ADD BYTE PTR [BP+56], 88
0734:0B01 818656343412        ADD WORD PTR [BP+3456], 1234
0734:0B07 81021534            ADD WORD PTR [BP+SI], 3415
0734:0B0B 8142458547          ADD WORD PTR [BP+SI+45], 4785
0734:0B10 818278563615        ADD WORD PTR [BP+SI+5678], 1536
0734:0B16 8386563412          ADD WORD PTR [BP+3456], +12
0734:0B1B 830235              ADD WORD PTR [BP+SI], +35
0734:0B1E 83424545            ADD WORD PTR [BP+SI+45], +45
0734:0B22 8382785616          ADD WORD PTR [BP+SI+5678], +16
0734:0B27 80C115              ADD CL, 15
0734:0B2A 80C516              ADD CH, 16
0734:0B2D 80C228              ADD DL, 28
0734:0B30 80C488              ADD AH, 88
0734:0B33 81C33412            ADD BX, 1234
0734:0B37 81C71534            ADD DI, 3415
0734:0B3B 81C48547            ADD SP, 4785
0734:0B3F 81C53615            ADD BP, 1536
0734:0B43 83C314              ADD BX, +14
0734:0B46 83C635              ADD SI, +35
0734:0B49 83C465              ADD SP, +65
0734:0B4C 83C516              ADD BP, +16
0734:0B4F 0417                ADD AL, 17
0734:0B51 051752              ADD AX, 5217
0734:0B54 130F                ADC CX, [BX]
0734:0B56 135778              ADC DX, [BX+78]
0734:0B59 139F5634            ADC BX, [BX+3456]
0734:0B5D 1330                ADC SI, [BX+SI]
0734:0B5F 137879              ADC DI, [BX+SI+79]
0734:0B62 13A87856            ADC BP, [BX+SI+5678]
0734:0B66 1331                ADC SI, [BX+DI]
0734:0B68 137929              ADC DI, [BX+DI+29]
0734:0B6B 13A97856            ADC BP, [BX+DI+5678]
0734:0B6F 1324                ADC SP, [SI]
0734:0B71 135428              ADC DX, [SI+28]
0734:0B74 139C5634            ADC BX, [SI+3456]
0734:0B78 1305                ADC AX, [DI]
0734:0B7A 135558              ADC DX, [DI+58]
0734:0B7D 139D5634            ADC BX, [DI+3456]
0734:0B81 134E00              ADC CX, [BP+00]
0734:0B84 135658              ADC DX, [BP+58]
0734:0B87 139E5634            ADC BX, [BP+3456]
0734:0B8B 1332                ADC SI, [BP+SI]
0734:0B8D 137A39              ADC DI, [BP+SI+39]
0734:0B90 13AA7856            ADC BP, [BP+SI+5678]
0734:0B94 1333                ADC SI, [BP+DI]
0734:0B96 137B49              ADC DI, [BP+DI+49]
0734:0B99 13AB7856            ADC BP, [BP+DI+5678]
0734:0B9D 110F                ADC [BX], CX
0734:0B9F 115778              ADC [BX+78], DX
0734:0BA2 119F5634            ADC [BX+3456], BX
0734:0BA6 1100                ADC [BX+SI], AX
0734:0BA8 116069              ADC [BX+SI+69], SP
0734:0BAB 11B87856            ADC [BX+SI+5678], DI
0734:0BAF 1129                ADC [BX+DI], BP
0734:0BB1 117149              ADC [BX+DI+49], SI
0734:0BB4 11B97856            ADC [BX+DI+5678], DI
0734:0BB8 1104                ADC [SI], AX
0734:0BBA 114C78              ADC [SI+78], CX
0734:0BBD 11945634            ADC [SI+3456], DX
0734:0BC1 112D                ADC [DI], BP
0734:0BC3 116578              ADC [DI+78], SP
0734:0BC6 11B55634            ADC [DI+3456], SI
0734:0BCA 117E00              ADC [BP+00], DI
0734:0BCD 114E78              ADC [BP+78], CX
0734:0BD0 11965634            ADC [BP+3456], DX
0734:0BD4 1132                ADC [BP+SI], SI
0734:0BD6 117A59              ADC [BP+SI+59], DI
0734:0BD9 11827856            ADC [BP+SI+5678], AX
0734:0BDD 113B                ADC [BP+DI], DI
0734:0BDF 115B19              ADC [BP+DI+19], BX
0734:0BE2 11937856            ADC [BP+DI+5678], DX
0734:0BE6 1205                ADC AL, [DI]
0734:0BE8 126578              ADC AH, [DI+78]
0734:0BEB 12BD5634            ADC BH, [DI+3456]
0734:0BEF 124E00              ADC CL, [BP+00]
0734:0BF2 125678              ADC DL, [BP+78]
0734:0BF5 129E5634            ADC BL, [BP+3456]
0734:0BF9 122A                ADC CH, [BP+SI]
0734:0BFB 107578              ADC [DI+78], DH
0734:0BFE 10955634            ADC [DI+3456], DL
0734:0C02 106E00              ADC [BP+00], CH
0734:0C05 104E56              ADC [BP+56], CL
0734:0C08 10BE5634            ADC [BP+3456], BH
0734:0C0C 101A                ADC [BP+SI], BL
0734:0C0E 106245              ADC [BP+SI+45], AH
0734:0C11 10827856            ADC [BP+SI+5678], AL
0734:0C15 80557815            ADC BYTE PTR [DI+78], 15
0734:0C19 8095563416          ADC BYTE PTR [DI+3456], 16
0734:0C1E 80560028            ADC BYTE PTR [BP+00], 28
0734:0C22 80565688            ADC BYTE PTR [BP+56], 88
0734:0C26 819656343412        ADC WORD PTR [BP+3456], 1234
0734:0C2C 81121534            ADC WORD PTR [BP+SI], 3415
0734:0C30 8152458547          ADC WORD PTR [BP+SI+45], 4785
0734:0C35 819278563615        ADC WORD PTR [BP+SI+5678], 1536
0734:0C3B 8396563412          ADC WORD PTR [BP+3456], +12
0734:0C40 831235              ADC WORD PTR [BP+SI], +35
0734:0C43 83524545            ADC WORD PTR [BP+SI+45], +45
0734:0C47 8392785616          ADC WORD PTR [BP+SI+5678], +16
0734:0C4C 80D115              ADC CL, 15
0734:0C4F 80D516              ADC CH, 16
0734:0C52 80D228              ADC DL, 28
0734:0C55 80D488              ADC AH, 88
0734:0C58 81D33412            ADC BX, 1234
0734:0C5C 81D71534            ADC DI, 3415
0734:0C60 81D48547            ADC SP, 4785
0734:0C64 81D53615            ADC BP, 1536
0734:0C68 83D314              ADC BX, +14
0734:0C6B 83D635              ADC SI, +35
0734:0C6E 83D465              ADC SP, +65
0734:0C71 83D516              ADC BP, +16
0734:0C74 0417                ADD AL, 17
0734:0C76 051752              ADD AX, 5217
0734:0C79 741E                JE	0C99
0734:0C7B 741D                JE	0C9A
0734:0C7D 7CFA                JL	0C79
0734:0C7F 7E48                JLE	0CC9
0734:0C81 72F6                JB	0C79
0734:0C83 7614                JBE	0C99
0734:0C85 7A14                JP	0C9B
0734:0C87 70F0                JO	0C79
0734:0C89 78F0                JS	0C7B
0734:0C8B 75F0                JNE	0C7D
0734:0C8D 75EC                JNE	0C7B
0734:0C8F 7D08                JNL	0C99
0734:0C91 7F09                JG	0C9C
0734:0C93 73E6                JNB	0C7B
0734:0C95 77E2                JA	0C79
0734:0C97 7BF0                JNP	0C89
0734:0C99 71DE                JNO	0C79
0734:0C9B 792C                JNS	0CC9
0734:0C9D E22C                LOOP	0CCB
0734:0C9F E1D8                LOOPE	0C79
0734:0CA1 E1D7                LOOPE	0C7A
0734:0CA3 E0D6                LOOPNE	0C7B
0734:0CA5 E0D5                LOOPNE	0C7C
0734:0CA7 E3F5                JCXZ	0C9E
0734:0CA9 E82333              CALL 3FCC
0734:0CAC FF17                CALL WORD PTR [BX]
0734:0CAE FF5778              CALL WORD PTR [BX+78]
0734:0CB1 FF975634            CALL WORD PTR [BX+3456]
0734:0CB5 FF10                CALL WORD PTR [BX+SI]
0734:0CB7 FF5079              CALL WORD PTR [BX+SI+79]
0734:0CBA FF907856            CALL WORD PTR [BX+SI+5678]
0734:0CBE FF11                CALL WORD PTR [BX+DI]
0734:0CC0 FF5129              CALL WORD PTR [BX+DI+29]
0734:0CC3 FF917856            CALL WORD PTR [BX+DI+5678]
0734:0CC7 FF14                CALL WORD PTR [SI]
0734:0CC9 FF5428              CALL WORD PTR [SI+28]
0734:0CCC FF945634            CALL WORD PTR [SI+3456]
0734:0CD0 FF15                CALL WORD PTR [DI]
0734:0CD2 FFD0                CALL AX
0734:0CD4 FFD3                CALL BX
0734:0CD6 FFD1                CALL CX
0734:0CD8 FFD2                CALL DX
0734:0CDA FFD4                CALL SP
0734:0CDC FFD7                CALL DI
0734:0CDE FFD5                CALL BP
0734:0CE0 FFD6                CALL SI
0734:0CE2 FFD5                CALL BP
0734:0CE4 9A45225634          CALL 3456:2245
0734:0CE9 FF1F                CALL FAR [BX]
0734:0CEB FF5F78              CALL FAR [BX+78]
0734:0CEE FF9F5634            CALL FAR [BX+3456]
0734:0CF2 FF18                CALL FAR [BX+SI]
0734:0CF4 FF5879              CALL FAR [BX+SI+79]
0734:0CF7 FF987856            CALL FAR [BX+SI+5678]
0734:0CFB FF19                CALL FAR [BX+DI]
0734:0CFD FF5929              CALL FAR [BX+DI+29]
0734:0D00 FF997856            CALL FAR [BX+DI+5678]
0734:0D04 FF1C                CALL FAR [SI]
0734:0D06 FF5C28              CALL FAR [SI+28]
0734:0D09 FF9C5634            CALL FAR [SI+3456]
0734:0D0D FF1D                CALL FAR [DI]
0734:0D0F E9BD32              JMP 3FCC
0734:0D12 EB15                JMP	0D29
0734:0D14 FF27                JMP WORD PTR [BX]
0734:0D16 FF6778              JMP WORD PTR [BX+78]
0734:0D19 FFA75634            JMP WORD PTR [BX+3456]
0734:0D1D FF20                JMP WORD PTR [BX+SI]
0734:0D1F FF6079              JMP WORD PTR [BX+SI+79]
0734:0D22 FFA07856            JMP WORD PTR [BX+SI+5678]
0734:0D26 FF21                JMP WORD PTR [BX+DI]
0734:0D28 FF6129              JMP WORD PTR [BX+DI+29]
0734:0D2B FFA17856            JMP WORD PTR [BX+DI+5678]
0734:0D2F FF24                JMP WORD PTR [SI]
0734:0D31 FF6428              JMP WORD PTR [SI+28]
0734:0D34 FFA45634            JMP WORD PTR [SI+3456]
0734:0D38 FF25                JMP WORD PTR [DI]
0734:0D3A FFE0                JMP AX
0734:0D3C FFE3                JMP BX
0734:0D3E FFE1                JMP CX
0734:0D40 FFE2                JMP DX
0734:0D42 FFE4                JMP SP
0734:0D44 FFE7                JMP DI
0734:0D46 FFE5                JMP BP
0734:0D48 FFE6                JMP SI
0734:0D4A FFE5                JMP BP
0734:0D4C EA45225634          JMP 3456:2245
0734:0D51 FF2F                JMP FAR [BX]
0734:0D53 FF6F78              JMP FAR [BX+78]
0734:0D56 FFAF5634            JMP FAR [BX+3456]
0734:0D5A FF28                JMP FAR [BX+SI]
0734:0D5C FF6879              JMP FAR [BX+SI+79]
0734:0D5F FFA87856            JMP FAR [BX+SI+5678]
0734:0D63 FF29                JMP FAR [BX+DI]
0734:0D65 FF6929              JMP FAR [BX+DI+29]
0734:0D68 FFA97856            JMP FAR [BX+DI+5678]
0734:0D6C FF2C                JMP FAR [SI]
0734:0D6E FF6C28              JMP FAR [SI+28]
0734:0D71 FFAC5634            JMP FAR [SI+3456]
0734:0D75 FF2D                JMP FAR [DI]
0734:0D77 C3                  RET
0734:0D78 C22301              RET 0123
0734:0D7B CB                  RETF
0734:0D7C CA4523              RETF 2345
0734:0D7F CC                  INT 3
0734:0D80 CE                  INTO
0734:0D81 CD21                INT 21
0734:0D83 CD80                INT 80
0734:0D85 8B0F                MOV CX, [BX]
0734:0D87 8B5778              MOV DX, [BX+78]
0734:0D8A 8B9F5634            MOV BX, [BX+3456]
0734:0D8E 8B30                MOV SI, [BX+SI]
0734:0D90 8B7879              MOV DI, [BX+SI+79]
0734:0D93 8BA87856            MOV BP, [BX+SI+5678]
0734:0D97 8B31                MOV SI, [BX+DI]
0734:0D99 8B7929              MOV DI, [BX+DI+29]
0734:0D9C 8BA97856            MOV BP, [BX+DI+5678]
0734:0DA0 8B24                MOV SP, [SI]
0734:0DA2 8B5428              MOV DX, [SI+28]
0734:0DA5 8B9C5634            MOV BX, [SI+3456]
0734:0DA9 8B05                MOV AX, [DI]
0734:0DAB 8B5558              MOV DX, [DI+58]
0734:0DAE 8B9D5634            MOV BX, [DI+3456]
0734:0DB2 8B4E00              MOV CX, [BP+00]
0734:0DB5 8B5658              MOV DX, [BP+58]
0734:0DB8 8B9E5634            MOV BX, [BP+3456]
0734:0DBC 8B32                MOV SI, [BP+SI]
0734:0DBE 8B7A39              MOV DI, [BP+SI+39]
0734:0DC1 8BAA7856            MOV BP, [BP+SI+5678]
0734:0DC5 8B33                MOV SI, [BP+DI]
0734:0DC7 8B7B49              MOV DI, [BP+DI+49]
0734:0DCA 8BAB7856            MOV BP, [BP+DI+5678]
0734:0DCE 890F                MOV [BX], CX
0734:0DD0 895778              MOV [BX+78], DX
0734:0DD3 899F5634            MOV [BX+3456], BX
0734:0DD7 8900                MOV [BX+SI], AX
0734:0DD9 896069              MOV [BX+SI+69], SP
0734:0DDC 89B87856            MOV [BX+SI+5678], DI
0734:0DE0 8929                MOV [BX+DI], BP
0734:0DE2 897149              MOV [BX+DI+49], SI
0734:0DE5 89B97856            MOV [BX+DI+5678], DI
0734:0DE9 8904                MOV [SI], AX
0734:0DEB 894C78              MOV [SI+78], CX
0734:0DEE 89945634            MOV [SI+3456], DX
0734:0DF2 892D                MOV [DI], BP
0734:0DF4 896578              MOV [DI+78], SP
0734:0DF7 89B55634            MOV [DI+3456], SI
0734:0DFB 897E00              MOV [BP+00], DI
0734:0DFE 894E78              MOV [BP+78], CX
0734:0E01 89965634            MOV [BP+3456], DX
0734:0E05 8932                MOV [BP+SI], SI
0734:0E07 897A59              MOV [BP+SI+59], DI
0734:0E0A 89827856            MOV [BP+SI+5678], AX
0734:0E0E 893B                MOV [BP+DI], DI
0734:0E10 895B19              MOV [BP+DI+19], BX
0734:0E13 89937856            MOV [BP+DI+5678], DX
0734:0E17 8A05                MOV AL, [DI]
0734:0E19 8A6578              MOV AH, [DI+78]
0734:0E1C 8ABD5634            MOV BH, [DI+3456]
0734:0E20 8A4E00              MOV CL, [BP+00]
0734:0E23 8A5678              MOV DL, [BP+78]
0734:0E26 8A9E5634            MOV BL, [BP+3456]
0734:0E2A 8A2A                MOV CH, [BP+SI]
0734:0E2C 887578              MOV [DI+78], DH
0734:0E2F 88955634            MOV [DI+3456], DL
0734:0E33 886E00              MOV [BP+00], CH
0734:0E36 884E56              MOV [BP+56], CL
0734:0E39 88BE5634            MOV [BP+3456], BH
0734:0E3D 881A                MOV [BP+SI], BL
0734:0E3F 886245              MOV [BP+SI+45], AH
0734:0E42 88827856            MOV [BP+SI+5678], AL
0734:0E46 C6457815            MOV BYTE PTR [DI+78], 15
0734:0E4A C685563416          MOV BYTE PTR [DI+3456], 16
0734:0E4F C6460028            MOV BYTE PTR [BP+00], 28
0734:0E53 C6465688            MOV BYTE PTR [BP+56], 88
0734:0E57 C78656343412        MOV WORD PTR [BP+3456], 1234
0734:0E5D C7021534            MOV WORD PTR [BP+SI], 3415
0734:0E61 C742458547          MOV WORD PTR [BP+SI+45], 4785
0734:0E66 C78278563615        MOV WORD PTR [BP+SI+5678], 1536
0734:0E6C B015                MOV AL, 15
0734:0E6E B416                MOV AH, 16
0734:0E70 B128                MOV CL, 28
0734:0E72 B688                MOV DH, 88
0734:0E74 BB3412              MOV BX, 1234
0734:0E77 BE1534              MOV SI, 3415
0734:0E7A BC8547              MOV SP, 4785
0734:0E7D BD3615              MOV BP, 1536
0734:0E80 C7C51254            MOV BP, 5412
0734:0E84 A13412              MOV AX, [1234]
0734:0E87 A03412              MOV AL, [1234]
0734:0E8A A31234              MOV [3412], AX
0734:0E8D A21234              MOV [3412], AL
0734:0E90 8C0F                MOV WORD PTR [BX], SS
0734:0E92 8C5778              MOV WORD PTR [BX+78], CS
0734:0E95 8C9F5634            MOV WORD PTR [BX+3456], DS
0734:0E99 8C00                MOV WORD PTR [BX+SI], ES
0734:0E9B 8C4869              MOV WORD PTR [BX+SI+69], SS
0734:0E9E 8E1F                MOV DS, WORD PTR [BX]
0734:0EA0 8E4F78              MOV SS, WORD PTR [BX+78]
0734:0EA3 8E975634            MOV CS, WORD PTR [BX+3456]
0734:0EA7 8E00                MOV ES, WORD PTR [BX+SI]
0734:0EA9 8E5869              MOV DS, WORD PTR [BX+SI+69]
0734:0EAC D127                SHL WORD PTR [BX], 1
0734:0EAE D26778              SHL BYTE PTR [BX+78], CL
0734:0EB1 D1A75634            SHL WORD PTR [BX+3456], 1
0734:0EB5 D3E7                SHL DI, CL
0734:0EB7 D06069              SHL BYTE PTR [BX+SI+69], 1
0734:0EBA D3A07856            SHL WORD PTR [BX+SI+5678], CL
0734:0EBE D121                SHL WORD PTR [BX+DI], 1
0734:0EC0 D36149              SHL WORD PTR [BX+DI+49], CL
0734:0EC3 D1E6                SHL SI, 1
0734:0EC5 D224                SHL BYTE PTR [SI], CL
0734:0EC7 D16478              SHL WORD PTR [SI+78], 1
0734:0ECA D2A45634            SHL BYTE PTR [SI+3456], CL
0734:0ECE D125                SHL WORD PTR [DI], 1
0734:0ED0 D26578              SHL BYTE PTR [DI+78], CL
0734:0ED3 D1A55634            SHL WORD PTR [DI+3456], 1
0734:0ED7 D36600              SHL WORD PTR [BP+00], CL
0734:0EDA D16678              SHL WORD PTR [BP+78], 1
0734:0EDD D2E6                SHL DH, CL
0734:0EDF D022                SHL BYTE PTR [BP+SI], 1
0734:0EE1 D36259              SHL WORD PTR [BP+SI+59], CL
0734:0EE4 D1A27856            SHL WORD PTR [BP+SI+5678], 1
0734:0EE8 D223                SHL BYTE PTR [BP+DI], CL
0734:0EEA D16319              SHL WORD PTR [BP+DI+19], 1
0734:0EED D3A37856            SHL WORD PTR [BP+DI+5678], CL
0734:0EF1 D12F                SHR WORD PTR [BX], 1
0734:0EF3 D26F78              SHR BYTE PTR [BX+78], CL
0734:0EF6 D1AF5634            SHR WORD PTR [BX+3456], 1
0734:0EFA D328                SHR WORD PTR [BX+SI], CL
0734:0EFC D06869              SHR BYTE PTR [BX+SI+69], 1
0734:0EFF D3A87856            SHR WORD PTR [BX+SI+5678], CL
0734:0F03 D129                SHR WORD PTR [BX+DI], 1
0734:0F05 D36949              SHR WORD PTR [BX+DI+49], CL
0734:0F08 D1A97856            SHR WORD PTR [BX+DI+5678], 1
0734:0F0C D22C                SHR BYTE PTR [SI], CL
0734:0F0E D16C78              SHR WORD PTR [SI+78], 1
0734:0F11 D2AC5634            SHR BYTE PTR [SI+3456], CL
0734:0F15 D12D                SHR WORD PTR [DI], 1
0734:0F17 D2E8                SHR AL, CL
0734:0F19 D1AD5634            SHR WORD PTR [DI+3456], 1
0734:0F1D D36E00              SHR WORD PTR [BP+00], CL
0734:0F20 D16E78              SHR WORD PTR [BP+78], 1
0734:0F23 D3E9                SHR CX, CL
0734:0F25 D02A                SHR BYTE PTR [BP+SI], 1
0734:0F27 D36A59              SHR WORD PTR [BP+SI+59], CL
0734:0F2A D1AA7856            SHR WORD PTR [BP+SI+5678], 1
0734:0F2E D22B                SHR BYTE PTR [BP+DI], CL
0734:0F30 D1ED                SHR BP, 1
0734:0F32 D3AB7856            SHR WORD PTR [BP+DI+5678], CL
0734:0F36 D107                ROL WORD PTR [BX], 1
0734:0F38 D24778              ROL BYTE PTR [BX+78], CL
0734:0F3B D1875634            ROL WORD PTR [BX+3456], 1
0734:0F3F D3C7                ROL DI, CL
0734:0F41 D04069              ROL BYTE PTR [BX+SI+69], 1
0734:0F44 D3807856            ROL WORD PTR [BX+SI+5678], CL
0734:0F48 D101                ROL WORD PTR [BX+DI], 1
0734:0F4A D34149              ROL WORD PTR [BX+DI+49], CL
0734:0F4D D1C6                ROL SI, 1
0734:0F4F D204                ROL BYTE PTR [SI], CL
0734:0F51 D14478              ROL WORD PTR [SI+78], 1
0734:0F54 D2845634            ROL BYTE PTR [SI+3456], CL
0734:0F58 D105                ROL WORD PTR [DI], 1
0734:0F5A D24578              ROL BYTE PTR [DI+78], CL
0734:0F5D D1855634            ROL WORD PTR [DI+3456], 1
0734:0F61 D34600              ROL WORD PTR [BP+00], CL
0734:0F64 D14678              ROL WORD PTR [BP+78], 1
0734:0F67 D2C6                ROL DH, CL
0734:0F69 D002                ROL BYTE PTR [BP+SI], 1
0734:0F6B D34259              ROL WORD PTR [BP+SI+59], CL
0734:0F6E D1827856            ROL WORD PTR [BP+SI+5678], 1
0734:0F72 D203                ROL BYTE PTR [BP+DI], CL
0734:0F74 D14319              ROL WORD PTR [BP+DI+19], 1
0734:0F77 D3837856            ROL WORD PTR [BP+DI+5678], CL
0734:0F7B D10F                ROR WORD PTR [BX], 1
0734:0F7D D24F78              ROR BYTE PTR [BX+78], CL
0734:0F80 D18F5634            ROR WORD PTR [BX+3456], 1
0734:0F84 D3CF                ROR DI, CL
0734:0F86 D04869              ROR BYTE PTR [BX+SI+69], 1
0734:0F89 D3887856            ROR WORD PTR [BX+SI+5678], CL
0734:0F8D D109                ROR WORD PTR [BX+DI], 1
0734:0F8F D34949              ROR WORD PTR [BX+DI+49], CL
0734:0F92 D1CE                ROR SI, 1
0734:0F94 D20C                ROR BYTE PTR [SI], CL
0734:0F96 D14C78              ROR WORD PTR [SI+78], 1
0734:0F99 D28C5634            ROR BYTE PTR [SI+3456], CL
0734:0F9D D10D                ROR WORD PTR [DI], 1
0734:0F9F D24D78              ROR BYTE PTR [DI+78], CL
0734:0FA2 D18D5634            ROR WORD PTR [DI+3456], 1
0734:0FA6 D34E00              ROR WORD PTR [BP+00], CL
0734:0FA9 D14E78              ROR WORD PTR [BP+78], 1
0734:0FAC D2CE                ROR DH, CL
0734:0FAE D00A                ROR BYTE PTR [BP+SI], 1
0734:0FB0 D34A59              ROR WORD PTR [BP+SI+59], CL
0734:0FB3 D18A7856            ROR WORD PTR [BP+SI+5678], 1
0734:0FB7 D20B                ROR BYTE PTR [BP+DI], CL
0734:0FB9 D14B19              ROR WORD PTR [BP+DI+19], 1
0734:0FBC D38B7856            ROR WORD PTR [BP+DI+5678], CL
0734:0FC0 D11F                RCR WORD PTR [BX], 1
0734:0FC2 D25F78              RCR BYTE PTR [BX+78], CL
0734:0FC5 D19F5634            RCR WORD PTR [BX+3456], 1
0734:0FC9 D3DF                RCR DI, CL
0734:0FCB D05869              RCR BYTE PTR [BX+SI+69], 1
0734:0FCE D3987856            RCR WORD PTR [BX+SI+5678], CL
0734:0FD2 D119                RCR WORD PTR [BX+DI], 1
0734:0FD4 D35949              RCR WORD PTR [BX+DI+49], CL
0734:0FD7 D1DE                RCR SI, 1
0734:0FD9 D21C                RCR BYTE PTR [SI], CL
0734:0FDB D15C78              RCR WORD PTR [SI+78], 1
0734:0FDE D29C5634            RCR BYTE PTR [SI+3456], CL
0734:0FE2 D11D                RCR WORD PTR [DI], 1
0734:0FE4 D25D78              RCR BYTE PTR [DI+78], CL
0734:0FE7 D19D5634            RCR WORD PTR [DI+3456], 1
0734:0FEB D35E00              RCR WORD PTR [BP+00], CL
0734:0FEE D15E78              RCR WORD PTR [BP+78], 1
0734:0FF1 D2DE                RCR DH, CL
0734:0FF3 D01A                RCR BYTE PTR [BP+SI], 1
0734:0FF5 D35A59              RCR WORD PTR [BP+SI+59], CL
0734:0FF8 D19A7856            RCR WORD PTR [BP+SI+5678], 1
0734:0FFC D21B                RCR BYTE PTR [BP+DI], CL
0734:0FFE D15B19              RCR WORD PTR [BP+DI+19], 1
0734:1001 D39B7856            RCR WORD PTR [BP+DI+5678], CL
0734:1005 D117                RCL WORD PTR [BX], 1
0734:1007 D25778              RCL BYTE PTR [BX+78], CL
0734:100A D1975634            RCL WORD PTR [BX+3456], 1
0734:100E D3D7                RCL DI, CL
0734:1010 D05069              RCL BYTE PTR [BX+SI+69], 1
0734:1013 D3907856            RCL WORD PTR [BX+SI+5678], CL
0734:1017 D111                RCL WORD PTR [BX+DI], 1
0734:1019 D35149              RCL WORD PTR [BX+DI+49], CL
0734:101C D1D6                RCL SI, 1
0734:101E D214                RCL BYTE PTR [SI], CL
0734:1020 D15478              RCL WORD PTR [SI+78], 1
0734:1023 D2945634            RCL BYTE PTR [SI+3456], CL
0734:1027 D115                RCL WORD PTR [DI], 1
0734:1029 D25578              RCL BYTE PTR [DI+78], CL
0734:102C D1955634            RCL WORD PTR [DI+3456], 1
0734:1030 D35600              RCL WORD PTR [BP+00], CL
0734:1033 D15678              RCL WORD PTR [BP+78], 1
0734:1036 D2D6                RCL DH, CL
0734:1038 D012                RCL BYTE PTR [BP+SI], 1
0734:103A D35259              RCL WORD PTR [BP+SI+59], CL
0734:103D D1927856            RCL WORD PTR [BP+SI+5678], 1
0734:1041 D213                RCL BYTE PTR [BP+DI], CL
0734:1043 D15319              RCL WORD PTR [BP+DI+19], 1
0734:1046 D3937856            RCL WORD PTR [BP+DI+5678], CL
0734:104A F7D5                NOT BP
0734:104C F75658              NOT WORD PTR [BP+58]
0734:104F F7965634            NOT WORD PTR [BP+3456]
0734:1053 F7D1                NOT CX
0734:1055 F75239              NOT WORD PTR [BP+SI+39]
0734:1058 F7927856            NOT WORD PTR [BP+SI+5678]
0734:105C F7D2                NOT DX
0734:105E F75349              NOT WORD PTR [BP+DI+49]
0734:1061 F7D6                NOT SI
0734:1063 F65578              NOT BYTE PTR [DI+78]
0734:1066 F6955634            NOT BYTE PTR [DI+3456]
0734:106A F6D6                NOT DH
0734:106C F65678              NOT BYTE PTR [BP+78]
0734:106F F6965634            NOT BYTE PTR [BP+3456]
0734:1073 F6D4                NOT AH
0734:1075 F6D3                NOT BL
0734:1077 F6955634            NOT BYTE PTR [DI+3456]
0734:107B 230F                AND CX, [BX]
0734:107D 235778              AND DX, [BX+78]
0734:1080 239F5634            AND BX, [BX+3456]
0734:1084 2330                AND SI, [BX+SI]
0734:1086 237879              AND DI, [BX+SI+79]
0734:1089 23A87856            AND BP, [BX+SI+5678]
0734:108D 2331                AND SI, [BX+DI]
0734:108F 237929              AND DI, [BX+DI+29]
0734:1092 23A97856            AND BP, [BX+DI+5678]
0734:1096 2324                AND SP, [SI]
0734:1098 235428              AND DX, [SI+28]
0734:109B 239C5634            AND BX, [SI+3456]
0734:109F 2305                AND AX, [DI]
0734:10A1 235558              AND DX, [DI+58]
0734:10A4 239D5634            AND BX, [DI+3456]
0734:10A8 234E00              AND CX, [BP+00]
0734:10AB 235658              AND DX, [BP+58]
0734:10AE 239E5634            AND BX, [BP+3456]
0734:10B2 2332                AND SI, [BP+SI]
0734:10B4 237A39              AND DI, [BP+SI+39]
0734:10B7 23AA7856            AND BP, [BP+SI+5678]
0734:10BB 2333                AND SI, [BP+DI]
0734:10BD 237B49              AND DI, [BP+DI+49]
0734:10C0 23AB7856            AND BP, [BP+DI+5678]
0734:10C4 210F                AND [BX], CX
0734:10C6 215778              AND [BX+78], DX
0734:10C9 219F5634            AND [BX+3456], BX
0734:10CD 2100                AND [BX+SI], AX
0734:10CF 216069              AND [BX+SI+69], SP
0734:10D2 21B87856            AND [BX+SI+5678], DI
0734:10D6 2129                AND [BX+DI], BP
0734:10D8 217149              AND [BX+DI+49], SI
0734:10DB 21B97856            AND [BX+DI+5678], DI
0734:10DF 2104                AND [SI], AX
0734:10E1 214C78              AND [SI+78], CX
0734:10E4 21945634            AND [SI+3456], DX
0734:10E8 212D                AND [DI], BP
0734:10EA 216578              AND [DI+78], SP
0734:10ED 21B55634            AND [DI+3456], SI
0734:10F1 217E00              AND [BP+00], DI
0734:10F4 214E78              AND [BP+78], CX
0734:10F7 21965634            AND [BP+3456], DX
0734:10FB 2132                AND [BP+SI], SI
0734:10FD 217A59              AND [BP+SI+59], DI
0734:1100 21827856            AND [BP+SI+5678], AX
0734:1104 213B                AND [BP+DI], DI
0734:1106 215B19              AND [BP+DI+19], BX
0734:1109 21937856            AND [BP+DI+5678], DX
0734:110D 2205                AND AL, [DI]
0734:110F 226578              AND AH, [DI+78]
0734:1112 22BD5634            AND BH, [DI+3456]
0734:1116 224E00              AND CL, [BP+00]
0734:1119 225678              AND DL, [BP+78]
0734:111C 229E5634            AND BL, [BP+3456]
0734:1120 222A                AND CH, [BP+SI]
0734:1122 207578              AND [DI+78], DH
0734:1125 20955634            AND [DI+3456], DL
0734:1129 206E00              AND [BP+00], CH
0734:112C 204E56              AND [BP+56], CL
0734:112F 20BE5634            AND [BP+3456], BH
0734:1133 201A                AND [BP+SI], BL
0734:1135 206245              AND [BP+SI+45], AH
0734:1138 20827856            AND [BP+SI+5678], AL
0734:113C 80657815            AND BYTE PTR [DI+78], 15
0734:1140 80A5563416          AND BYTE PTR [DI+3456], 16
0734:1145 80660028            AND BYTE PTR [BP+00], 28
0734:1149 80665688            AND BYTE PTR [BP+56], 88
0734:114D 81A656343412        AND WORD PTR [BP+3456], 1234
0734:1153 81221534            AND WORD PTR [BP+SI], 3415
0734:1157 8162458547          AND WORD PTR [BP+SI+45], 4785
0734:115C 81A278563615        AND WORD PTR [BP+SI+5678], 1536
0734:1162 80E115              AND CL, 15
0734:1165 80E516              AND CH, 16
0734:1168 80E228              AND DL, 28
0734:116B 80E488              AND AH, 88
0734:116E 81E33412            AND BX, 1234
0734:1172 81E71534            AND DI, 3415
0734:1176 81E48547            AND SP, 4785
0734:117A 81E53615            AND BP, 1536
0734:117E 2415                AND AL, 15
0734:1180 251516              AND AX, 1615
0734:1183 850F                TEST [BX], CX
0734:1185 855778              TEST [BX+78], DX
0734:1188 859F5634            TEST [BX+3456], BX
0734:118C 8530                TEST [BX+SI], SI
0734:118E 857879              TEST [BX+SI+79], DI
0734:1191 85A87856            TEST [BX+SI+5678], BP
0734:1195 8531                TEST [BX+DI], SI
0734:1197 857929              TEST [BX+DI+29], DI
0734:119A 85A97856            TEST [BX+DI+5678], BP
0734:119E 8524                TEST [SI], SP
0734:11A0 855428              TEST [SI+28], DX
0734:11A3 859C5634            TEST [SI+3456], BX
0734:11A7 8505                TEST [DI], AX
0734:11A9 855558              TEST [DI+58], DX
0734:11AC 859D5634            TEST [DI+3456], BX
0734:11B0 854E00              TEST [BP+00], CX
0734:11B3 855658              TEST [BP+58], DX
0734:11B6 859E5634            TEST [BP+3456], BX
0734:11BA 8532                TEST [BP+SI], SI
0734:11BC 857A39              TEST [BP+SI+39], DI
0734:11BF 85AA7856            TEST [BP+SI+5678], BP
0734:11C3 8533                TEST [BP+DI], SI
0734:11C5 857B49              TEST [BP+DI+49], DI
0734:11C8 85AB7856            TEST [BP+DI+5678], BP
0734:11CC 850F                TEST [BX], CX
0734:11CE 855778              TEST [BX+78], DX
0734:11D1 859F5634            TEST [BX+3456], BX
0734:11D5 8500                TEST [BX+SI], AX
0734:11D7 856069              TEST [BX+SI+69], SP
0734:11DA 85B87856            TEST [BX+SI+5678], DI
0734:11DE 8529                TEST [BX+DI], BP
0734:11E0 857149              TEST [BX+DI+49], SI
0734:11E3 85B97856            TEST [BX+DI+5678], DI
0734:11E7 8504                TEST [SI], AX
0734:11E9 854C78              TEST [SI+78], CX
0734:11EC 85945634            TEST [SI+3456], DX
0734:11F0 852D                TEST [DI], BP
0734:11F2 856578              TEST [DI+78], SP
0734:11F5 85B55634            TEST [DI+3456], SI
0734:11F9 857E00              TEST [BP+00], DI
0734:11FC 854E78              TEST [BP+78], CX
0734:11FF 85965634            TEST [BP+3456], DX
0734:1203 8532                TEST [BP+SI], SI
0734:1205 857A59              TEST [BP+SI+59], DI
0734:1208 85827856            TEST [BP+SI+5678], AX
0734:120C 853B                TEST [BP+DI], DI
0734:120E 855B19              TEST [BP+DI+19], BX
0734:1211 85937856            TEST [BP+DI+5678], DX
0734:1215 8405                TEST [DI], AL
0734:1217 846578              TEST [DI+78], AH
0734:121A 84BD5634            TEST [DI+3456], BH
0734:121E 844E00              TEST [BP+00], CL
0734:1221 845678              TEST [BP+78], DL
0734:1224 849E5634            TEST [BP+3456], BL
0734:1228 842A                TEST [BP+SI], CH
0734:122A 847578              TEST [DI+78], DH
0734:122D 84955634            TEST [DI+3456], DL
0734:1231 846E00              TEST [BP+00], CH
0734:1234 844E56              TEST [BP+56], CL
0734:1237 84BE5634            TEST [BP+3456], BH
0734:123B 841A                TEST [BP+SI], BL
0734:123D 846245              TEST [BP+SI+45], AH
0734:1240 84827856            TEST [BP+SI+5678], AL
0734:1244 F6457815            TEST BYTE PTR [DI+78], 15
0734:1248 F685563416          TEST BYTE PTR [DI+3456], 16
0734:124D F6460028            TEST BYTE PTR [BP+00], 28
0734:1251 F6465688            TEST BYTE PTR [BP+56], 88
0734:1255 F78656343412        TEST WORD PTR [BP+3456], 1234
0734:125B F7021534            TEST WORD PTR [BP+SI], 3415
0734:125F F742458547          TEST WORD PTR [BP+SI+45], 4785
0734:1264 F78278563615        TEST WORD PTR [BP+SI+5678], 1536
0734:126A F6C115              TEST CL, 15
0734:126D F6C516              TEST CH, 16
0734:1270 F6C228              TEST DL, 28
0734:1273 F6C488              TEST AH, 88
0734:1276 F7C33412            TEST BX, 1234
0734:127A F7C71534            TEST DI, 3415
0734:127E F7C48547            TEST SP, 4785
0734:1282 F7C53615            TEST BP, 1536
0734:1286 A815                TEST AL, 15
0734:1288 A91516              TEST AX, 1615
0734:128B 0B0F                OR CX, [BX]
0734:128D 0B5778              OR DX, [BX+78]
0734:1290 0B9F5634            OR BX, [BX+3456]
0734:1294 0B30                OR SI, [BX+SI]
0734:1296 0B7879              OR DI, [BX+SI+79]
0734:1299 0BA87856            OR BP, [BX+SI+5678]
0734:129D 0B31                OR SI, [BX+DI]
0734:129F 0B7929              OR DI, [BX+DI+29]
0734:12A2 0BA97856            OR BP, [BX+DI+5678]
0734:12A6 0B24                OR SP, [SI]
0734:12A8 0B5428              OR DX, [SI+28]
0734:12AB 0B9C5634            OR BX, [SI+3456]
0734:12AF 0B05                OR AX, [DI]
0734:12B1 0B5558              OR DX, [DI+58]
0734:12B4 0B9D5634            OR BX, [DI+3456]
0734:12B8 0B4E00              OR CX, [BP+00]
0734:12BB 0B5658              OR DX, [BP+58]
0734:12BE 0B9E5634            OR BX, [BP+3456]
0734:12C2 0B32                OR SI, [BP+SI]
0734:12C4 0B7A39              OR DI, [BP+SI+39]
0734:12C7 0BAA7856            OR BP, [BP+SI+5678]
0734:12CB 0B33                OR SI, [BP+DI]
0734:12CD 0B7B49              OR DI, [BP+DI+49]
0734:12D0 0BAB7856            OR BP, [BP+DI+5678]
0734:12D4 090F                OR [BX], CX
0734:12D6 095778              OR [BX+78], DX
0734:12D9 099F5634            OR [BX+3456], BX
0734:12DD 0900                OR [BX+SI], AX
0734:12DF 096069              OR [BX+SI+69], SP
0734:12E2 09B87856            OR [BX+SI+5678], DI
0734:12E6 0929                OR [BX+DI], BP
0734:12E8 097149              OR [BX+DI+49], SI
0734:12EB 09B97856            OR [BX+DI+5678], DI
0734:12EF 0904                OR [SI], AX
0734:12F1 094C78              OR [SI+78], CX
0734:12F4 09945634            OR [SI+3456], DX
0734:12F8 092D                OR [DI], BP
0734:12FA 096578              OR [DI+78], SP
0734:12FD 09B55634            OR [DI+3456], SI
0734:1301 097E00              OR [BP+00], DI
0734:1304 094E78              OR [BP+78], CX
0734:1307 09965634            OR [BP+3456], DX
0734:130B 0932                OR [BP+SI], SI
0734:130D 097A59              OR [BP+SI+59], DI
0734:1310 09827856            OR [BP+SI+5678], AX
0734:1314 093B                OR [BP+DI], DI
0734:1316 095B19              OR [BP+DI+19], BX
0734:1319 09937856            OR [BP+DI+5678], DX
0734:131D 0A05                OR AL, [DI]
0734:131F 0A6578              OR AH, [DI+78]
0734:1322 0ABD5634            OR BH, [DI+3456]
0734:1326 0A4E00              OR CL, [BP+00]
0734:1329 0A5678              OR DL, [BP+78]
0734:132C 0A9E5634            OR BL, [BP+3456]
0734:1330 0A2A                OR CH, [BP+SI]
0734:1332 087578              OR [DI+78], DH
0734:1335 08955634            OR [DI+3456], DL
0734:1339 086E00              OR [BP+00], CH
0734:133C 084E56              OR [BP+56], CL
0734:133F 08BE5634            OR [BP+3456], BH
0734:1343 081A                OR [BP+SI], BL
0734:1345 086245              OR [BP+SI+45], AH
0734:1348 08827856            OR [BP+SI+5678], AL
0734:134C 804D7815            OR [DI+78], 15
0734:1350 808D563416          OR [DI+3456], 16
0734:1355 804E0028            OR [BP+00], 28
0734:1359 804E5688            OR [BP+56], 88
0734:135D 818E56343412        OR [BP+3456], 1234
0734:1363 810A1534            OR [BP+SI], 3415
0734:1367 814A458547          OR [BP+SI+45], 4785
0734:136C 818A78563615        OR [BP+SI+5678], 1536
0734:1372 80C915              OR CL, 15
0734:1375 80CD16              OR CH, 16
0734:1378 80CA28              OR DL, 28
0734:137B 80CC88              OR AH, 88
0734:137E 81CB3412            OR BX, 1234
0734:1382 81CF1534            OR DI, 3415
0734:1386 81CC8547            OR SP, 4785
0734:138A 81CD3615            OR BP, 1536
0734:138E 0C15                OR AL, 15
0734:1390 0D1716              OR AX, 1617
0734:1393 330F                XOR CX, [BX]
0734:1395 335778              XOR DX, [BX+78]
0734:1398 339F5634            XOR BX, [BX+3456]
0734:139C 3330                XOR SI, [BX+SI]
0734:139E 337879              XOR DI, [BX+SI+79]
0734:13A1 33A87856            XOR BP, [BX+SI+5678]
0734:13A5 3331                XOR SI, [BX+DI]
0734:13A7 337929              XOR DI, [BX+DI+29]
0734:13AA 33A97856            XOR BP, [BX+DI+5678]
0734:13AE 3324                XOR SP, [SI]
0734:13B0 335428              XOR DX, [SI+28]
0734:13B3 339C5634            XOR BX, [SI+3456]
0734:13B7 3305                XOR AX, [DI]
0734:13B9 335558              XOR DX, [DI+58]
0734:13BC 339D5634            XOR BX, [DI+3456]
0734:13C0 334E00              XOR CX, [BP+00]
0734:13C3 335658              XOR DX, [BP+58]
0734:13C6 339E5634            XOR BX, [BP+3456]
0734:13CA 3332                XOR SI, [BP+SI]
0734:13CC 337A39              XOR DI, [BP+SI+39]
0734:13CF 33AA7856            XOR BP, [BP+SI+5678]
0734:13D3 3333                XOR SI, [BP+DI]
0734:13D5 337B49              XOR DI, [BP+DI+49]
0734:13D8 33AB7856            XOR BP, [BP+DI+5678]
0734:13DC 310F                XOR [BX], CX
0734:13DE 315778              XOR [BX+78], DX
0734:13E1 319F5634            XOR [BX+3456], BX
0734:13E5 3100                XOR [BX+SI], AX
0734:13E7 316069              XOR [BX+SI+69], SP
0734:13EA 31B87856            XOR [BX+SI+5678], DI
0734:13EE 3129                XOR [BX+DI], BP
0734:13F0 317149              XOR [BX+DI+49], SI
0734:13F3 31B97856            XOR [BX+DI+5678], DI
0734:13F7 3104                XOR [SI], AX
0734:13F9 314C78              XOR [SI+78], CX
0734:13FC 31945634            XOR [SI+3456], DX
0734:1400 312D                XOR [DI], BP
0734:1402 316578              XOR [DI+78], SP
0734:1405 31B55634            XOR [DI+3456], SI
0734:1409 317E00              XOR [BP+00], DI
0734:140C 314E78              XOR [BP+78], CX
0734:140F 31965634            XOR [BP+3456], DX
0734:1413 3132                XOR [BP+SI], SI
0734:1415 317A59              XOR [BP+SI+59], DI
0734:1418 31827856            XOR [BP+SI+5678], AX
0734:141C 313B                XOR [BP+DI], DI
0734:141E 315B19              XOR [BP+DI+19], BX
0734:1421 31937856            XOR [BP+DI+5678], DX
0734:1425 3205                XOR AL, [DI]
0734:1427 326578              XOR AH, [DI+78]
0734:142A 32BD5634            XOR BH, [DI+3456]
0734:142E 324E00              XOR CL, [BP+00]
0734:1431 325678              XOR DL, [BP+78]
0734:1434 329E5634            XOR BL, [BP+3456]
0734:1438 322A                XOR CH, [BP+SI]
0734:143A 307578              XOR [DI+78], DH
0734:143D 30955634            XOR [DI+3456], DL
0734:1441 306E00              XOR [BP+00], CH
0734:1444 304E56              XOR [BP+56], CL
0734:1447 30BE5634            XOR [BP+3456], BH
0734:144B 301A                XOR [BP+SI], BL
0734:144D 306245              XOR [BP+SI+45], AH
0734:1450 30827856            XOR [BP+SI+5678], AL
0734:1454 80757815            XOR [DI+78], 15
0734:1458 80B5563416          XOR [DI+3456], 16
0734:145D 80760028            XOR [BP+00], 28
0734:1461 80765688            XOR [BP+56], 88
0734:1465 81B656343412        XOR [BP+3456], 1234
0734:146B 81321534            XOR [BP+SI], 3415
0734:146F 8172458547          XOR [BP+SI+45], 4785
0734:1474 81B278563615        XOR [BP+SI+5678], 1536
0734:147A 80F115              XOR CL, 15
0734:147D 80F516              XOR CH, 16
0734:1480 80F228              XOR DL, 28
0734:1483 80F488              XOR AH, 88
0734:1486 81F33412            XOR BX, 1234
0734:148A 81F71534            XOR DI, 3415
0734:148E 81F48547            XOR SP, 4785
0734:1492 81F53615            XOR BP, 1536
0734:1496 3418                XOR AL, 18
0734:1498 357756              XOR AX, 5677
0734:149B AC                  LODSB
0734:149C AD                  LODSW
0734:149D A4                  MOVSB
0734:149E A5                  MOVSW
0734:149F A6                  CMPSB
0734:14A0 A7                  CMPSW
0734:14A1 AE                  SCASB
0734:14A2 AF                  SCASW
0734:14A3 AA                  STOSB
0734:14A4 AB                  STOSW
0734:14A5 F3A6                REPE                    CMPSW
0734:14A7 F2A6                REPNE                    CMPSB
0734:14A9 F8                  CLC
0734:14AA F5                  CMC
0734:14AB F9                  STC
0734:14AC FC                  CLD
0734:14AD FD                  STD
0734:14AE FA                  CLI
0734:14AF FB                  STI
0734:14B0 F4                  HLT
0734:14B1 9B                  WAIT (unused)
0734:14B2 F0                  LOCK (unused)
0734:14B3 D9D0                FNOP
0734:14B5 D904                FLD FLOAT PTR [SI]
0734:14B7 DD00                FLD DWORD PTR [BX+SI]
0734:14B9 DF05                FILD WORD PTR [DI]
0734:14BB DF6712              FBLD TBYTE PTR [BX+12]
0734:14BE D9CB                FXCH ST(3)
0734:14C0 D9E4                FTST
0734:14C2 DF1E6745            FISTP WORD PTR [4567]
0734:14C6 D9FA                FSQRT
0734:14C8 D9F3                FPATAN
0734:14CA 9BD92F              FSTCW WORD PTR [BX]
0734:14CD FF37                PUSH WORD PTR [BX]
0734:14CF FF7778              PUSH WORD PTR [BX+78]
0734:14D2 FFB75634            PUSH WORD PTR [BX+3456]
0734:14D6 FF30                PUSH WORD PTR [BX+SI]
0734:14D8 FF7079              PUSH WORD PTR [BX+SI+79]
0734:14DB FFB07856            PUSH WORD PTR [BX+SI+5678]
0734:14DF FF31                PUSH WORD PTR [BX+DI]
0734:14E1 FF35                PUSH WORD PTR [DI]
0734:14E3 FF7558              PUSH WORD PTR [DI+58]
0734:14E6 FFB55634            PUSH WORD PTR [DI+3456]
0734:14EA FF7600              PUSH WORD PTR [BP+00]
0734:14ED FF7658              PUSH WORD PTR [BP+58]
0734:14F0 FFB65634            PUSH WORD PTR [BP+3456]
0734:14F4 FFB37856            PUSH WORD PTR [BP+DI+5678]
0734:14F8 1E                  PUSH DS
0734:14F9 0E                  PUSH CS
0734:14FA 16                  PUSH SS
0734:14FB 06                  PUSH ES
0734:14FC 8F07                POP [BX]
0734:14FE 8F4778              POP [BX+78]
0734:1501 8F875634            POP [BX+3456]
0734:1505 8F00                POP [BX+SI]
0734:1507 8F4079              POP [BX+SI+79]
0734:150A 8F807856            POP [BX+SI+5678]
0734:150E 8F01                POP [BX+DI]
0734:1510 8F05                POP [DI]
0734:1512 8F4558              POP [DI+58]
0734:1515 8F855634            POP [DI+3456]
0734:1519 8F4600              POP [BP+00]
0734:151C 8F4658              POP [BP+58]
0734:151F 8F865634            POP [BP+3456]
0734:1523 8F837856            POP [BP+DI+5678]
0734:1527 1F                  POP DS
0734:1528 0F                  DB 0F
0734:1529 17                  POP SS
0734:152A 07                  POP ES
0734:152B 50                  PUSH AL
0734:152C 51                  PUSH CX
0734:152D 52                  PUSH DL
0734:152E 53                  PUSH BX
0734:152F 54                  PUSH AH
0734:1530 55                  PUSH BP
0734:1531 56                  PUSH DH
0734:1532 57                  PUSH DI
0734:1533 58                  POP AX
0734:1534 59                  POP CX
0734:1535 5A                  POP DX
0734:1536 5B                  POP BX
0734:1537 5C                  POP SP
0734:1538 5D                  POP BP
0734:1539 5E                  POP SI
0734:153A 5F                  POP DI
0734:153B 86E0                XCHG AL, AL
0734:153D 86E1                XCHG AH, CL
0734:153F 86D8                XCHG AH, AL
0734:1541 86EA                XCHG BL, DL
0734:1543 86FE                XCHG CH, DH
0734:1545 87CB                XCHG DI, BX
0734:1547 87DB                XCHG CX, BX
0734:1549 87CA                XCHG BX, DX
0734:154B 87D9                XCHG CX, CX
0734:154D 87EC                XCHG BX, SP
0734:154F 87FE                XCHG BP, SI
0734:1551 87F9                XCHG DI, CX
0734:1553 87F7                XCHG DI, DI
0734:1555 87CD                XCHG SI, BP
0734:1557 87EA                XCHG CX, DX
0734:1559 8607                XCHG CH, BYTE PTR [BX]
0734:155B 864E00              XCHG AL, BYTE PTR [BP+00]
0734:155E 8600                XCHG CL, BYTE PTR [BX+SI]
0734:1560 86964523            XCHG AL, BYTE PTR [BP+2345]
0734:1564 86B45423            XCHG DL, BYTE PTR [SI+2354]
0734:1568 8737                XCHG SI, WORD PTR [BX]
0734:156A 870B                XCHG SI, WORD PTR [BP+DI]
0734:156C 874015              XCHG CX, WORD PTR [BX+SI+15]
0734:156F 87AB4523            XCHG AX, WORD PTR [BP+DI+2345]
0734:1573 87945423            XCHG BP, WORD PTR [SI+2354]
0734:1577 90                  XCHG AX, AX
0734:1578 91                  XCHG AX, CX
0734:1579 92                  XCHG AX, DX
0734:157A 93                  XCHG AX, BX
0734:157B 94                  XCHG AX, SP
0734:157C 95                  XCHG AX, BP
0734:157D 96                  XCHG AX, SI
0734:157E 97                  XCHG AX, DI
0734:157F E412                IN AL, 12
0734:1581 E515                IN AX, 15
0734:1583 EC                  IN AL, DX
0734:1584 ED                  IN AX, DX
0734:1585 E617                OUT 17, AL
0734:1587 E745                OUT 45, AX
0734:1589 EE                  OUT DX, AL
0734:158A EF                  OUT DX, AX
0734:158B D7                  XLAT
0734:158C 8D985423            LEA BX, [BX+SI+2354]
0734:1590 8D4A54              LEA CX, [BP+SI+54]
0734:1593 8D5600              LEA DX, [BP+00]
0734:1596 8D3E1200            LEA DI, [0012]
0734:159A C4985423            LES BX, [BX+SI+2354]
0734:159E C54A54              LDS CX, [BP+SI+54]
0734:15A1 C45600              LES DX, [BP+00]
0734:15A4 9F                  LAHF
0734:15A5 9E                  SAHF
0734:15A6 9C                  PUSHF
0734:15A7 9D                  POPF
0734:15A8 030F                ADD CX, [BX]
0734:15AA 035778              ADD DX, [BX+78]
0734:15AD 039F5634            ADD BX, [BX+3456]
0734:15B1 0330                ADD SI, [BX+SI]
0734:15B3 037879              ADD DI, [BX+SI+79]
0734:15B6 03A87856            ADD BP, [BX+SI+5678]
0734:15BA 0331                ADD SI, [BX+DI]
0734:15BC 037929              ADD DI, [BX+DI+29]
0734:15BF 03A97856            ADD BP, [BX+DI+5678]
0734:15C3 0324                ADD SP, [SI]
0734:15C5 035428              ADD DX, [SI+28]
0734:15C8 039C5634            ADD BX, [SI+3456]
0734:15CC 0305                ADD AX, [DI]
0734:15CE 035558              ADD DX, [DI+58]
0734:15D1 039D5634            ADD BX, [DI+3456]
0734:15D5 034E00              ADD CX, [BP+00]
0734:15D8 035658              ADD DX, [BP+58]
0734:15DB 039E5634            ADD BX, [BP+3456]
0734:15DF 0332                ADD SI, [BP+SI]
0734:15E1 037A39              ADD DI, [BP+SI+39]
0734:15E4 03AA7856            ADD BP, [BP+SI+5678]
0734:15E8 0333                ADD SI, [BP+DI]
0734:15EA 037B49              ADD DI, [BP+DI+49]
0734:15ED 03AB7856            ADD BP, [BP+DI+5678]
0734:15F1 010F                ADD [BX], CX
0734:15F3 015778              ADD [BX+78], DX
0734:15F6 019F5634            ADD [BX+3456], BX
0734:15FA 0100                ADD [BX+SI], AX
0734:15FC 016069              ADD [BX+SI+69], SP
0734:15FF 01B87856            ADD [BX+SI+5678], DI
0734:1603 0129                ADD [BX+DI], BP
0734:1605 017149              ADD [BX+DI+49], SI
0734:1608 01B97856            ADD [BX+DI+5678], DI
0734:160C 0104                ADD [SI], AX
0734:160E 014C78              ADD [SI+78], CX
0734:1611 01945634            ADD [SI+3456], DX
0734:1615 012D                ADD [DI], BP
0734:1617 016578              ADD [DI+78], SP
0734:161A 01B55634            ADD [DI+3456], SI
0734:161E 017E00              ADD [BP+00], DI
0734:1621 014E78              ADD [BP+78], CX
0734:1624 01965634            ADD [BP+3456], DX
0734:1628 0132                ADD [BP+SI], SI
0734:162A 017A59              ADD [BP+SI+59], DI
0734:162D 01827856            ADD [BP+SI+5678], AX
0734:1631 013B                ADD [BP+DI], DI
0734:1633 015B19              ADD [BP+DI+19], BX
0734:1636 01937856            ADD [BP+DI+5678], DX
0734:163A 0205                ADD AL, [DI]
0734:163C 026578              ADD AH, [DI+78]
0734:163F 02BD5634            ADD BH, [DI+3456]
0734:1643 024E00              ADD CL, [BP+00]
0734:1646 025678              ADD DL, [BP+78]
0734:1649 029E5634            ADD BL, [BP+3456]
0734:164D 022A                ADD CH, [BP+SI]
0734:164F 007578              ADD [DI+78], DH
0734:1652 00955634            ADD [DI+3456], DL
0734:1656 006E00              ADD [BP+00], CH
0734:1659 004E56              ADD [BP+56], CL
0734:165C 00BE5634            ADD [BP+3456], BH
0734:1660 001A                ADD [BP+SI], BL
0734:1662 006245              ADD [BP+SI+45], AH
0734:1665 00827856            ADD [BP+SI+5678], AL
0734:1669 80457815            ADD BYTE PTR [DI+78], 15
0734:166D 8085563416          ADD BYTE PTR [DI+3456], 16
0734:1672 80460028            ADD BYTE PTR [BP+00], 28
0734:1676 80465688            ADD BYTE PTR [BP+56], 88
0734:167A 818656343412        ADD WORD PTR [BP+3456], 1234
0734:1680 81021534            ADD WORD PTR [BP+SI], 3415
0734:1684 8142458547          ADD WORD PTR [BP+SI+45], 4785
0734:1689 818278563615        ADD WORD PTR [BP+SI+5678], 1536
0734:168F 8386563412          ADD WORD PTR [BP+3456], +12
0734:1694 830235              ADD WORD PTR [BP+SI], +35
0734:1697 83424545            ADD WORD PTR [BP+SI+45], +45
0734:169B 8382785616          ADD WORD PTR [BP+SI+5678], +16
0734:16A0 80C115              ADD CL, 15
0734:16A3 80C516              ADD CH, 16
0734:16A6 80C228              ADD DL, 28
0734:16A9 80C488              ADD AH, 88
0734:16AC 81C33412            ADD BX, 1234
0734:16B0 81C71534            ADD DI, 3415
0734:16B4 81C48547            ADD SP, 4785
0734:16B8 81C53615            ADD BP, 1536
0734:16BC 83C314              ADD BX, +14
0734:16BF 83C635              ADD SI, +35
0734:16C2 83C465              ADD SP, +65
0734:16C5 83C516              ADD BP, +16
0734:16C8 0417                ADD AL, 17
0734:16CA 051752              ADD AX, 5217
0734:16CD 130F                ADC CX, [BX]
0734:16CF 135778              ADC DX, [BX+78]
0734:16D2 139F5634            ADC BX, [BX+3456]
0734:16D6 1330                ADC SI, [BX+SI]
0734:16D8 137879              ADC DI, [BX+SI+79]
0734:16DB 13A87856            ADC BP, [BX+SI+5678]
0734:16DF 1331                ADC SI, [BX+DI]
0734:16E1 137929              ADC DI, [BX+DI+29]
0734:16E4 13A97856            ADC BP, [BX+DI+5678]
0734:16E8 1324                ADC SP, [SI]
0734:16EA 135428              ADC DX, [SI+28]
0734:16ED 139C5634            ADC BX, [SI+3456]
0734:16F1 1305                ADC AX, [DI]
0734:16F3 135558              ADC DX, [DI+58]
0734:16F6 139D5634            ADC BX, [DI+3456]
0734:16FA 134E00              ADC CX, [BP+00]
0734:16FD 135658              ADC DX, [BP+58]
0734:1700 139E5634            ADC BX, [BP+3456]
0734:1704 1332                ADC SI, [BP+SI]
0734:1706 137A39              ADC DI, [BP+SI+39]
0734:1709 13AA7856            ADC BP, [BP+SI+5678]
0734:170D 1333                ADC SI, [BP+DI]
0734:170F 137B49              ADC DI, [BP+DI+49]
0734:1712 13AB7856            ADC BP, [BP+DI+5678]
0734:1716 110F                ADC [BX], CX
0734:1718 115778              ADC [BX+78], DX
0734:171B 119F5634            ADC [BX+3456], BX
0734:171F 1100                ADC [BX+SI], AX
0734:1721 116069              ADC [BX+SI+69], SP
0734:1724 11B87856            ADC [BX+SI+5678], DI
0734:1728 1129                ADC [BX+DI], BP
0734:172A 117149              ADC [BX+DI+49], SI
0734:172D 11B97856            ADC [BX+DI+5678], DI
0734:1731 1104                ADC [SI], AX
0734:1733 114C78              ADC [SI+78], CX
0734:1736 11945634            ADC [SI+3456], DX
0734:173A 112D                ADC [DI], BP
0734:173C 116578              ADC [DI+78], SP
0734:173F 11B55634            ADC [DI+3456], SI
0734:1743 117E00              ADC [BP+00], DI
0734:1746 114E78              ADC [BP+78], CX
0734:1749 11965634            ADC [BP+3456], DX
0734:174D 1132                ADC [BP+SI], SI
0734:174F 117A59              ADC [BP+SI+59], DI
0734:1752 11827856            ADC [BP+SI+5678], AX
0734:1756 113B                ADC [BP+DI], DI
0734:1758 115B19              ADC [BP+DI+19], BX
0734:175B 11937856            ADC [BP+DI+5678], DX
0734:175F 1205                ADC AL, [DI]
0734:1761 126578              ADC AH, [DI+78]
0734:1764 12BD5634            ADC BH, [DI+3456]
0734:1768 124E00              ADC CL, [BP+00]
0734:176B 125678              ADC DL, [BP+78]
0734:176E 129E5634            ADC BL, [BP+3456]
0734:1772 122A                ADC CH, [BP+SI]
0734:1774 107578              ADC [DI+78], DH
0734:1777 10955634            ADC [DI+3456], DL
0734:177B 106E00              ADC [BP+00], CH
0734:177E 104E56              ADC [BP+56], CL
0734:1781 10BE5634            ADC [BP+3456], BH
0734:1785 101A                ADC [BP+SI], BL
0734:1787 106245              ADC [BP+SI+45], AH
0734:178A 10827856            ADC [BP+SI+5678], AL
0734:178E 80557815            ADC BYTE PTR [DI+78], 15
0734:1792 8095563416          ADC BYTE PTR [DI+3456], 16
0734:1797 80560028            ADC BYTE PTR [BP+00], 28
0734:179B 80565688            ADC BYTE PTR [BP+56], 88
0734:179F 819656343412        ADC WORD PTR [BP+3456], 1234
0734:17A5 81121534            ADC WORD PTR [BP+SI], 3415
0734:17A9 8152458547          ADC WORD PTR [BP+SI+45], 4785
0734:17AE 819278563615        ADC WORD PTR [BP+SI+5678], 1536
0734:17B4 8396563412          ADC WORD PTR [BP+3456], +12
0734:17B9 831235              ADC WORD PTR [BP+SI], +35
0734:17BC 83524545            ADC WORD PTR [BP+SI+45], +45
0734:17C0 8392785616          ADC WORD PTR [BP+SI+5678], +16
0734:17C5 80D115              ADC CL, 15
0734:17C8 80D516              ADC CH, 16
0734:17CB 80D228              ADC DL, 28
0734:17CE 80D488              ADC AH, 88
0734:17D1 81D33412            ADC BX, 1234
0734:17D5 81D71534            ADC DI, 3415
0734:17D9 81D48547            ADC SP, 4785
0734:17DD 81D53615            ADC BP, 1536
0734:17E1 83D314              ADC BX, +14
0734:17E4 83D635              ADC SI, +35
0734:17E7 83D465              ADC SP, +65
0734:17EA 83D516              ADC BP, +16
0734:17ED 0417                ADD AL, 17
0734:17EF 051752              ADD AX, 5217
0734:17F2 3B0F                CMP CX, [BX]
0734:17F4 3B5778              CMP DX, [BX+78]
0734:17F7 3B9F5634            CMP BX, [BX+3456]
0734:17FB 3B30                CMP SI, [BX+SI]
0734:17FD 3B7879              CMP DI, [BX+SI+79]
0734:1800 3BA87856            CMP BP, [BX+SI+5678]
0734:1804 3B31                CMP SI, [BX+DI]
0734:1806 3B7929              CMP DI, [BX+DI+29]
0734:1809 3BA97856            CMP BP, [BX+DI+5678]
0734:180D 3B24                CMP SP, [SI]
0734:180F 3B5428              CMP DX, [SI+28]
0734:1812 3B9C5634            CMP BX, [SI+3456]
0734:1816 3B05                CMP AX, [DI]
0734:1818 3B5558              CMP DX, [DI+58]
0734:181B 3B9D5634            CMP BX, [DI+3456]
0734:181F 3B4E00              CMP CX, [BP+00]
0734:1822 3B5658              CMP DX, [BP+58]
0734:1825 3B9E5634            CMP BX, [BP+3456]
0734:1829 3B32                CMP SI, [BP+SI]
0734:182B 3B7A39              CMP DI, [BP+SI+39]
0734:182E 3BAA7856            CMP BP, [BP+SI+5678]
0734:1832 3B33                CMP SI, [BP+DI]
0734:1834 3B7B49              CMP DI, [BP+DI+49]
0734:1837 3BAB7856            CMP BP, [BP+DI+5678]
0734:183B 390F                CMP [BX], CX
0734:183D 395778              CMP [BX+78], DX
0734:1840 399F5634            CMP [BX+3456], BX
0734:1844 3900                CMP [BX+SI], AX
0734:1846 396069              CMP [BX+SI+69], SP
0734:1849 39B87856            CMP [BX+SI+5678], DI
0734:184D 3929                CMP [BX+DI], BP
0734:184F 397149              CMP [BX+DI+49], SI
0734:1852 39B97856            CMP [BX+DI+5678], DI
0734:1856 3904                CMP [SI], AX
0734:1858 394C78              CMP [SI+78], CX
0734:185B 39945634            CMP [SI+3456], DX
0734:185F 392D                CMP [DI], BP
0734:1861 396578              CMP [DI+78], SP
0734:1864 39B55634            CMP [DI+3456], SI
0734:1868 397E00              CMP [BP+00], DI
0734:186B 394E78              CMP [BP+78], CX
0734:186E 39965634            CMP [BP+3456], DX
0734:1872 3932                CMP [BP+SI], SI
0734:1874 397A59              CMP [BP+SI+59], DI
0734:1877 39827856            CMP [BP+SI+5678], AX
0734:187B 393B                CMP [BP+DI], DI
0734:187D 395B19              CMP [BP+DI+19], BX
0734:1880 39937856            CMP [BP+DI+5678], DX
0734:1884 3A05                CMP AL, [DI]
0734:1886 3A6578              CMP AH, [DI+78]
0734:1889 3ABD5634            CMP BH, [DI+3456]
0734:188D 3A4E00              CMP CL, [BP+00]
0734:1890 3A5678              CMP DL, [BP+78]
0734:1893 3A9E5634            CMP BL, [BP+3456]
0734:1897 3A2A                CMP CH, [BP+SI]
0734:1899 387578              CMP [DI+78], DH
0734:189C 38955634            CMP [DI+3456], DL
0734:18A0 386E00              CMP [BP+00], CH
0734:18A3 384E56              CMP [BP+56], CL
0734:18A6 38BE5634            CMP [BP+3456], BH
0734:18AA 381A                CMP [BP+SI], BL
0734:18AC 386245              CMP [BP+SI+45], AH
0734:18AF 38827856            CMP [BP+SI+5678], AL
0734:18B3 807D7815            CMP BYTE PTR [DI+78], 15
0734:18B7 80BD563416          CMP BYTE PTR [DI+3456], 16
0734:18BC 807E0028            CMP BYTE PTR [BP+00], 28
0734:18C0 807E5688            CMP BYTE PTR [BP+56], 88
0734:18C4 81BE56343412        CMP WORD PTR [BP+3456], 1234
0734:18CA 813A1534            CMP WORD PTR [BP+SI], 3415
0734:18CE 817A458547          CMP WORD PTR [BP+SI+45], 4785
0734:18D3 81BA78563615        CMP WORD PTR [BP+SI+5678], 1536
0734:18D9 83BE563412          CMP WORD PTR [BP+3456], +12
0734:18DE 833A35              CMP WORD PTR [BP+SI], +35
0734:18E1 837A4545            CMP WORD PTR [BP+SI+45], +45
0734:18E5 83BA785616          CMP WORD PTR [BP+SI+5678], +16
0734:18EA 80F915              CMP CL, 15
0734:18ED 80FD16              CMP CH, 16
0734:18F0 80FA28              CMP DL, 28
0734:18F3 80FC88              CMP AH, 88
0734:18F6 81FB3412            CMP BX, 1234
0734:18FA 81FF1534            CMP DI, 3415
0734:18FE 81FC8547            CMP SP, 4785
0734:1902 81FD3615            CMP BP, 1536
0734:1906 83FB14              CMP BX, +14
0734:1909 83FE35              CMP SI, +35
0734:190C 83FC65              CMP SP, +65
0734:190F 83FD16              CMP BP, +16
0734:1912 0417                ADD AL, 17
0734:1914 051752              ADD AX, 5217
0734:1917 2B0F                SUB CX, [BX]
0734:1919 2B5778              SUB DX, [BX+78]
0734:191C 2B9F5634            SUB BX, [BX+3456]
0734:1920 2B30                SUB SI, [BX+SI]
0734:1922 2B7879              SUB DI, [BX+SI+79]
0734:1925 2BA87856            SUB BP, [BX+SI+5678]
0734:1929 2B31                SUB SI, [BX+DI]
0734:192B 2B7929              SUB DI, [BX+DI+29]
0734:192E 2BA97856            SUB BP, [BX+DI+5678]
0734:1932 2B24                SUB SP, [SI]
0734:1934 2B5428              SUB DX, [SI+28]
0734:1937 2B9C5634            SUB BX, [SI+3456]
0734:193B 2B05                SUB AX, [DI]
0734:193D 2B5558              SUB DX, [DI+58]
0734:1940 2B9D5634            SUB BX, [DI+3456]
0734:1944 2B4E00              SUB CX, [BP+00]
0734:1947 2B5658              SUB DX, [BP+58]
0734:194A 2B9E5634            SUB BX, [BP+3456]
0734:194E 2B32                SUB SI, [BP+SI]
0734:1950 2B7A39              SUB DI, [BP+SI+39]
0734:1953 2BAA7856            SUB BP, [BP+SI+5678]
0734:1957 2B33                SUB SI, [BP+DI]
0734:1959 2B7B49              SUB DI, [BP+DI+49]
0734:195C 2BAB7856            SUB BP, [BP+DI+5678]
0734:1960 290F                SUB [BX], CX
0734:1962 295778              SUB [BX+78], DX
0734:1965 299F5634            SUB [BX+3456], BX
0734:1969 2900                SUB [BX+SI], AX
0734:196B 296069              SUB [BX+SI+69], SP
0734:196E 29B87856            SUB [BX+SI+5678], DI
0734:1972 2929                SUB [BX+DI], BP
0734:1974 297149              SUB [BX+DI+49], SI
0734:1977 29B97856            SUB [BX+DI+5678], DI
0734:197B 2904                SUB [SI], AX
0734:197D 294C78              SUB [SI+78], CX
0734:1980 29945634            SUB [SI+3456], DX
0734:1984 292D                SUB [DI], BP
0734:1986 296578              SUB [DI+78], SP
0734:1989 29B55634            SUB [DI+3456], SI
0734:198D 297E00              SUB [BP+00], DI
0734:1990 294E78              SUB [BP+78], CX
0734:1993 29965634            SUB [BP+3456], DX
0734:1997 2932                SUB [BP+SI], SI
0734:1999 297A59              SUB [BP+SI+59], DI
0734:199C 29827856            SUB [BP+SI+5678], AX
0734:19A0 293B                SUB [BP+DI], DI
0734:19A2 295B19              SUB [BP+DI+19], BX
0734:19A5 29937856            SUB [BP+DI+5678], DX
0734:19A9 2A05                SUB AL, [DI]
0734:19AB 2A6578              SUB AH, [DI+78]
0734:19AE 2ABD5634            SUB BH, [DI+3456]
0734:19B2 2A4E00              SUB CL, [BP+00]
0734:19B5 2A5678              SUB DL, [BP+78]
0734:19B8 2A9E5634            SUB BL, [BP+3456]
0734:19BC 2A2A                SUB CH, [BP+SI]
0734:19BE 287578              SUB [DI+78], DH
0734:19C1 28955634            SUB [DI+3456], DL
0734:19C5 286E00              SUB [BP+00], CH
0734:19C8 284E56              SUB [BP+56], CL
0734:19CB 28BE5634            SUB [BP+3456], BH
0734:19CF 281A                SUB [BP+SI], BL
0734:19D1 286245              SUB [BP+SI+45], AH
0734:19D4 28827856            SUB [BP+SI+5678], AL
0734:19D8 806D7815            SUB BYTE PTR [DI+78], 15
0734:19DC 80AD563416          SUB BYTE PTR [DI+3456], 16
0734:19E1 806E0028            SUB BYTE PTR [BP+00], 28
0734:19E5 806E5688            SUB BYTE PTR [BP+56], 88
0734:19E9 81AE56343412        SUB WORD PTR [BP+3456], 1234
0734:19EF 812A1534            SUB WORD PTR [BP+SI], 3415
0734:19F3 816A458547          SUB WORD PTR [BP+SI+45], 4785
0734:19F8 81AA78563615        SUB WORD PTR [BP+SI+5678], 1536
0734:19FE 83AE563412          SUB WORD PTR [BP+3456], +12
0734:1A03 832A35              SUB WORD PTR [BP+SI], +35
0734:1A06 836A4545            SUB WORD PTR [BP+SI+45], +45
0734:1A0A 83AA785616          SUB WORD PTR [BP+SI+5678], +16
0734:1A0F 80E915              SUB CL, 15
0734:1A12 80ED16              SUB CH, 16
0734:1A15 80EA28              SUB DL, 28
0734:1A18 80EC88              SUB AH, 88
0734:1A1B 81EB3412            SUB BX, 1234
0734:1A1F 81EF1534            SUB DI, 3415
0734:1A23 81EC8547            SUB SP, 4785
0734:1A27 81ED3615            SUB BP, 1536
0734:1A2B 83EB14              SUB BX, +14
0734:1A2E 83EE35              SUB SI, +35
0734:1A31 83EC65              SUB SP, +65
0734:1A34 83ED16              SUB BP, +16
0734:1A37 0417                ADD AL, 17
0734:1A39 051752              ADD AX, 5217
0734:1A3C 1B0F                SSB CX, [BX]
0734:1A3E 1B5778              SSB DX, [BX+78]
0734:1A41 1B9F5634            SSB BX, [BX+3456]
0734:1A45 1B30                SSB SI, [BX+SI]
0734:1A47 1B7879              SSB DI, [BX+SI+79]
0734:1A4A 1BA87856            SSB BP, [BX+SI+5678]
0734:1A4E 1B31                SSB SI, [BX+DI]
0734:1A50 1B7929              SSB DI, [BX+DI+29]
0734:1A53 1BA97856            SSB BP, [BX+DI+5678]
0734:1A57 1B24                SSB SP, [SI]
0734:1A59 1B5428              SSB DX, [SI+28]
0734:1A5C 1B9C5634            SSB BX, [SI+3456]
0734:1A60 1B05                SSB AX, [DI]
0734:1A62 1B5558              SSB DX, [DI+58]
0734:1A65 1B9D5634            SSB BX, [DI+3456]
0734:1A69 1B4E00              SSB CX, [BP+00]
0734:1A6C 1B5658              SSB DX, [BP+58]
0734:1A6F 1B9E5634            SSB BX, [BP+3456]
0734:1A73 1B32                SSB SI, [BP+SI]
0734:1A75 1B7A39              SSB DI, [BP+SI+39]
0734:1A78 1BAA7856            SSB BP, [BP+SI+5678]
0734:1A7C 1B33                SSB SI, [BP+DI]
0734:1A7E 1B7B49              SSB DI, [BP+DI+49]
0734:1A81 1BAB7856            SSB BP, [BP+DI+5678]
0734:1A85 190F                SSB [BX], CX
0734:1A87 195778              SSB [BX+78], DX
0734:1A8A 199F5634            SSB [BX+3456], BX
0734:1A8E 1900                SSB [BX+SI], AX
0734:1A90 196069              SSB [BX+SI+69], SP
0734:1A93 19B87856            SSB [BX+SI+5678], DI
0734:1A97 1929                SSB [BX+DI], BP
0734:1A99 197149              SSB [BX+DI+49], SI
0734:1A9C 19B97856            SSB [BX+DI+5678], DI
0734:1AA0 1904                SSB [SI], AX
0734:1AA2 194C78              SSB [SI+78], CX
0734:1AA5 19945634            SSB [SI+3456], DX
0734:1AA9 192D                SSB [DI], BP
0734:1AAB 196578              SSB [DI+78], SP
0734:1AAE 19B55634            SSB [DI+3456], SI
0734:1AB2 197E00              SSB [BP+00], DI
0734:1AB5 194E78              SSB [BP+78], CX
0734:1AB8 19965634            SSB [BP+3456], DX
0734:1ABC 1932                SSB [BP+SI], SI
0734:1ABE 197A59              SSB [BP+SI+59], DI
0734:1AC1 19827856            SSB [BP+SI+5678], AX
0734:1AC5 193B                SSB [BP+DI], DI
0734:1AC7 195B19              SSB [BP+DI+19], BX
0734:1ACA 19937856            SSB [BP+DI+5678], DX
0734:1ACE 1A05                SSB AL, [DI]
0734:1AD0 1A6578              SSB AH, [DI+78]
0734:1AD3 1ABD5634            SSB BH, [DI+3456]
0734:1AD7 1A4E00              SSB CL, [BP+00]
0734:1ADA 1A5678              SSB DL, [BP+78]
0734:1ADD 1A9E5634            SSB BL, [BP+3456]
0734:1AE1 1A2A                SSB CH, [BP+SI]
0734:1AE3 187578              SSB [DI+78], DH
0734:1AE6 18955634            SSB [DI+3456], DL
0734:1AEA 186E00              SSB [BP+00], CH
0734:1AED 184E56              SSB [BP+56], CL
0734:1AF0 18BE5634            SSB [BP+3456], BH
0734:1AF4 181A                SSB [BP+SI], BL
0734:1AF6 186245              SSB [BP+SI+45], AH
0734:1AF9 18827856            SSB [BP+SI+5678], AL
0734:1AFD 805D7815            SSB BYTE PTR [DI+78], 15
0734:1B01 809D563416          SSB BYTE PTR [DI+3456], 16
0734:1B06 805E0028            SSB BYTE PTR [BP+00], 28
0734:1B0A 805E5688            SSB BYTE PTR [BP+56], 88
0734:1B0E 819E56343412        SSB WORD PTR [BP+3456], 1234
0734:1B14 811A1534            SSB WORD PTR [BP+SI], 3415
0734:1B18 815A458547          SSB WORD PTR [BP+SI+45], 4785
0734:1B1D 819A78563615        SSB WORD PTR [BP+SI+5678], 1536
0734:1B23 839E563412          SSB WORD PTR [BP+3456], +12
0734:1B28 831A35              SSB WORD PTR [BP+SI], +35
0734:1B2B 835A4545            SSB WORD PTR [BP+SI+45], +45
0734:1B2F 839A785616          SSB WORD PTR [BP+SI+5678], +16
0734:1B34 80D915              SSB CL, 15
0734:1B37 80DD16              SSB CH, 16
0734:1B3A 80DA28              SSB DL, 28
0734:1B3D 80DC88              SSB AH, 88
0734:1B40 81DB3412            SSB BX, 1234
0734:1B44 81DF1534            SSB DI, 3415
0734:1B48 81DC8547            SSB SP, 4785
0734:1B4C 81DD3615            SSB BP, 1536
0734:1B50 83DB14              SSB BX, +14
0734:1B53 83DE35              SSB SI, +35
0734:1B56 83DC65              SSB SP, +65
0734:1B59 83DD16              SSB BP, +16
0734:1B5C 0417                ADD AL, 17
0734:1B5E 051752              ADD AX, 5217
0734:1B61 F727                MUL WORD PTR [BX]
0734:1B63 F76778              MUL WORD PTR [BX+78]
0734:1B66 F7A75634            MUL WORD PTR [BX+3456]
0734:1B6A F720                MUL WORD PTR [BX+SI]
0734:1B6C F76079              MUL WORD PTR [BX+SI+79]
0734:1B6F F7A07856            MUL WORD PTR [BX+SI+5678]
0734:1B73 F721                MUL WORD PTR [BX+DI]
0734:1B75 F76129              MUL WORD PTR [BX+DI+29]
0734:1B78 F7A17856            MUL WORD PTR [BX+DI+5678]
0734:1B7C F724                MUL WORD PTR [SI]
0734:1B7E F76428              MUL WORD PTR [SI+28]
0734:1B81 F7A45634            MUL WORD PTR [SI+3456]
0734:1B85 F725                MUL WORD PTR [DI]
0734:1B87 F76558              MUL WORD PTR [DI+58]
0734:1B8A F7A55634            MUL WORD PTR [DI+3456]
0734:1B8E F7E5                MUL BP
0734:1B90 F76658              MUL WORD PTR [BP+58]
0734:1B93 F7A65634            MUL WORD PTR [BP+3456]
0734:1B97 F7E1                MUL CX
0734:1B99 F76239              MUL WORD PTR [BP+SI+39]
0734:1B9C F7A27856            MUL WORD PTR [BP+SI+5678]
0734:1BA0 F7E2                MUL DX
0734:1BA2 F76349              MUL WORD PTR [BP+DI+49]
0734:1BA5 F7E6                MUL SI
0734:1BA7 F66578              MUL BYTE PTR [DI+78]
0734:1BAA F6A55634            MUL BYTE PTR [DI+3456]
0734:1BAE F6E6                MUL DH
0734:1BB0 F66678              MUL BYTE PTR [BP+78]
0734:1BB3 F6A65634            MUL BYTE PTR [BP+3456]
0734:1BB7 F6E4                MUL AH
0734:1BB9 F6E3                MUL BL
0734:1BBB F6A55634            MUL BYTE PTR [DI+3456]
0734:1BBF F72F                IMUL WORD PTR [BX]
0734:1BC1 F76F78              IMUL WORD PTR [BX+78]
0734:1BC4 F7AF5634            IMUL WORD PTR [BX+3456]
0734:1BC8 F728                IMUL WORD PTR [BX+SI]
0734:1BCA F76879              IMUL WORD PTR [BX+SI+79]
0734:1BCD F7A87856            IMUL WORD PTR [BX+SI+5678]
0734:1BD1 F729                IMUL WORD PTR [BX+DI]
0734:1BD3 F76929              IMUL WORD PTR [BX+DI+29]
0734:1BD6 F7A97856            IMUL WORD PTR [BX+DI+5678]
0734:1BDA F72C                IMUL WORD PTR [SI]
0734:1BDC F76C28              IMUL WORD PTR [SI+28]
0734:1BDF F7AC5634            IMUL WORD PTR [SI+3456]
0734:1BE3 F72D                IMUL WORD PTR [DI]
0734:1BE5 F76D58              IMUL WORD PTR [DI+58]
0734:1BE8 F7AD5634            IMUL WORD PTR [DI+3456]
0734:1BEC F7ED                IMUL BP
0734:1BEE F76E58              IMUL WORD PTR [BP+58]
0734:1BF1 F7AE5634            IMUL WORD PTR [BP+3456]
0734:1BF5 F7E9                IMUL CX
0734:1BF7 F76A39              IMUL WORD PTR [BP+SI+39]
0734:1BFA F7AA7856            IMUL WORD PTR [BP+SI+5678]
0734:1BFE F7EF                IMUL DI
0734:1C00 F76B49              IMUL WORD PTR [BP+DI+49]
0734:1C03 F7EE                IMUL SI
0734:1C05 F66D78              IMUL BYTE PTR [DI+78]
0734:1C08 F6AD5634            IMUL BYTE PTR [DI+3456]
0734:1C0C F6EE                IMUL DH
0734:1C0E F66E78              IMUL BYTE PTR [BP+78]
0734:1C11 F6AE5634            IMUL BYTE PTR [BP+3456]
0734:1C15 F6EC                IMUL AH
0734:1C17 F6EB                IMUL BL
0734:1C19 F6AD5634            IMUL BYTE PTR [DI+3456]
0734:1C1D F737                DIV WORD PTR [BX]
0734:1C1F F77778              DIV WORD PTR [BX+78]
0734:1C22 F7B75634            DIV WORD PTR [BX+3456]
0734:1C26 F730                DIV WORD PTR [BX+SI]
0734:1C28 F77079              DIV WORD PTR [BX+SI+79]
0734:1C2B F7B07856            DIV WORD PTR [BX+SI+5678]
0734:1C2F F731                DIV WORD PTR [BX+DI]
0734:1C31 F77129              DIV WORD PTR [BX+DI+29]
0734:1C34 F7B17856            DIV WORD PTR [BX+DI+5678]
0734:1C38 F734                DIV WORD PTR [SI]
0734:1C3A F77428              DIV WORD PTR [SI+28]
0734:1C3D F7B45634            DIV WORD PTR [SI+3456]
0734:1C41 F735                DIV WORD PTR [DI]
0734:1C43 F77558              DIV WORD PTR [DI+58]
0734:1C46 F7B55634            DIV WORD PTR [DI+3456]
0734:1C4A F7F5                DIV BP
0734:1C4C F77658              DIV WORD PTR [BP+58]
0734:1C4F F7B65634            DIV WORD PTR [BP+3456]
0734:1C53 F7F1                DIV CX
0734:1C55 F77239              DIV WORD PTR [BP+SI+39]
0734:1C58 F7B27856            DIV WORD PTR [BP+SI+5678]
0734:1C5C F7F2                DIV DX
0734:1C5E F77349              DIV WORD PTR [BP+DI+49]
0734:1C61 F7F6                DIV SI
0734:1C63 F67578              DIV BYTE PTR [DI+78]
0734:1C66 F6B55634            DIV BYTE PTR [DI+3456]
0734:1C6A F6F6                DIV DH
0734:1C6C F67678              DIV BYTE PTR [BP+78]
0734:1C6F F6B65634            DIV BYTE PTR [BP+3456]
0734:1C73 F6F2                DIV DL
0734:1C75 F6F3                DIV BL
0734:1C77 F6B55634            DIV BYTE PTR [DI+3456]
0734:1C7B F73F                IDIV WORD PTR [BX]
0734:1C7D F77F78              IDIV WORD PTR [BX+78]
0734:1C80 F7BF5634            IDIV WORD PTR [BX+3456]
0734:1C84 F738                IDIV WORD PTR [BX+SI]
0734:1C86 F77879              IDIV WORD PTR [BX+SI+79]
0734:1C89 F7B87856            IDIV WORD PTR [BX+SI+5678]
0734:1C8D F739                IDIV WORD PTR [BX+DI]
0734:1C8F F77929              IDIV WORD PTR [BX+DI+29]
0734:1C92 F7B97856            IDIV WORD PTR [BX+DI+5678]
0734:1C96 F73C                IDIV WORD PTR [SI]
0734:1C98 F77C28              IDIV WORD PTR [SI+28]
0734:1C9B F7BC5634            IDIV WORD PTR [SI+3456]
0734:1C9F F73D                IDIV WORD PTR [DI]
0734:1CA1 F77D58              IDIV WORD PTR [DI+58]
0734:1CA4 F7BD5634            IDIV WORD PTR [DI+3456]
0734:1CA8 F7FD                IDIV BP
0734:1CAA F77E58              IDIV WORD PTR [BP+58]
0734:1CAD F7BE5634            IDIV WORD PTR [BP+3456]
0734:1CB1 F7F8                IDIV AX
0734:1CB3 F77A39              IDIV WORD PTR [BP+SI+39]
0734:1CB6 F7BA7856            IDIV WORD PTR [BP+SI+5678]
0734:1CBA F7FA                IDIV DX
0734:1CBC F77B49              IDIV WORD PTR [BP+DI+49]
0734:1CBF F7FE                IDIV SI
0734:1CC1 F67D78              IDIV BYTE PTR [DI+78]
0734:1CC4 F6BD5634            IDIV BYTE PTR [DI+3456]
0734:1CC8 F6FE                IDIV DH
0734:1CCA F67E78              IDIV BYTE PTR [BP+78]
0734:1CCD F6BE5634            IDIV BYTE PTR [BP+3456]
0734:1CD1 F6FC                IDIV AH
0734:1CD3 F6FB                IDIV BL
0734:1CD5 F6BD5634            IDIV BYTE PTR [DI+3456]
0734:1CD9 FF07                INC WORD PTR [BX]
0734:1CDB FF4778              INC WORD PTR [BX+78]
0734:1CDE FF875634            INC WORD PTR [BX+3456]
0734:1CE2 FF00                INC WORD PTR [BX+SI]
0734:1CE4 FF4079              INC WORD PTR [BX+SI+79]
0734:1CE7 FF807856            INC WORD PTR [BX+SI+5678]
0734:1CEB FF01                INC WORD PTR [BX+DI]
0734:1CED FF4129              INC WORD PTR [BX+DI+29]
0734:1CF0 FF817856            INC WORD PTR [BX+DI+5678]
0734:1CF4 FF04                INC WORD PTR [SI]
0734:1CF6 FF4428              INC WORD PTR [SI+28]
0734:1CF9 FF845634            INC WORD PTR [SI+3456]
0734:1CFD FF05                INC WORD PTR [DI]
0734:1CFF FF4558              INC WORD PTR [DI+58]
0734:1D02 FF855634            INC WORD PTR [DI+3456]
0734:1D06 FEC0                INC AL
0734:1D08 FEC1                INC CL
0734:1D0A FEC2                INC DL
0734:1D0C FEC3                INC BL
0734:1D0E FEC4                INC AH
0734:1D10 FEC5                INC CH
0734:1D12 FEC7                INC BH
0734:1D14 FEC6                INC DH
0734:1D16 40                  INC AX
0734:1D17 41                  INC CX
0734:1D18 42                  INC DX
0734:1D19 43                  INC BX
0734:1D1A 44                  INC SP
0734:1D1B 45                  INC BP
0734:1D1C 46                  INC SI
0734:1D1D 47                  INC DI
0734:1D1E FF0F                DEC WORD PTR [BX]
0734:1D20 FF4F78              DEC WORD PTR [BX+78]
0734:1D23 FF8F5634            DEC WORD PTR [BX+3456]
0734:1D27 FF08                DEC WORD PTR [BX+SI]
0734:1D29 FF4879              DEC WORD PTR [BX+SI+79]
0734:1D2C FF887856            DEC WORD PTR [BX+SI+5678]
0734:1D30 FF09                DEC WORD PTR [BX+DI]
0734:1D32 FF4929              DEC WORD PTR [BX+DI+29]
0734:1D35 FF897856            DEC WORD PTR [BX+DI+5678]
0734:1D39 FF0C                DEC WORD PTR [SI]
0734:1D3B FF4C28              DEC WORD PTR [SI+28]
0734:1D3E FF8C5634            DEC WORD PTR [SI+3456]
0734:1D42 FF0D                DEC WORD PTR [DI]
0734:1D44 FF4D58              DEC WORD PTR [DI+58]
0734:1D47 FF8D5634            DEC WORD PTR [DI+3456]
0734:1D4B FEC8                DEC AL
0734:1D4D FEC9                DEC CL
0734:1D4F FECA                DEC DL
0734:1D51 FECB                DEC BL
0734:1D53 FECC                DEC AH
0734:1D55 FECD                DEC CH
0734:1D57 FECF                DEC BH
0734:1D59 FECE                DEC DH
0734:1D5B 48                  DEC AX
0734:1D5C 49                  DEC CX
0734:1D5D 4A                  DEC DX
0734:1D5E 4B                  DEC BX
0734:1D5F 4C                  DEC SP
0734:1D60 4D                  DEC BP
0734:1D61 4E                  DEC SI
0734:1D62 4F                  DEC DI
0734:1D63 37                  AAA
0734:1D64 D50A                AAD 0A
0734:1D66 3F                  AAS
0734:1D67 D40A                AAM 0A
0734:1D69 D505                AAD 05
0734:1D6B D403                AAM 03
0734:1D6D 27                  BAA
0734:1D6E 2F                  DAS
0734:1D6F F7DD                NEG BP
0734:1D71 F75E58              NEG WORD PTR [BP+58]
0734:1D74 F79E5634            NEG WORD PTR [BP+3456]
0734:1D78 F7D9                NEG CX
0734:1D7A F75A39              NEG WORD PTR [BP+SI+39]
0734:1D7D F79A7856            NEG WORD PTR [BP+SI+5678]
0734:1D81 F7DA                NEG DX
0734:1D83 F75B49              NEG WORD PTR [BP+DI+49]
0734:1D86 F7DE                NEG SI
0734:1D88 F65D78              NEG BYTE PTR [DI+78]
0734:1D8B F69D5634            NEG BYTE PTR [DI+3456]
0734:1D8F F6DE                NEG DH
0734:1D91 F65E78              NEG BYTE PTR [BP+78]
0734:1D94 F69E5634            NEG BYTE PTR [BP+3456]
0734:1D98 F6DC                NEG AH
0734:1D9A F6DB                NEG BL
0734:1D9C F69D5634            NEG BYTE PTR [DI+3456]
0734:1DA0 98                  CBW
0734:1DA1 99                  CWD
0734:1DA2 E98C55              JMP 732E
0734:1DA5 FC                  CLD
0734:1DA6 8CC8                MOV AL, SS
0734:1DA8 8ED8                MOV DS, AL
0734:1DAA 8ED0                MOV CS, AL
0734:1DAC 8B267454            MOV SP, [5474]
0734:1DB0 C70676540A01        MOV WORD PTR [5476], 010A
0734:1DB6 1E                  PUSH DS
0734:1DB7 07                  POP ES
0734:1DB8 E8920F              CALL 2D4A
0734:1DBB 7503                JNE	1DC0
0734:1DBD E8372C              CALL 49F4
0734:1DC0 BAD62E              MOV DX, 2ED6
0734:1DC3 B90100              MOV CX, 0001
0734:1DC6 E8D81D              CALL 3B9E
0734:1DC9 3C0D                CMP AL, 0D
0734:1DCB 7507                JNE	1DD4
0734:1DCD 8B16CC54            MOV DX, [54CC]
0734:1DD1 4E                  DEC SI
0734:1DD2 EB21                JMP	1DF5
0734:1DD4 3C3B                CMP AL, 3B
0734:1DD6 74D4                JE	1DAC
0734:1DD8 3C3F                CMP AL, 3F
0734:1DDA 7424                JE	1E00
0734:1DDC 0C20                OR AL, 20
0734:1DDE 2C61                SUB AL, 61
0734:1DE0 3C17                CMP AL, 17
0734:1DE2 7718                JA	1DFC
0734:1DE4 98                  CBW
0734:1DE5 93                  XCHG AX, BX
0734:1DE6 E8F720              CALL 3EDD
0734:1DE9 D1E3                SHL BX, 1
0734:1DEB 8B97EC2D            MOV DX, [BX+2DEC]
0734:1DEF C706CC545D01        MOV WORD PTR [54CC], 015D
0734:1DF5 BF6856              MOV DI, 5668
0734:1DF8 FFD2                CALL DX
0734:1DFA EBB0                JMP	1DAC
0734:1DFC E9811B              JMP 397D
0734:1DFF C3                  RET
0734:1E00 BAD82E              MOV DX, 2ED8
0734:1E03 B95702              MOV CX, 0257
0734:1E06 E8CF2B              CALL 49D5
0734:1E09 E80B00              CALL 1E14
0734:1E0C BA2F31              MOV DX, 312F
0734:1E0F B9B800              MOV CX, 00B8
0734:1E12 E8C32B              CALL 49D5
0734:1E15 EB95                JMP	1DAC
0734:1E17 803EA75400          CMP BYTE PTR [54A7], 00
0734:1E1C 7528                JNE	1E46
0734:1E1E F606A85480          TEST BYTE PTR [54A8], 80
0734:1E23 7421                JE	1E46
0734:1E25 06                  PUSH ES
0734:1E26 B84000              MOV AX, 0040
0734:1E29 8EC0                MOV ES, AL
0734:1E2B 26803E84001E        CMP BYTE PTR ES: [0084], 1E
0734:1E31 07                  POP ES
0734:1E32 7312                JNB	1E46
0734:1E34 BAE831              MOV DX, 31E8
0734:1E37 B90600              MOV CX, 0006
0734:1E3A E89B2B              CALL 49D5
0734:1E3D B408                MOV AH, 08
0734:1E3F CD21                INT 21
0734:1E41 B00D                MOV AL, 0D
0734:1E43 E82E1D              CALL 3B71
0734:1E46 C3                  RET
0734:1E47 E80413              CALL 314B
0734:1E4A 42                  INC DX
0734:1E4B C3                  RET
0734:1E4C E306                JCXZ	1E54
0734:1E4E AC                  LODSB
0734:1E4F E8F5FF              CALL 1E44
0734:1E52 E2FA                LOOP	1E4E
0734:1E54 C3                  RET
0734:1E55 C7067654CF01        MOV WORD PTR [5476], 01CF
0734:1E5B 3C0D                CMP AL, 0D
0734:1E5D 7412                JE	1E71
0734:1E5F 8B1E2A55            MOV BX, [552A]
0734:1E63 E87C1F              CALL 3DDF
0734:1E66 E86C20              CALL 3ED2
0734:1E69 8916B254            MOV [54B2], DX
0734:1E6D 891EB654            MOV [54B6], BX
0734:1E71 8B267454            MOV SP, [5474]
0734:1E75 BF6856              MOV DI, 5668
0734:1E78 A1B654              MOV AX, [54B6]
0734:1E7B E8192B              CALL 4994
0734:1E7E B03A                MOV AL, 3A
0734:1E80 AA                  STOSB
0734:1E81 C6063C5500          MOV BYTE PTR [553C], 00
0734:1E86 BDF52C              MOV BP, 2CF5
0734:1E89 A1B254              MOV AX, [54B2]
0734:1E8C FFD5                CALL BP
0734:1E8E B020                MOV AL, 20
0734:1E90 AA                  STOSB
0734:1E91 E8061D              CALL 3B97
0734:1E94 3C0D                CMP AL, 0D
0734:1E96 745E                JE	1EF6
0734:1E98 3C3B                CMP AL, 3B
0734:1E9A 74D5                JE	1E71
0734:1E9C C7063D550000        MOV WORD PTR [553D], 0000
0734:1EA2 BF6856              MOV DI, 5668
0734:1EA5 56                  PUSH DH
0734:1EA6 3C61                CMP AL, 61
0734:1EA8 7206                JB	1EB0
0734:1EAA 3C7A                CMP AL, 7A
0734:1EAC 7702                JA	1EB0
0734:1EAE 24DF                AND AL, DF
0734:1EB0 AA                  STOSB
0734:1EB1 AC                  LODSB
0734:1EB2 3C0D                CMP AL, 0D
0734:1EB4 7410                JE	1EC6
0734:1EB6 3C3B                CMP AL, 3B
0734:1EB8 740C                JE	1EC6
0734:1EBA 3C20                CMP AL, 20
0734:1EBC 7408                JE	1EC6
0734:1EBE 3C3A                CMP AL, 3A
0734:1EC0 7404                JE	1EC6
0734:1EC2 3C09                CMP AL, 09
0734:1EC4 75E0                JNE	1EA6
0734:1EC6 804DFF80            OR BYTE PTR [DI-FF], 80
0734:1ECA E83620              CALL 3F00
0734:1ECD 4E                  DEC SI
0734:1ECE 56                  PUSH DH
0734:1ECF BE5238              MOV SI, 3852
0734:1ED2 8BDE                MOV BX, SI
0734:1ED4 83C602              ADD SI, +02
0734:1ED7 8BCE                MOV CX, SI
0734:1ED9 AC                  LODSB
0734:1EDA 22C0                AND AL, AL
0734:1EDC 79FB                JNS	1ED9
0734:1EDE 87CE                XCHG AX, SI
0734:1EE0 51                  PUSH CX
0734:1EE1 2BCE                SUB CX, SI
0734:1EE3 BF6856              MOV DI, 5668
0734:1EE6 F3A6                REPE                    CMPSW
0734:1EE8 5E                  POP SI
0734:1EE9 740E                JE	1EF9
0734:1EEB 81FEE741            CMP SI, 41E7
0734:1EEF 72E1                JB	1ED2
0734:1EF1 5E                  POP SI
0734:1EF2 5E                  POP SI
0734:1EF3 E98A1A              JMP 397D
0734:1EF6 E9B3FE              JMP 1DA9
0734:1EF9 8B37                MOV SI, [BX]
0734:1EFB 81C6664D            ADD SI, 4D66
0734:1EFF 803CF5              CMP BYTE PTR [SI], F5
0734:1F02 7217                JB	1F1B
0734:1F04 AC                  LODSB
0734:1F05 2CF5                SUB AL, F5
0734:1F07 7447                JE	1F50
0734:1F09 98                  CBW
0734:1F0A 48                  DEC AX
0734:1F0B 741D                JE	1F2A
0734:1F0D 48                  DEC AX
0734:1F0E 7417                JE	1F27
0734:1F10 48                  DEC AX
0734:1F11 740B                JE	1F1E
0734:1F13 3C03                CMP AL, 03
0734:1F15 7359                JNB	1F70
0734:1F17 08063C55            OR [553C], AL
0734:1F1B E9F500              JMP 2010
0734:1F1E 800E3C5540          OR [553C], 40
0734:1F23 46                  INC SI
0734:1F24 E9EC00              JMP 2010
0734:1F27 E9D600              JMP 1FFD
0734:1F2A AC                  LODSB
0734:1F2B A23E55              MOV [553E], AL
0734:1F2E 8AC8                MOV CL, AL
0734:1F30 800E3C5510          OR [553C], 10
0734:1F35 5E                  POP SI
0734:1F36 58                  POP AX
0734:1F37 AC                  LODSB
0734:1F38 3C3A                CMP AL, 3A
0734:1F3A 75B7                JNE	1EF3
0734:1F3C E8C31F              CALL 3EFF
0734:1F3F 3C0D                CMP AL, 0D
0734:1F41 7404                JE	1F47
0734:1F43 3C3B                CMP AL, 3B
0734:1F45 75AC                JNE	1EF3
0734:1F47 BF6856              MOV DI, 5668
0734:1F4A 8AC1                MOV AL, CL
0734:1F4C AA                  STOSB
0734:1F4D E98B00              JMP 1FD8
0734:1F50 AC                  LODSB
0734:1F51 86063D55            XCHG AL, BYTE PTR [553D]
0734:1F55 3C00                CMP AL, 00
0734:1F57 7599                JNE	1EF2
0734:1F59 5E                  POP SI
0734:1F5A 58                  POP AX
0734:1F5B AC                  LODSB
0734:1F5C 3C0D                CMP AL, 0D
0734:1F5E 7407                JE	1F67
0734:1F60 3C3B                CMP AL, 3B
0734:1F62 7403                JE	1F67
0734:1F64 E93BFF              JMP 1E9F
0734:1F67 A03D55              MOV AL, [553D]
0734:1F6A BF6856              MOV DI, 5668
0734:1F6D AA                  STOSB
0734:1F6E EB6B                JMP	1FDB
0734:1F70 833E3D5500          CMP WORD PTR [553D], +00
0734:1F75 7403                JE	1F7A
0734:1F77 E978FF              JMP 1EEF
0734:1F7A 5E                  POP SI
0734:1F7B 2C03                SUB AL, 03
0734:1F7D 7511                JNE	1F90
0734:1F7F E8801F              CALL 3EFF
0734:1F82 3C0D                CMP AL, 0D
0734:1F84 7407                JE	1F8D
0734:1F86 8B1EB654            MOV BX, [54B6]
0734:1F8A E9D6FE              JMP 1E60
0734:1F8D E9E1FE              JMP 1E6E
0734:1F90 BF6856              MOV DI, 5668
0734:1F93 93                  XCHG AX, BX
0734:1F94 D1E3                SHL BX, 1
0734:1F96 8BAF0A4C            MOV BP, [BX+4C0A]
0734:1F9A E8651F              CALL 3EFF
0734:1F9D 3C0D                CMP AL, 0D
0734:1F9F 743A                JE	1FDB
0734:1FA1 3C22                CMP AL, 22
0734:1FA3 7419                JE	1FBE
0734:1FA5 3C27                CMP AL, 27
0734:1FA7 7415                JE	1FBE
0734:1FA9 E85C08              CALL 2805
0734:1FAC 2E3A4EFF            CMP CL, CS: [BP-FF]
0734:1FB0 7F1E                JG	1FD0
0734:1FB2 93                  XCHG AX, BX
0734:1FB3 FFD5                CALL BP
0734:1FB5 81FF7057            CMP DI, 5770
0734:1FB9 7715                JA	1FD0
0734:1FBB 93                  XCHG AX, BX
0734:1FBC EB16                JMP	1FD4
0734:1FBE 8AE0                MOV AH, AL
0734:1FC0 AC                  LODSB
0734:1FC1 3C0D                CMP AL, 0D
0734:1FC3 740B                JE	1FD0
0734:1FC5 3AC4                CMP AL, AH
0734:1FC7 740A                JE	1FD3
0734:1FC9 AA                  STOSB
0734:1FCA 81FF7057            CMP DI, 5770
0734:1FCE 76F0                JBE	1FC0
0734:1FD0 E920FF              JMP 1EF0
0734:1FD3 AC                  LODSB
0734:1FD4 E80A1F              CALL 3EDE
0734:1FD7 3C0D                CMP AL, 0D
0734:1FD9 75C6                JNE	1FA1
0734:1FDB BE6856              MOV SI, 5668
0734:1FDE 8B1EB654            MOV BX, [54B6]
0734:1FE2 8B16B254            MOV DX, [54B2]
0734:1FE6 8BCF                MOV CX, DI
0734:1FE8 2BCE                SUB CX, SI
0734:1FEA E85FFE              CALL 1E49
0734:1FED 8916B254            MOV [54B2], DX
0734:1FF1 E97DFE              JMP 1E6E
0734:1FF4 04AB                ADD AL, AB
0734:1FF6 92                  XCHG AX, DX
0734:1FF7 AB                  STOSW
0734:1FF8 92                  XCHG AX, DX
0734:1FF9 C3                  RET
0734:1FFA 02ABC301            ADD CH, [BP+DI+01C3]
0734:1FFE AA                  STOSB
0734:1FFF C3                  RET
0734:2000 89363F55            MOV [553F], SI
0734:2004 5E                  POP SI
0734:2005 AC                  LODSB
0734:2006 3C0D                CMP AL, 0D
0734:2008 7404                JE	200E
0734:200A 3C3B                CMP AL, 3B
0734:200C 750B                JNE	2019
0734:200E BEBD4B              MOV SI, 4BBD
0734:2011 EB05                JMP	2018
0734:2013 89363F55            MOV [553F], SI
0734:2017 5E                  POP SI
0734:2018 AC                  LODSB
0734:2019 BF6856              MOV DI, 5668
0734:201C 3C0D                CMP AL, 0D
0734:201E 7404                JE	2024
0734:2020 3C3B                CMP AL, 3B
0734:2022 7503                JNE	2027
0734:2024 E9F202              JMP 2316
0734:2027 57                  PUSH DI
0734:2028 B90600              MOV CX, 0006
0734:202B 33C0                XOR AX, AX
0734:202D F3AB                REPE                    STOSW
0734:202F 5F                  POP DI
0734:2030 4E                  DEC SI
0734:2031 8B04                MOV AX, [SI]
0734:2033 25DFDF              AND AX, DFDF
0734:2036 807D0200            CMP BYTE PTR [DI+02], 00
0734:203A 7533                JNE	206F
0734:203C 57                  PUSH DI
0734:203D BFEE4B              MOV DI, 4BEE
0734:2040 B90C00              MOV CX, 000C
0734:2043 F2AF                REPNE                    SCASB
0734:2045 5F                  POP DI
0734:2046 7527                JNE	206F
0734:2048 0BC9                OR CX, CX
0734:204A 7509                JNE	2055
0734:204C 8A4402              MOV AL, [SI+02]
0734:204F 24DF                AND AL, DF
0734:2051 3C52                CMP AL, 52
0734:2053 7547                JNE	209C
0734:2055 80E90C              SUB CL, 0C
0734:2058 F6D9                NEG CL
0734:205A 884D02              MOV [DI+02], CL
0734:205D E8981E              CALL 3EF5
0734:2060 8A24                MOV AH, [SI]
0734:2062 25DFDF              AND AX, DFDF
0734:2065 3D5054              CMP AX, 5450
0734:2068 75C6                JNE	2030
0734:206A E88B1E              CALL 3EF5
0734:206D EBC1                JMP	2030
0734:206F 803E3E5500          CMP BYTE PTR [553E], 00
0734:2074 7526                JNE	209C
0734:2076 57                  PUSH DI
0734:2077 BFC54C              MOV DI, 4CC5
0734:207A B90600              MOV CX, 0006
0734:207D F2AF                REPNE                    SCASB
0734:207F 5F                  POP DI
0734:2080 751A                JNE	209C
0734:2082 56                  PUSH DH
0734:2083 AD                  LODSW
0734:2084 E87B1E              CALL 3EFF
0734:2087 3C3A                CMP AL, 3A
0734:2089 7510                JNE	209B
0734:208B 58                  POP AX
0734:208C E8731E              CALL 3EFF
0734:208F BBE84C              MOV BX, 4CE8
0734:2092 2BD9                SUB BX, CX
0734:2094 8A07                MOV AL, [BX]
0734:2096 A23E55              MOV [553E], AL
0734:2099 EB95                JMP	2030
0734:209B 5E                  POP SI
0734:209C 57                  PUSH DI
0734:209D BFA54C              MOV DI, 4CA5
0734:20A0 B91B00              MOV CX, 001B
0734:20A3 E8EF07              CALL 2892
0734:20A6 5F                  POP DI
0734:20A7 726F                JB	2118
0734:20A9 800D04              OR [DI], 04
0734:20AC 885D04              MOV [DI+04], BL
0734:20AF 80FB18              CMP BL, 18
0734:20B2 730B                JNB	20BF
0734:20B4 93                  XCHG AX, BX
0734:20B5 B103                MOV CL, 03
0734:20B7 D2E8                SHR AL, CL
0734:20B9 04FE                ADD AL, FE
0734:20BB 1403                ADC AL, 03
0734:20BD EB4A                JMP	2109
0734:20BF 80350C              XOR BYTE PTR [DI], 0C
0734:20C2 B002                MOV AL, 02
0734:20C4 80FB1E              CMP BL, 1E
0734:20C7 7726                JA	20EF
0734:20C9 740C                JE	20D7
0734:20CB 80FB1C              CMP BL, 1C
0734:20CE 7239                JB	2109
0734:20D0 800E3C5520          OR BYTE PTR [553C], 20
0734:20D5 EB32                JMP	2109
0734:20D7 803C28              CMP BYTE PTR [SI], 28
0734:20DA 752B                JNE	2107
0734:20DC AC                  LODSB
0734:20DD AC                  LODSB
0734:20DE 2C30                SUB AL, 30
0734:20E0 3C07                CMP AL, 07
0734:20E2 7708                JA	20EC
0734:20E4 884505              MOV [DI+05], AL
0734:20E7 AC                  LODSB
0734:20E8 3C29                CMP AL, 29
0734:20EA 741B                JE	2107
0734:20EC E904FE              JMP 1EF0
0734:20EF AC                  LODSB
0734:20F0 2C30                SUB AL, 30
0734:20F2 3C07                CMP AL, 07
0734:20F4 77F6                JA	20EC
0734:20F6 884505              MOV [DI+05], AL
0734:20F9 B004                MOV AL, 04
0734:20FB 80FB1F              CMP BL, 1F
0734:20FE 7509                JNE	2109
0734:2100 800D04              OR BYTE PTR [DI], 04
0734:2103 B005                MOV AL, 05
0734:2105 EB02                JMP	2109
0734:2107 B000                MOV AL, 00
0734:2109 3A4502              CMP AL, [DI+02]
0734:210C 7407                JE	2115
0734:210E 864502              XCHG AL, BYTE PTR [DI+02]
0734:2111 3C00                CMP AL, 00
0734:2113 75D7                JNE	20EC
0734:2115 E9E001              JMP 22F5
0734:2118 AC                  LODSB
0734:2119 E8D606              CALL 27EF
0734:211C 7236                JB	2154
0734:211E E8E706              CALL 2805
0734:2121 884D07              MOV [DI+07], CL
0734:2124 895D08              MOV [DI+08], BX
0734:2127 89550A              MOV [DI+0A], DX
0734:212A E8D61D              CALL 3F00
0734:212D 80F902              CMP CL, 02
0734:2130 7F22                JG	2154
0734:2132 3C3A                CMP AL, 3A
0734:2134 751E                JNE	2154
0734:2136 E8C91D              CALL 3EFF
0734:2139 E8CC06              CALL 2805
0734:213C 8B4D08              MOV CX, [DI+08]
0734:213F 894D05              MOV [DI+05], CX
0734:2142 895D08              MOV [DI+08], BX
0734:2145 89550A              MOV [DI+0A], DX
0734:2148 800D20              OR [DI], 20
0734:214B E9A901              JMP 22F4
0734:214E E9A500              JMP 21F3
0734:2151 E8AE1D              CALL 3EFF
0734:2154 3C5B                CMP AL, 5B
0734:2156 75F6                JNE	214E
0734:2158 800D01              OR [DI], 01
0734:215B E8A41D              CALL 3EFF
0734:215E 3C5D                CMP AL, 5D
0734:2160 74EF                JE	2151
0734:2162 4E                  DEC SI
0734:2163 57                  PUSH DI
0734:2164 BFB54C              MOV DI, 4CB5
0734:2167 B90800              MOV CX, 0008
0734:216A E82807              CALL 2892
0734:216D 5F                  POP DI
0734:216E 7243                JB	21B3
0734:2170 80FB10              CMP BL, 10
0734:2173 7305                JNB	217A
0734:2175 80C308              ADD BL, 08
0734:2178 EB1D                JMP	2197
0734:217A 807D0500            CMP BYTE PTR [DI+05], 00
0734:217E 7517                JNE	2197
0734:2180 E87F1D              CALL 3EFF
0734:2183 4E                  DEC SI
0734:2184 3C2A                CMP AL, 2A
0734:2186 750F                JNE	2197
0734:2188 46                  INC SI
0734:2189 885D05              MOV [DI+05], BL
0734:218C E8731D              CALL 3EFF
0734:218F E87606              CALL 2805
0734:2192 E8DD06              CALL 286F
0734:2195 EB51                JMP	21E8
0734:2197 807D0400            CMP BYTE PTR [DI+04], 00
0734:219B 7505                JNE	21A2
0734:219D 885D04              MOV [DI+04], BL
0734:21A0 EB09                JMP	21AB
0734:21A2 807D0500            CMP BYTE PTR [DI+05], 00
0734:21A6 7508                JNE	21B0
0734:21A8 885D05              MOV [DI+05], BL
0734:21AB E8541D              CALL 3EFF
0734:21AE EB38                JMP	21E8
0734:21B0 E940FD              JMP 1EF0
0734:21B3 AC                  LODSB
0734:21B4 E85106              CALL 2805
0734:21B7 E8491D              CALL 3F00
0734:21BA 3C2A                CMP AL, 2A
0734:21BC 740B                JE	21C9
0734:21BE 084D07              OR [DI+07], CL
0734:21C1 015D08              ADD [DI+08], BX
0734:21C4 11550A              ADC [DI+0A], DX
0734:21C7 EB1F                JMP	21E8
0734:21C9 E8A606              CALL 286F
0734:21CC E8331D              CALL 3EFF
0734:21CF 4E                  DEC SI
0734:21D0 57                  PUSH DI
0734:21D1 BFB54C              MOV DI, 4CB5
0734:21D4 33C9                XOR CX, CX
0734:21D6 E8BC06              CALL 2892
0734:21D9 5F                  POP DI
0734:21DA 72D4                JB	21B0
0734:21DC 807D0500            CMP BYTE PTR [DI+05], 00
0734:21E0 75CE                JNE	21B0
0734:21E2 885D05              MOV [DI+05], BL
0734:21E5 E81A1D              CALL 3EFF
0734:21E8 3C2D                CMP AL, 2D
0734:21EA 74C8                JE	21B4
0734:21EC 3C2B                CMP AL, 2B
0734:21EE 7503                JNE	21F3
0734:21F0 E968FF              JMP 2158
0734:21F3 E968FF              JMP 215B
0734:21F6 837D0400            CMP WORD PTR [DI+04], +00
0734:21FA 752D                JNE	2229
0734:21FC 807D0700            CMP BYTE PTR [DI+07], 00
0734:2200 7424                JE	2226
0734:2202 803D00              CMP BYTE PTR [DI], 00
0734:2205 7506                JNE	220D
0734:2207 800D10              OR BYTE PTR [DI], 10
0734:220A E9EA00              JMP 22F4
0734:220D 800E3C5580          OR BYTE PTR [553C], 80
0734:2212 B002                MOV AL, 02
0734:2214 F6450704            TEST BYTE PTR [DI+07], 04
0734:2218 7407                JE	2221
0734:221A 40                  INC AX
0734:221B 40                  INC AX
0734:221C 800E3C5504          OR BYTE PTR [553C], 04
0734:2221 884503              MOV [DI+03], AL
0734:2224 EBE4                JMP	220A
0734:2226 E9CAFC              JMP 1EF0
0734:2229 800D02              OR [DI], 02
0734:222C 8A4504              MOV AL, [DI+04]
0734:222F 0A4505              OR AL, [DI+05]
0734:2232 A810                TEST AL, 10
0734:2234 7525                JNE	225B
0734:2236 F6450704            TEST BYTE PTR [DI+07], 04
0734:223A 751F                JNE	225B
0734:223C 800E3C5580          OR BYTE PTR [553C], 80
0734:2241 8B4504              MOV AX, [DI+04]
0734:2244 3AC4                CMP AL, AH
0734:2246 7702                JA	224A
0734:2248 86C4                XCHG AL, AH
0734:224A 57                  PUSH DI
0734:224B BFAD4B              MOV DI, 4BAD
0734:224E B90800              MOV CX, 0008
0734:2251 F2AF                REPNE                    SCASB
0734:2253 5F                  POP DI
0734:2254 75D0                JNE	2226
0734:2256 BB0602              MOV BX, 0206
0734:2259 EB6A                JMP	22C5
0734:225B 800E3C5584          OR BYTE PTR [553C], 84
0734:2260 8A4504              MOV AL, [DI+04]
0734:2263 0A4506              OR AL, [DI+06]
0734:2266 7508                JNE	2270
0734:2268 8B4504              MOV AX, [DI+04]
0734:226B 86C4                XCHG AL, AH
0734:226D 894504              MOV [DI+04], AX
0734:2270 BB0504              MOV BX, 0405
0734:2273 807D0500            CMP BYTE PTR [DI+05], 00
0734:2277 7510                JNE	2289
0734:2279 8A4D04              MOV CL, [DI+04]
0734:227C 80F910              CMP CL, 10
0734:227F 7CA5                JL	2226
0734:2281 80E107              AND CL, 07
0734:2284 80F904              CMP CL, 04
0734:2287 753C                JNE	22C5
0734:2289 800E3C5508          OR BYTE PTR [553C], 08
0734:228E 8A6D06              MOV CH, [DI+06]
0734:2291 B103                MOV CL, 03
0734:2293 D2E5                SHL CH, CL
0734:2295 8A4505              MOV AL, [DI+05]
0734:2298 3C14                CMP AL, 14
0734:229A 748A                JE	2226
0734:229C 3C00                CMP AL, 00
0734:229E 7502                JNE	22A2
0734:22A0 B014                MOV AL, 14
0734:22A2 3C10                CMP AL, 10
0734:22A4 7C80                JL	2226
0734:22A6 2407                AND AL, 07
0734:22A8 0AE8                OR CH, AL
0734:22AA D2E5                SHL CH, CL
0734:22AC 41                  INC CX
0734:22AD 8A4504              MOV AL, [DI+04]
0734:22B0 3C00                CMP AL, 00
0734:22B2 7505                JNE	22B9
0734:22B4 80CD05              OR CH, 05
0734:22B7 EB38                JMP	22F1
0734:22B9 3C10                CMP AL, 10
0734:22BB 7C59                JL	2316
0734:22BD 2407                AND AL, 07
0734:22BF 0AE8                OR CH, AL
0734:22C1 3C05                CMP AL, 05
0734:22C3 7406                JE	22CB
0734:22C5 3ACB                CMP CL, BL
0734:22C7 7402                JE	22CB
0734:22C9 B300                MOV BL, 00
0734:22CB 51                  PUSH CX
0734:22CC 8A4508              MOV AL, [DI+08]
0734:22CF B107                MOV CL, 07
0734:22D1 D2F8                SAR AL, CL
0734:22D3 59                  POP CX
0734:22D4 8A6509              MOV AH, [DI+09]
0734:22D7 3AC4                CMP AL, AH
0734:22D9 7513                JNE	22EE
0734:22DB 3B450A              CMP AX, [DI+0A]
0734:22DE 750E                JNE	22EE
0734:22E0 B700                MOV BH, 00
0734:22E2 0A5D08              OR BL, [DI+08]
0734:22E5 740A                JE	22F1
0734:22E7 FEC7                INC BH
0734:22E9 80C940              OR CL, 40
0734:22EC EB03                JMP	22F1
0734:22EE 80C980              OR CL, 80
0734:22F1 887D03              MOV [DI+03], BH
0734:22F4 894D04              MOV [DI+04], CX
0734:22F7 4E                  DEC SI
0734:22F8 E8071C              CALL 3EFF
0734:22FB 83C70C              ADD DI, +0C
0734:22FE 3C0D                CMP AL, 0D
0734:2300 7417                JE	2319
0734:2302 3C3B                CMP AL, 3B
0734:2304 7413                JE	2319
0734:2306 3C2C                CMP AL, 2C
0734:2308 750C                JNE	2316
0734:230A 81FF8C56            CMP DI, 568C
0734:230E 7306                JNB	2316
0734:2310 E8EF1B              CALL 3EFF
0734:2313 E906FD              JMP 2019
0734:2316 E9DAFB              JMP 1EF0
0734:2319 C605FF              MOV BYTE PTR [DI], FF
0734:231C 56                  PUSH DH
0734:231D 33C0                XOR AX, AX
0734:231F BF4555              MOV DI, 5545
0734:2322 B90700              MOV CX, 0007
0734:2325 F3AB                REPE                    STOSW
0734:2327 8B363F55            MOV SI, [553F]
0734:232B AC                  LODSB
0734:232C 2CED                SUB AL, ED
0734:232E 7215                JB	2345
0734:2330 3C07                CMP AL, 07
0734:2332 7407                JE	233B
0734:2334 770C                JA	2342
0734:2336 A24D55              MOV [554D], AL
0734:2339 EBF0                JMP	232B
0734:233B 800E515501          OR [5551], 01
0734:2340 EBE9                JMP	232B
0734:2342 E9ADFB              JMP 1EEF
0734:2345 4E                  DEC SI
0734:2346 AD                  LODSW
0734:2347 86C4                XCHG CL, AH
0734:2349 33D2                XOR DX, DX
0734:234B BB4C00              MOV BX, 004C
0734:234E F7F3                DIV BX
0734:2350 A34155              MOV [5541], AX
0734:2353 A34355              MOV [5543], AX
0734:2356 3DDF00              CMP AX, 00DF
0734:2359 7717                JA	2372
0734:235B 3CD8                CMP AL, D8
0734:235D 7213                JB	2372
0734:235F 800E4E5501          OR BYTE PTR [554E], 01
0734:2364 8AE0                MOV AH, AL
0734:2366 AC                  LODSB
0734:2367 A24755              MOV [5547], AL
0734:236A A34355              MOV [5543], AX
0734:236D 800E515502          OR [5551], 02
0734:2372 89363F55            MOV [553F], SI
0734:2376 8BF2                MOV SI, DX
0734:2378 8A9C524B            MOV BL, [SI+4B52]
0734:237C 8DB76837            LEA SI, [BX+3768]
0734:2380 BF6856              MOV DI, 5668
0734:2383 AC                  LODSB
0734:2384 3C00                CMP AL, 00
0734:2386 7434                JE	23BC
0734:2388 803DFF              CMP BYTE PTR [DI], FF
0734:238B 7490                JE	231D
0734:238D 3C40                CMP AL, 40
0734:238F 7208                JB	2399
0734:2391 D410                AAM 10
0734:2393 88265255            MOV [5552], AH
0734:2397 EB02                JMP	239B
0734:2399 040E                ADD AL, 0E
0734:239B 98                  CBW
0734:239C 93                  XCHG AX, BX
0734:239D 8B8F124C            MOV CX, [BX+4C12]
0734:23A1 D1EB                SHR BX, 1
0734:23A3 8A87BF4B            MOV AL, [BX+4BBF]
0734:23A7 8405                TEST [DI], AL
0734:23A9 740E                JE	23B9
0734:23AB FFD1                CALL CX
0734:23AD 817CFF565A          CMP WORD PTR [SI-FF], 5A56
0734:23B2 74CF                JE	2383
0734:23B4 83C70C              ADD DI, +0C
0734:23B7 EBCA                JMP	2383
0734:23B9 E961FF              JMP 231A
0734:23BC 803DFF              CMP BYTE PTR [DI], FF
0734:23BF 75F8                JNE	23B9
0734:23C1 A05155              MOV AL, [5551]
0734:23C4 A810                TEST AL, 10
0734:23C6 7414                JE	23DC
0734:23C8 A804                TEST AL, 04
0734:23CA 7510                JNE	23DC
0734:23CC A808                TEST AL, 08
0734:23CE 74E9                JE	23B9
0734:23D0 8B363F55            MOV SI, [553F]
0734:23D4 803CFF              CMP BYTE PTR [SI], FF
0734:23D7 7403                JE	23DC
0734:23D9 E916FB              JMP 1EEF
0734:23DC A03D55              MOV AL, [553D]
0734:23DF 3C00                CMP AL, 00
0734:23E1 7421                JE	2404
0734:23E3 3CF0                CMP AL, F0
0734:23E5 7509                JNE	23F0
0734:23E7 F606515501          TEST BYTE PTR [5551], 01
0734:23EC 74EB                JE	23D9
0734:23EE EB14                JMP	2404
0734:23F0 A14155              MOV AX, [5541]
0734:23F3 24FE                AND AL, FE
0734:23F5 3DFF00              CMP AX, 00FF
0734:23F8 77DF                JA	23D9
0734:23FA BF6137              MOV DI, 3761
0734:23FD B90700              MOV CX, 0007
0734:2400 F2AE                REPNE                    SCASB
0734:2402 75D5                JNE	23D9
0734:2404 F6063C5510          TEST BYTE PTR [553C], 10
0734:2409 7412                JE	241D
0734:240B A14155              MOV AX, [5541]
0734:240E 3DFF00              CMP AX, 00FF
0734:2411 77C6                JA	23D9
0734:2413 BF5837              MOV DI, 3758
0734:2416 B90900              MOV CX, 0009
0734:2419 F2AE                REPNE                    SCASB
0734:241B 75BC                JNE	23D9
0734:241D 8B1E4955            MOV BX, [5549]
0734:2421 0BDB                OR BX, BX
0734:2423 740C                JE	2431
0734:2425 A05055              MOV AL, [5550]
0734:2428 F6D8                NEG AL
0734:242A D0E0                SHL AL, 1
0734:242C 844707              TEST [BX+07], AL
0734:242F 75A8                JNE	23D9
0734:2431 8B16B254            MOV DX, [54B2]
0734:2435 8B1EB654            MOV BX, [54B6]
0734:2439 F6063C5502          TEST BYTE PTR [553C], 02
0734:243E 7405                JE	2445
0734:2440 B09B                MOV AL, 9B
0734:2442 E802FA              CALL 1E44
0734:2445 A03D55              MOV AL, [553D]
0734:2448 3C00                CMP AL, 00
0734:244A 7403                JE	244F
0734:244C E8F8F9              CALL 1E44
0734:244F A03C55              MOV AL, [553C]
0734:2452 A880                TEST AL, 80
0734:2454 740F                JE	2465
0734:2456 2404                AND AL, 04
0734:2458 2444                AND AL, 44
0734:245A 7409                JE	2465
0734:245C 3C44                CMP AL, 44
0734:245E 7405                JE	2465
0734:2460 B067                MOV AL, 67
0734:2462 E8E2F9              CALL 1E44
0734:2465 8A263C55            MOV AH, [553C]
0734:2469 A05155              MOV AL, [5551]
0734:246C A840                TEST AL, 40
0734:246E 7505                JNE	2475
0734:2470 F6C401              TEST AH, 01
0734:2473 7405                JE	247A
0734:2475 B066                MOV AL, 66
0734:2477 E8CDF9              CALL 1E44
0734:247A A03E55              MOV AL, [553E]
0734:247D 3C00                CMP AL, 00
0734:247F 740C                JE	248D
0734:2481 E8C3F9              CALL 1E44
0734:2484 3C64                CMP AL, 64
0734:2486 7205                JB	248D
0734:2488 800E3C5520          OR BYTE PTR [553C], 20
0734:248D A14155              MOV AX, [5541]
0734:2490 8BF8                MOV DI, AX
0734:2492 81EF4002            SUB DI, 0240
0734:2496 7317                JNB	24AF
0734:2498 3D0002              CMP AX, 0200
0734:249B 7224                JB	24C1
0734:249D 800E4E5501          OR BYTE PTR [554E], 01
0734:24A2 2438                AND AL, 38
0734:24A4 08064755            OR [5547], AL
0734:24A8 97                  XCHG AX, DI
0734:24A9 2407                AND AL, 07
0734:24AB 0CD8                OR AL, D8
0734:24AD EB1E                JMP	24CD
0734:24AF B103                MOV CL, 03
0734:24B1 D3EF                SHR DI, CL
0734:24B3 2407                AND AL, 07
0734:24B5 D2E0                SHL AL, CL
0734:24B7 08064755            OR [5547], AL
0734:24BB D1E7                SHL DI, 1
0734:24BD 8B853638            MOV AX, [DI+3836]
0734:24C1 80FC00              CMP AH, 00
0734:24C4 7407                JE	24CD
0734:24C6 50                  PUSH AL
0734:24C7 B00F                MOV AL, 0F
0734:24C9 E87BF9              CALL 1E44
0734:24CC 58                  POP AX
0734:24CD 0A064F55            OR AL, [554F]
0734:24D1 E873F9              CALL 1E44
0734:24D4 A14755              MOV AX, [5547]
0734:24D7 F606515502          TEST BYTE PTR [5551], 02
0734:24DC 7411                JE	24EF
0734:24DE 50                  PUSH AL
0734:24DF E865F9              CALL 1E44
0734:24E2 58                  POP AX
0734:24E3 F6063C5508          TEST BYTE PTR [553C], 08
0734:24E8 7405                JE	24EF
0734:24EA 8AC4                MOV AL, AH
0734:24EC E858F9              CALL 1E44
0734:24EF 8B3E4555            MOV DI, [5545]
0734:24F3 0BFF                OR DI, DI
0734:24F5 740B                JE	2502
0734:24F7 8A4D03              MOV CL, [DI+03]
0734:24FA B500                MOV CH, 00
0734:24FC 8D7508              LEA SI, [DI+08]
0734:24FF E84AF9              CALL 1E49
0734:2502 8B3E4955            MOV DI, [5549]
0734:2506 0BFF                OR DI, DI
0734:2508 740B                JE	2515
0734:250A A05055              MOV AL, [5550]
0734:250D 98                  CBW
0734:250E 91                  XCHG AX, CX
0734:250F 8D7508              LEA SI, [DI+08]
0734:2512 E837F9              CALL 1E49
0734:2515 8B3E4B55            MOV DI, [554B]
0734:2519 0BFF                OR DI, DI
0734:251B 7409                JE	2526
0734:251D 8D7504              LEA SI, [DI+04]
0734:2520 AC                  LODSB
0734:2521 98                  CBW
0734:2522 91                  XCHG AX, CX
0734:2523 E826F9              CALL 1E49
0734:2526 8916B254            MOV [54B2], DX
0734:252A 803E4D5503          CMP BYTE PTR [554D], 03
0734:252F 7313                JNB	2544
0734:2531 F6063C5525          TEST BYTE PTR [553C], 25
0734:2536 7507                JNE	253F
0734:2538 F606515540          TEST BYTE PTR [5551], 40
0734:253D 7405                JE	2544
0734:253F C6064D5503          MOV BYTE PTR [554D], 03
0734:2544 BF9E4B              MOV DI, 4B9E
0734:2547 8B0E4355            MOV CX, [5543]
0734:254B E82E22              CALL 4779
0734:254E E308                JCXZ	2558
0734:2550 BF6856              MOV DI, 5668
0734:2553 F3A4                REPE                    MOVSW
0734:2555 E87524              CALL 49CA
0734:2558 E916F9              JMP 1E6E
0734:255B E85D02              CALL 27B8
0734:255E EB30                JMP	2590
0734:2560 8A4504              MOV AL, [DI+04]
0734:2563 2407                AND AL, 07
0734:2565 B103                MOV CL, 03
0734:2567 D2E0                SHL AL, CL
0734:2569 08064755            OR [5547], AL
0734:256D EB21                JMP	2590
0734:256F 8A4504              MOV AL, [DI+04]
0734:2572 2407                AND AL, 07
0734:2574 A24F55              MOV [554F], AL
0734:2577 EB17                JMP	2590
0734:2579 893E4955            MOV [5549], DI
0734:257D EB11                JMP	2590
0734:257F F60502              TEST BYTE PTR [DI], 02
0734:2582 7547                JNE	25CB
0734:2584 893E4555            MOV [5545], DI
0734:2588 EB06                JMP	2590
0734:258A F6450407            TEST BYTE PTR [DI+04], 07
0734:258E 753B                JNE	25CB
0734:2590 800E515510          OR BYTE PTR [5551], 10
0734:2595 A05255              MOV AL, [5552]
0734:2598 2C05                SUB AL, 05
0734:259A 7C32                JL	25CE
0734:259C 7440                JE	25DE
0734:259E 04FD                ADD AL, FD
0734:25A0 1403                ADC AL, 03
0734:25A2 800E515518          OR BYTE PTR [5551], 18
0734:25A7 8A5D02              MOV BL, [DI+02]
0734:25AA 0ADB                OR BL, BL
0734:25AC 7409                JE	25B7
0734:25AE 800E515504          OR [5551], 04
0734:25B3 3AC3                CMP AL, BL
0734:25B5 7514                JNE	25CB
0734:25B7 3A065055            CMP AL, [5550]
0734:25BB 740D                JE	25CA
0734:25BD 86065055            XCHG AL, BYTE PTR [5550]
0734:25C1 3C00                CMP AL, 00
0734:25C3 7506                JNE	25CB
0734:25C5 800E515504          OR BYTE PTR [5551], 04
0734:25CA C3                  RET
0734:25CB E9DA01              JMP 27A5
0734:25CE 8A4502              MOV AL, [DI+02]
0734:25D1 3C01                CMP AL, 01
0734:25D3 7424                JE	25F9
0734:25D5 720A                JB	25E1
0734:25D7 800E4F5501          OR [554F], 01
0734:25DC EB03                JMP	25E1
0734:25DE 8A4502              MOV AL, [DI+02]
0734:25E1 3C00                CMP AL, 00
0734:25E3 741C                JE	2601
0734:25E5 3C02                CMP AL, 02
0734:25E7 7507                JNE	25F0
0734:25E9 800E515520          OR [5551], 20
0734:25EE EB09                JMP	25F9
0734:25F0 3C04                CMP AL, 04
0734:25F2 75D7                JNE	25CB
0734:25F4 800E515540          OR [5551], 40
0734:25F9 A25055              MOV [5550], AL
0734:25FC 800E515504          OR [5551], 04
0734:2601 C3                  RET
0734:2602 E8B601              CALL 27B8
0734:2605 8A87FE4B            MOV AL, [BX+4BFE]
0734:2609 EB97                JMP	25A2
0734:260B B002                MOV AL, 02
0734:260D 837D0A00            CMP WORD PTR [DI+0A], +00
0734:2611 7407                JE	261A
0734:2613 800E515540          OR BYTE PTR [5551], 40
0734:2618 B004                MOV AL, 04
0734:261A C6450402            MOV BYTE PTR [DI+04], 02
0734:261E 893E4955            MOV [5549], DI
0734:2622 A25055              MOV [5550], AL
0734:2625 893E4B55            MOV [554B], DI
0734:2629 C3                  RET
0734:262A B009                MOV AL, 09
0734:262C E87E01              CALL 27AA
0734:262F B90200              MOV CX, 0002
0734:2632 A03C55              MOV AL, [553C]
0734:2635 A841                TEST AL, 41
0734:2637 741A                JE	2653
0734:2639 A801                TEST AL, 01
0734:263B 7402                JE	263F
0734:263D 0C04                OR AL, 04
0734:263F 24BE                AND AL, BE
0734:2641 0C80                OR AL, 80
0734:2643 A23C55              MOV [553C], AL
0734:2646 B400                MOV AH, 00
0734:2648 2404                AND AL, 04
0734:264A 0AC4                OR AL, AH
0734:264C 7405                JE	2653
0734:264E 3C44                CMP AL, 44
0734:2650 7401                JE	2653
0734:2652 41                  INC CX
0734:2653 8B1EB254            MOV BX, [54B2]
0734:2657 03D9                ADD BX, CX
0734:2659 8B0EB454            MOV CX, [54B4]
0734:265D 83D100              ADC CX, +00
0734:2660 8B4508              MOV AX, [DI+08]
0734:2663 8B550A              MOV DX, [DI+0A]
0734:2666 2BC3                SUB AX, BX
0734:2668 1BD1                SSB DX, CX
0734:266A 884505              MOV [DI+05], AL
0734:266D B107                MOV CL, 07
0734:266F D2F8                SAR AL, CL
0734:2671 3AC4                CMP AL, AH
0734:2673 755C                JNE	26D1
0734:2675 3BC2                CMP AX, DX
0734:2677 7558                JNE	26D1
0734:2679 C6450401            MOV BYTE PTR [DI+04], 01
0734:267D EBA6                JMP	2625
0734:267F 8B1EB254            MOV BX, [54B2]
0734:2683 B90300              MOV CX, 0003
0734:2686 8B550A              MOV DX, [DI+0A]
0734:2689 8A4502              MOV AL, [DI+02]
0734:268C 813E41550001        CMP WORD PTR [5541], 0100
0734:2692 7201                JB	2695
0734:2694 41                  INC CX
0734:2695 3C00                CMP AL, 00
0734:2697 7408                JE	26A1
0734:2699 3C04                CMP AL, 04
0734:269B 740C                JE	26A9
0734:269D 3C0A                CMP AL, 0A
0734:269F 7530                JNE	26D1
0734:26A1 0BD2                OR DX, DX
0734:26A3 752C                JNE	26D1
0734:26A5 B002                MOV AL, 02
0734:26A7 EB0A                JMP	26B3
0734:26A9 B004                MOV AL, 04
0734:26AB 800E515540          OR [5551], 40
0734:26B0 83C103              ADD CX, +03
0734:26B3 03D9                ADD BX, CX
0734:26B5 8B0EB454            MOV CX, [54B4]
0734:26B9 83D100              ADC CX, +00
0734:26BC 884504              MOV [DI+04], AL
0734:26BF 8B4508              MOV AX, [DI+08]
0734:26C2 2BC3                SUB AX, BX
0734:26C4 1BD1                SSB DX, CX
0734:26C6 894505              MOV [DI+05], AX
0734:26C9 895507              MOV [DI+07], DX
0734:26CC 893E4B55            MOV [554B], DI
0734:26D0 C3                  RET
0734:26D1 E9D400              JMP 27A5
0734:26D4 58                  POP AX
0734:26D5 E9ABFC              JMP 2380
0734:26D8 B01E                MOV AL, 1E
0734:26DA 8A5D05              MOV BL, [DI+05]
0734:26DD EB3D                JMP	271C
0734:26DF B01F                MOV AL, 1F
0734:26E1 EB32                JMP	2715
0734:26E3 8A4505              MOV AL, [DI+05]
0734:26E6 3C04                CMP AL, 04
0734:26E8 77E7                JA	26D1
0734:26EA 7505                JNE	26F1
0734:26EC C6064D5505          MOV BYTE PTR [554D], 05
0734:26F1 3C01                CMP AL, 01
0734:26F3 7506                JNE	26FB
0734:26F5 807D0CFF            CMP BYTE PTR [DI+0C], FF
0734:26F9 75D6                JNE	26D1
0734:26FB B020                MOV AL, 20
0734:26FD EB16                JMP	2715
0734:26FF B021                MOV AL, 21
0734:2701 EB12                JMP	2715
0734:2703 8A4505              MOV AL, [DI+05]
0734:2706 3C03                CMP AL, 03
0734:2708 72C7                JB	26D1
0734:270A 3C06                CMP AL, 06
0734:270C 7305                JNB	2713
0734:270E C6064D5504          MOV BYTE PTR [554D], 04
0734:2713 B022                MOV AL, 22
0734:2715 8A5D05              MOV BL, [DI+05]
0734:2718 B103                MOV CL, 03
0734:271A D2E3                SHL BL, CL
0734:271C 081E4755            OR [5547], BL
0734:2720 800E515502          OR [5551], 02
0734:2725 3A4504              CMP AL, [DI+04]
0734:2728 7413                JE	273D
0734:272A EB7C                JMP	27A8
0734:272C 8A4504              MOV AL, [DI+04]
0734:272F 2C18                SUB AL, 18
0734:2731 3C06                CMP AL, 06
0734:2733 73F5                JNB	272A
0734:2735 B103                MOV CL, 03
0734:2737 D2E0                SHL AL, CL
0734:2739 08064755            OR [5547], AL
0734:273D C3                  RET
0734:273E 80265155EF          AND BYTE PTR [5551], EF
0734:2743 8B4508              MOV AX, [DI+08]
0734:2746 B107                MOV CL, 07
0734:2748 D2F8                SAR AL, CL
0734:274A EB05                JMP	2751
0734:274C 8B4508              MOV AX, [DI+08]
0734:274F B000                MOV AL, 00
0734:2751 3AC4                CMP AL, AH
0734:2753 7553                JNE	27A8
0734:2755 3B450A              CMP AX, [DI+0A]
0734:2758 754E                JNE	27A8
0734:275A B001                MOV AL, 01
0734:275C E84E00              CALL 27AA
0734:275F 8A6508              MOV AH, [DI+08]
0734:2762 894504              MOV [DI+04], AX
0734:2765 893E4B55            MOV [554B], DI
0734:2769 C3                  RET
0734:276A F606515510          TEST BYTE PTR [5551], 10
0734:276F 7407                JE	2778
0734:2771 F606515504          TEST BYTE PTR [5551], 04
0734:2776 7430                JE	27A8
0734:2778 80265155FB          AND BYTE PTR [5551], FB
0734:277D 803C22              CMP BYTE PTR [SI], 22
0734:2780 7405                JE	2787
0734:2782 800E515510          OR BYTE PTR [5551], 10
0734:2787 C606505500          MOV BYTE PTR [5550], 00
0734:278C 58                  POP AX
0734:278D E9F3FB              JMP 2380
0734:2790 817D070101          CMP WORD PTR [DI+07], 0101
0734:2795 EB0F                JMP	27A6
0734:2797 817D070103          CMP WORD PTR [DI+07], 0301
0734:279C EB08                JMP	27A6
0734:279E 8A87C84B            MOV AL, [BX+4BC8]
0734:27A2 98                  CBW
0734:27A3 3B4504              CMP AX, [DI+04]
0734:27A6 7404                JE	27AC
0734:27A8 58                  POP AX
0734:27A9 E971FB              JMP 231A
0734:27AC C3                  RET
0734:27AD 807D0200            CMP BYTE PTR [DI+02], 00
0734:27B1 74F9                JE	27AC
0734:27B3 384502              CMP [DI+02], AL
0734:27B6 74F4                JE	27AC
0734:27B8 58                  POP AX
0734:27B9 EBED                JMP	27A8
0734:27BB F60504              TEST BYTE PTR [DI], 04
0734:27BE 7516                JNE	27D6
0734:27C0 F60502              TEST BYTE PTR [DI], 02
0734:27C3 7405                JE	27CA
0734:27C5 8B4504              MOV AX, [DI+04]
0734:27C8 EB1A                JMP	27E4
0734:27CA B006                MOV AL, 06
0734:27CC F6063C5504          TEST BYTE PTR [553C], 04
0734:27D1 7411                JE	27E4
0734:27D3 48                  DEC AX
0734:27D4 EB0E                JMP	27E4
0734:27D6 8A4504              MOV AL, [DI+04]
0734:27D9 3C1F                CMP AL, 1F
0734:27DB 7503                JNE	27E0
0734:27DD 8A4505              MOV AL, [DI+05]
0734:27E0 2407                AND AL, 07
0734:27E2 0CC0                OR AL, C0
0734:27E4 09064755            OR [5547], AX
0734:27E8 800E515502          OR [5551], 02
0734:27ED 893E4555            MOV [5545], DI
0734:27F1 C3                  RET
0734:27F2 3C2D                CMP AL, 2D
0734:27F4 7411                JE	2807
0734:27F6 50                  PUSH AL
0734:27F7 2C30                SUB AL, 30
0734:27F9 3C0A                CMP AL, 0A
0734:27FB 58                  POP AX
0734:27FC 7208                JB	2806
0734:27FE 50                  PUSH AL
0734:27FF 24DF                AND AL, DF
0734:2801 2C41                SUB AL, 41
0734:2803 3C06                CMP AL, 06
0734:2805 58                  POP AX
0734:2806 F5                  CMC
0734:2807 C3                  RET
0734:2808 3C2D                CMP AL, 2D
0734:280A 740F                JE	281B
0734:280C E83F00              CALL 284B
0734:280F B90100              MOV CX, 0001
0734:2812 0BD2                OR DX, DX
0734:2814 7534                JNE	284A
0734:2816 0AFF                OR BH, BH
0734:2818 7532                JNE	284C
0734:281A C3                  RET
0734:281B AC                  LODSB
0734:281C E82F00              CALL 284B
0734:281F 8BCB                MOV CX, BX
0734:2821 0BCA                OR CX, DX
0734:2823 B90100              MOV CX, 0001
0734:2826 7421                JE	2849
0734:2828 F7D2                NOT DX
0734:282A F7DB                NEG BX
0734:282C F5                  CMC
0734:282D 83D200              ADC DX, +00
0734:2830 F6C680              TEST DH, 80
0734:2833 743A                JE	286F
0734:2835 83FAFF              CMP DX, -01
0734:2838 7510                JNE	284A
0734:283A F6C780              TEST BH, 80
0734:283D 740B                JE	284A
0734:283F 80FFFF              CMP BH, FF
0734:2842 7508                JNE	284C
0734:2844 F6C380              TEST BL, 80
0734:2847 7403                JE	284C
0734:2849 C3                  RET
0734:284A 41                  INC CX
0734:284B 41                  INC CX
0734:284C 41                  INC CX
0734:284D C3                  RET
0734:284E 33DB                XOR BX, BX
0734:2850 33D2                XOR DX, DX
0734:2852 E86616              CALL 3EB8
0734:2855 7218                JB	286F
0734:2857 0AD8                OR BL, AL
0734:2859 AC                  LODSB
0734:285A E85E16              CALL 3EB8
0734:285D 72EA                JB	2849
0734:285F F6C6F0              TEST DH, F0
0734:2862 750B                JNE	286F
0734:2864 B90400              MOV CX, 0004
0734:2867 D1E3                SHL BX, 1
0734:2869 D1D2                RCL DX, 1
0734:286B E2FA                LOOP	2867
0734:286D EBE8                JMP	2857
0734:286F E90E11              JMP 397D
0734:2872 80F901              CMP CL, 01
0734:2875 7517                JNE	288E
0734:2877 80FB01              CMP BL, 01
0734:287A 7415                JE	2891
0734:287C 42                  INC DX
0734:287D 80FB02              CMP BL, 02
0734:2880 740F                JE	2891
0734:2882 42                  INC DX
0734:2883 80FB04              CMP BL, 04
0734:2886 7409                JE	2891
0734:2888 42                  INC DX
0734:2889 80FB08              CMP BL, 08
0734:288C 7403                JE	2891
0734:288E E9EF10              JMP 397D
0734:2891 885506              MOV [DI+06], DL
0734:2894 C3                  RET
0734:2895 8B04                MOV AX, [SI]
0734:2897 25DFDF              AND AX, DFDF
0734:289A 3C45                CMP AL, 45
0734:289C 7522                JNE	28C0
0734:289E 50                  PUSH AL
0734:289F 8AC4                MOV AL, AH
0734:28A1 8A6402              MOV AH, [SI+02]
0734:28A4 80E4DF              AND AH, DF
0734:28A7 57                  PUSH DI
0734:28A8 BFB54C              MOV DI, 4CB5
0734:28AB 51                  PUSH CX
0734:28AC B90800              MOV CX, 0008
0734:28AF F2AF                REPNE                    SCASB
0734:28B1 8BD9                MOV BX, CX
0734:28B3 59                  POP CX
0734:28B4 5F                  POP DI
0734:28B5 58                  POP AX
0734:28B6 7508                JNE	28C0
0734:28B8 46                  INC SI
0734:28B9 F7D3                NOT BX
0734:28BB 80C318              ADD BL, 18
0734:28BE EB11                JMP	28D1
0734:28C0 8BD9                MOV BX, CX
0734:28C2 F2AF                REPNE                    SCASB
0734:28C4 750F                JNE	28D5
0734:28C6 2BD9                SUB BX, CX
0734:28C8 4B                  DEC BX
0734:28C9 80FB10              CMP BL, 10
0734:28CC 7203                JB	28D1
0734:28CE 80C308              ADD BL, 08
0734:28D1 46                  INC SI
0734:28D2 46                  INC SI
0734:28D3 F8                  CLC
0734:28D4 C3                  RET
0734:28D5 F9                  STC
0734:28D6 C3                  RET
0734:28D7 E8C113              CALL 3C98
0734:28DA 41                  INC CX
0734:28DB 1E                  PUSH DS
0734:28DC 06                  PUSH ES
0734:28DD 16                  PUSH SS
0734:28DE 1F                  POP DS
0734:28DF E86112              CALL 3B40
0734:28E2 07                  POP ES
0734:28E3 1F                  POP DS
0734:28E4 F3A6                REPE                    CMPSW
0734:28E6 9F                  LAHF
0734:28E7 8A54FF              MOV DL, [SI-FF]
0734:28EA 268A75FF            MOV DH, ES: [DI-FF]
0734:28EE 1E                  PUSH DS
0734:28EF 06                  PUSH ES
0734:28F0 16                  PUSH SS
0734:28F1 1F                  POP DS
0734:28F2 E85912              CALL 3B4B
0734:28F5 07                  POP ES
0734:28F6 1F                  POP DS
0734:28F7 9E                  SAHF
0734:28F8 7502                JNE	28FC
0734:28FA EB4A                JMP	2946
0734:28FC 51                  PUSH CX
0734:28FD 06                  PUSH ES
0734:28FE 16                  PUSH SS
0734:28FF 07                  POP ES
0734:2900 8BDF                MOV BX, DI
0734:2902 BF6856              MOV DI, 5668
0734:2905 8CD8                MOV AL, DS
0734:2907 E88D20              CALL 4994
0734:290A B03A                MOV AL, 3A
0734:290C AA                  STOSB
0734:290D 8D44FF              LEA AX, [SI-FF]
0734:2910 E88420              CALL 4994
0734:2913 B82020              MOV AX, 2020
0734:2916 AB                  STOSW
0734:2917 8AC2                MOV AL, DL
0734:2919 E88220              CALL 499B
0734:291C B82020              MOV AX, 2020
0734:291F AB                  STOSW
0734:2920 8AC6                MOV AL, DH
0734:2922 E87920              CALL 499B
0734:2925 B82020              MOV AX, 2020
0734:2928 AB                  STOSW
0734:2929 58                  POP AX
0734:292A 50                  PUSH AL
0734:292B E86920              CALL 4994
0734:292E B03A                MOV AL, 3A
0734:2930 AA                  STOSB
0734:2931 8D47FF              LEA AX, [BX-FF]
0734:2934 E86020              CALL 4994
0734:2937 1E                  PUSH DS
0734:2938 16                  PUSH SS
0734:2939 1F                  POP DS
0734:293A 53                  PUSH BX
0734:293B E88F20              CALL 49CA
0734:293E 5F                  POP DI
0734:293F 1F                  POP DS
0734:2940 07                  POP ES
0734:2941 59                  POP CX
0734:2942 E302                JCXZ	2946
0734:2944 EB95                JMP	28DB
0734:2946 16                  PUSH SS
0734:2947 1F                  POP DS
0734:2948 16                  PUSH SS
0734:2949 07                  POP ES
0734:294A C3                  RET
0734:294B B85053              MOV AX, 5350
0734:294E AB                  STOSW
0734:294F B8503A              MOV AX, 3A50
0734:2952 AB                  STOSW
0734:2953 A17C54              MOV AX, [547C]
0734:2956 E83E20              CALL 4994
0734:2959 E87120              CALL 49CA
0734:295C 8B369654            MOV SI, [5496]
0734:2960 BF6856              MOV DI, 5668
0734:2963 1E                  PUSH DS
0734:2964 E86300              CALL 29C7
0734:2967 8A2E0000            MOV CH, [0000]
0734:296B 8B1E0100            MOV BX, [0001]
0734:296F 8B160300            MOV DX, [0003]
0734:2973 8BC6                MOV AX, SI
0734:2975 E81F20              CALL 4994
0734:2978 B020                MOV AL, 20
0734:297A AA                  STOSB
0734:297B 8AC5                MOV AL, CH
0734:297D E81E20              CALL 499B
0734:2980 B020                MOV AL, 20
0734:2982 AA                  STOSB
0734:2983 8BC3                MOV AX, BX
0734:2985 E80F20              CALL 4994
0734:2988 B020                MOV AL, 20
0734:298A AA                  STOSB
0734:298B 8BC2                MOV AX, DX
0734:298D E80720              CALL 4994
0734:2990 B020                MOV AL, 20
0734:2992 AA                  STOSB
0734:2993 23DB                AND BX, BX
0734:2995 741D                JE	29B4
0734:2997 56                  PUSH DH
0734:2998 51                  PUSH CX
0734:2999 52                  PUSH DL
0734:299A BE0800              MOV SI, 0008
0734:299D B90200              MOV CX, 0002
0734:29A0 3BDE                CMP BX, SI
0734:29A2 7407                JE	29AB
0734:29A4 4B                  DEC BX
0734:29A5 E82400              CALL 29C9
0734:29A8 B90800              MOV CX, 0008
0734:29AB AC                  LODSB
0734:29AC AA                  STOSB
0734:29AD 22C0                AND AL, AL
0734:29AF E0FA                LOOPNE	29AB
0734:29B1 5A                  POP DX
0734:29B2 59                  POP CX
0734:29B3 5E                  POP SI
0734:29B4 1F                  POP DS
0734:29B5 03F2                ADD SI, DX
0734:29B7 7210                JB	29C9
0734:29B9 46                  INC SI
0734:29BA 51                  PUSH CX
0734:29BB E80F20              CALL 49CA
0734:29BE 59                  POP CX
0734:29BF 80FD5A              CMP CH, 5A
0734:29C2 749C                JE	2960
0734:29C4 80FD4D              CMP CH, 4D
0734:29C7 7497                JE	2960
0734:29C9 C3                  RET
0734:29CA 8BDE                MOV BX, SI
0734:29CC 8EDB                MOV DS, BL
0734:29CE C3                  RET
0734:29CF 3C0D                CMP AL, 0D
0734:29D1 7514                JNE	29E7
0734:29D3 8B1EBC54            MOV BX, [54BC]
0734:29D7 8B16B854            MOV DX, [54B8]
0734:29DB 8BF2                MOV SI, DX
0734:29DD 83C27F              ADD DX, +7F
0734:29E0 7323                JNB	2A05
0734:29E2 BAFFFF              MOV DX, FFFF
0734:29E5 EB1E                JMP	2A05
0734:29E7 3C6D                CMP AL, 6D
0734:29E9 7503                JNE	29EE
0734:29EB E95DFF              JMP 2948
0734:29EE B98000              MOV CX, 0080
0734:29F1 8B1E2455            MOV BX, [5524]
0734:29F5 E8A713              CALL 3D9C
0734:29F8 E8DA14              CALL 3ED2
0734:29FB 891EBC54            MOV [54BC], BX
0734:29FF 8BF2                MOV SI, DX
0734:2A01 8BD1                MOV DX, CX
0734:2A03 EB00                JMP	2A05
0734:2A05 C706CC54310D        MOV WORD PTR [54CC], 0D31
0734:2A0B A1BC54              MOV AX, [54BC]
0734:2A0E E8861F              CALL 4994
0734:2A11 B03A                MOV AL, 3A
0734:2A13 AA                  STOSB
0734:2A14 8BC6                MOV AX, SI
0734:2A16 24F0                AND AL, F0
0734:2A18 50                  PUSH AL
0734:2A19 E87B1F              CALL 4994
0734:2A1C B82020              MOV AX, 2020
0734:2A1F AB                  STOSW
0734:2A20 58                  POP AX
0734:2A21 8D5D30              LEA BX, [DI+30]
0734:2A24 E8F110              CALL 3B15
0734:2A27 3BC6                CMP AX, SI
0734:2A29 740E                JE	2A39
0734:2A2B 50                  PUSH AL
0734:2A2C B82020              MOV AX, 2020
0734:2A2F AB                  STOSW
0734:2A30 AA                  STOSB
0734:2A31 268807              MOV ES: [BX], AL
0734:2A34 43                  INC BX
0734:2A35 58                  POP AX
0734:2A36 40                  INC AX
0734:2A37 EBEE                JMP	2A27
0734:2A39 8BCE                MOV CX, SI
0734:2A3B 80C90F              OR CL, 0F
0734:2A3E 3BCA                CMP CX, DX
0734:2A40 7202                JB	2A44
0734:2A42 8BCA                MOV CX, DX
0734:2A44 2BCE                SUB CX, SI
0734:2A46 41                  INC CX
0734:2A47 E8F910              CALL 3B40
0734:2A4A 8E1EBC54            MOV DS, WORD PTR [54BC]
0734:2A4E AC                  LODSB
0734:2A4F 50                  PUSH AL
0734:2A50 E84B1F              CALL 499B
0734:2A53 B020                MOV AL, 20
0734:2A55 AA                  STOSB
0734:2A56 58                  POP AX
0734:2A57 3C20                CMP AL, 20
0734:2A59 7204                JB	2A5F
0734:2A5B 3C7E                CMP AL, 7E
0734:2A5D 7602                JBE	2A61
0734:2A5F B02E                MOV AL, 2E
0734:2A61 268807              MOV ES: [BX], AL
0734:2A64 43                  INC BX
0734:2A65 E2E7                LOOP	2A4E
0734:2A67 F7C60F00            TEST SI, 000F
0734:2A6B 7408                JE	2A75
0734:2A6D B82020              MOV AX, 2020
0734:2A70 AB                  STOSW
0734:2A71 AA                  STOSB
0734:2A72 46                  INC SI
0734:2A73 EBF2                JMP	2A67
0734:2A75 16                  PUSH SS
0734:2A76 1F                  POP DS
0734:2A77 8936B854            MOV [54B8], SI
0734:2A7B C645E72D            MOV BYTE PTR [DI-E7], 2D
0734:2A7F E8CC10              CALL 3B4B
0734:2A82 8BFB                MOV DI, BX
0734:2A84 52                  PUSH DL
0734:2A85 E8451F              CALL 49CA
0734:2A88 5A                  POP DX
0734:2A89 4E                  DEC SI
0734:2A8A 3BF2                CMP SI, DX
0734:2A8C 730B                JNB	2A99
0734:2A8E 46                  INC SI
0734:2A8F BF6856              MOV DI, 5668
0734:2A92 8B1EBC54            MOV BX, [54BC]
0734:2A96 E96CFF              JMP 2A02
0734:2A99 42                  INC DX
0734:2A9A 8916B854            MOV [54B8], DX
0734:2A9E C3                  RET
0734:2A9F E9DE0E              JMP 397D
0734:2AA2 E87310              CALL 3B15
0734:2AA5 8B1E2455            MOV BX, [5524]
0734:2AA9 E83613              CALL 3DDF
0734:2AAC E83214              CALL 3EDE
0734:2AAF 3C0D                CMP AL, 0D
0734:2AB1 742A                JE	2ADD
0734:2AB3 52                  PUSH DL
0734:2AB4 E84413              CALL 3DF8
0734:2AB7 8BCF                MOV CX, DI
0734:2AB9 BA6856              MOV DX, 5668
0734:2ABC 2BCA                SUB CX, DX
0734:2ABE 5F                  POP DI
0734:2ABF 8BC1                MOV AX, CX
0734:2AC1 48                  DEC AX
0734:2AC2 03C7                ADD AX, DI
0734:2AC4 72D9                JB	2A9F
0734:2AC6 E87A10              CALL 3B40
0734:2AC9 8BF2                MOV SI, DX
0734:2ACB 8EC3                MOV ES, BL
0734:2ACD F3A4                REPE                    MOVSW
0734:2ACF 16                  PUSH SS
0734:2AD0 1F                  POP DS
0734:2AD1 16                  PUSH SS
0734:2AD2 07                  POP ES
0734:2AD3 BF8054              MOV DI, 5480
0734:2AD6 E85A10              CALL 3B30
0734:2AD9 E87210              CALL 3B4B
0734:2ADC C3                  RET
0734:2ADD 8BC3                MOV AX, BX
0734:2ADF E8B51E              CALL 4994
0734:2AE2 B03A                MOV AL, 3A
0734:2AE4 AA                  STOSB
0734:2AE5 BDF52C              MOV BP, 2CF5
0734:2AE8 8BC2                MOV AX, DX
0734:2AEA FFD5                CALL BP
0734:2AEC B82020              MOV AX, 2020
0734:2AEF AB                  STOSW
0734:2AF0 E85010              CALL 3B40
0734:2AF3 53                  PUSH BX
0734:2AF4 E86A06              CALL 315E
0734:2AF7 5B                  POP BX
0734:2AF8 E85310              CALL 3B4B
0734:2AFB E8A01E              CALL 499B
0734:2AFE B02E                MOV AL, 2E
0734:2B00 AA                  STOSB
0734:2B01 53                  PUSH BX
0734:2B02 52                  PUSH DL
0734:2B03 E8CB1E              CALL 49CE
0734:2B06 5A                  POP DX
0734:2B07 5B                  POP BX
0734:2B08 BE7856              MOV SI, 5678
0734:2B0B 33C9                XOR CX, CX
0734:2B0D 803EA75400          CMP BYTE PTR [54A7], 00
0734:2B12 7433                JE	2B47
0734:2B14 56                  PUSH DH
0734:2B15 BF6855              MOV DI, 5568
0734:2B18 8B36AE54            MOV SI, [54AE]
0734:2B1C 3B36B054            CMP SI, [54B0]
0734:2B20 7207                JB	2B29
0734:2B22 E84B11              CALL 3C6D
0734:2B25 B00D                MOV AL, 0D
0734:2B27 7217                JB	2B40
0734:2B29 803EA7540D          CMP BYTE PTR [54A7], 0D
0734:2B2E 750C                JNE	2B3C
0734:2B30 803C0A              CMP BYTE PTR [SI], 0A
0734:2B33 7507                JNE	2B3C
0734:2B35 46                  INC SI
0734:2B36 FE06A754            INC BYTE PTR [54A7]
0734:2B3A EBE0                JMP	2B1C
0734:2B3C AC                  LODSB
0734:2B3D A2A754              MOV [54A7], AL
0734:2B40 8936AE54            MOV [54AE], SI
0734:2B44 5E                  POP SI
0734:2B45 EB04                JMP	2B4B
0734:2B47 B408                MOV AH, 08
0734:2B49 CD21                INT 21
0734:2B4B 3C20                CMP AL, 20
0734:2B4D 7433                JE	2B82
0734:2B4F 3C0D                CMP AL, 0D
0734:2B51 742F                JE	2B82
0734:2B53 3C08                CMP AL, 08
0734:2B55 741D                JE	2B74
0734:2B57 3C2D                CMP AL, 2D
0734:2B59 7410                JE	2B6B
0734:2B5B 83F902              CMP CX, +02
0734:2B5E 73AD                JNB	2B0D
0734:2B60 8804                MOV [SI], AL
0734:2B62 E85613              CALL 3EB8
0734:2B65 72A6                JB	2B0D
0734:2B67 41                  INC CX
0734:2B68 AC                  LODSB
0734:2B69 EB12                JMP	2B7D
0734:2B6B E80610              CALL 3B71
0734:2B6E 4A                  DEC DX
0734:2B6F BF6856              MOV DI, 5668
0734:2B72 EB46                JMP	2BBA
0734:2B74 E397                JCXZ	2B0D
0734:2B76 49                  DEC CX
0734:2B77 4E                  DEC SI
0734:2B78 E80A10              CALL 3B82
0734:2B7B EB90                JMP	2B0D
0734:2B7D E8F40F              CALL 3B71
0734:2B80 EB8B                JMP	2B0D
0734:2B82 E31D                JCXZ	2BA1
0734:2B84 8804                MOV [SI], AL
0734:2B86 2BF1                SUB SI, CX
0734:2B88 51                  PUSH CX
0734:2B89 52                  PUSH DL
0734:2B8A AC                  LODSB
0734:2B8B E82513              CALL 3EB0
0734:2B8E 8AC2                MOV AL, DL
0734:2B90 5A                  POP DX
0734:2B91 59                  POP CX
0734:2B92 E8AE0F              CALL 3B40
0734:2B95 E8B605              CALL 314B
0734:2B98 BF8054              MOV DI, 5480
0734:2B9B E8950F              CALL 3B30
0734:2B9E E8AD0F              CALL 3B4B
0734:2BA1 42                  INC DX
0734:2BA2 BF6856              MOV DI, 5668
0734:2BA5 3C0D                CMP AL, 0D
0734:2BA7 7418                JE	2BC1
0734:2BA9 F6C207              TEST DL, 07
0734:2BAC 740C                JE	2BBA
0734:2BAE F7D1                NOT CX
0734:2BB0 83C104              ADD CX, +04
0734:2BB3 B020                MOV AL, 20
0734:2BB5 F3AA                REPE                    STOSW
0734:2BB7 E932FF              JMP 2AE9
0734:2BBA B80D0A              MOV AX, 0A0D
0734:2BBD AB                  STOSW
0734:2BBE E91CFF              JMP 2ADA
0734:2BC1 E9091E              JMP 49CA
0734:2BC4 33C9                XOR CX, CX
0734:2BC6 8B1E2455            MOV BX, [5524]
0734:2BCA E8D811              CALL 3DA2
0734:2BCD 2BCA                SUB CX, DX
0734:2BCF 41                  INC CX
0734:2BD0 51                  PUSH CX
0734:2BD1 52                  PUSH DL
0734:2BD2 E80C13              CALL 3EDE
0734:2BD5 E82312              CALL 3DF8
0734:2BD8 8BCF                MOV CX, DI
0734:2BDA 81E96856            SUB CX, 5668
0734:2BDE 5F                  POP DI
0734:2BDF 8EC3                MOV ES, BL
0734:2BE1 83F901              CMP CX, +01
0734:2BE4 7424                JE	2C0A
0734:2BE6 58                  POP AX
0734:2BE7 33D2                XOR DX, DX
0734:2BE9 83F801              CMP AX, +01
0734:2BEC 83D200              ADC DX, +00
0734:2BEF F7F1                DIV CX
0734:2BF1 0BC0                OR AX, AX
0734:2BF3 740A                JE	2BFF
0734:2BF5 BE6856              MOV SI, 5668
0734:2BF8 51                  PUSH CX
0734:2BF9 F3A4                REPE                    MOVSW
0734:2BFB 59                  POP CX
0734:2BFC 48                  DEC AX
0734:2BFD 75F6                JNE	2BF5
0734:2BFF 8BCA                MOV CX, DX
0734:2C01 E30F                JCXZ	2C12
0734:2C03 BE6856              MOV SI, 5668
0734:2C06 F3A4                REPE                    MOVSW
0734:2C08 EB08                JMP	2C12
0734:2C0A 59                  POP CX
0734:2C0B A06856              MOV AL, [5668]
0734:2C0E AA                  STOSB
0734:2C0F 49                  DEC CX
0734:2C10 F3AA                REPE                    STOSW
0734:2C12 16                  PUSH SS
0734:2C13 07                  POP ES
0734:2C14 C3                  RET
0734:2C15 BF8F0F              MOV DI, 0F8F
0734:2C18 BE6856              MOV SI, 5668
0734:2C1B AD                  LODSW
0734:2C1C 91                  XCHG AX, CX
0734:2C1D E309                JCXZ	2C28
0734:2C1F AD                  LODSW
0734:2C20 92                  XCHG AX, DX
0734:2C21 AD                  LODSW
0734:2C22 93                  XCHG AX, BX
0734:2C23 FFD7                CALL DI
0734:2C25 46                  INC SI
0734:2C26 E2F5                LOOP	2C1D
0734:2C28 C3                  RET
0734:2C29 B0CC                MOV AL, CC
0734:2C2B E82005              CALL 314B
0734:2C2E 8824                MOV [SI], AH
0734:2C30 C3                  RET
0734:2C31 8A04                MOV AL, [SI]
0734:2C33 3CCC                CMP AL, CC
0734:2C35 7403                JE	2C3A
0734:2C37 E81405              CALL 314B
0734:2C3A C3                  RET
0734:2C3B 93                  XCHG AX, BX
0734:2C3C A12A55              MOV AX, [552A]
0734:2C3F A3C854              MOV [54C8], AX
0734:2C42 93                  XCHG AX, BX
0734:2C43 E80E11              CALL 3D51
0734:2C46 BF6856              MOV DI, 5668
0734:2C49 33C0                XOR AX, AX
0734:2C4B AB                  STOSW
0734:2C4C 4E                  DEC SI
0734:2C4D E89012              CALL 3EDD
0734:2C50 3C0D                CMP AL, 0D
0734:2C52 7412                JE	2C66
0734:2C54 8B1EC854            MOV BX, [54C8]
0734:2C58 E88711              CALL 3DDF
0734:2C5B 92                  XCHG AX, DX
0734:2C5C AB                  STOSW
0734:2C5D 93                  XCHG AX, BX
0734:2C5E AB                  STOSW
0734:2C5F 47                  INC DI
0734:2C60 FE066856            INC [5668]
0734:2C64 EBE6                JMP	2C4C
0734:2C66 BF870F              MOV DI, 0F87
0734:2C69 E8ACFF              CALL 2C15
0734:2C6C E8660D              CALL 39D2
0734:2C6F B9FFFF              MOV CX, FFFF
0734:2C72 E8B704              CALL 3129
0734:2C75 50                  PUSH AL
0734:2C76 E89CFF              CALL 2C12
0734:2C79 58                  POP AX
0734:2C7A 3CCC                CMP AL, CC
0734:2C7C 751A                JNE	2C98
0734:2C7E 813ECA54B333        CMP WORD PTR [54CA], 33B3
0734:2C84 7512                JNE	2C98
0734:2C86 B9FFFF              MOV CX, FFFF
0734:2C89 E8A004              CALL 3129
0734:2C8C 3CCC                CMP AL, CC
0734:2C8E 7408                JE	2C98
0734:2C90 891E3455            MOV [5534], BX
0734:2C94 E8441B              CALL 47D8
0734:2C97 C3                  RET
0734:2C98 E9F208              JMP 358A
0734:2C9B E8DF11              CALL 3E7A
0734:2C9E 53                  PUSH BX
0734:2C9F 52                  PUSH DL
0734:2CA0 E83E12              CALL 3EDE
0734:2CA3 E8D711              CALL 3E7A
0734:2CA6 E82C12              CALL 3ED2
0734:2CA9 59                  POP CX
0734:2CAA 58                  POP AX
0734:2CAB 8BF0                MOV SI, AX
0734:2CAD 8BE9                MOV BP, CX
0734:2CAF 8BC1                MOV AX, CX
0734:2CB1 03C2                ADD AX, DX
0734:2CB3 50                  PUSH AL
0734:2CB4 8BC6                MOV AX, SI
0734:2CB6 13C3                ADC AX, BX
0734:2CB8 7403                JE	2CBD
0734:2CBA E8DA1C              CALL 4994
0734:2CBD 58                  POP AX
0734:2CBE E8D61C              CALL 4994
0734:2CC1 B82020              MOV AX, 2020
0734:2CC4 AB                  STOSW
0734:2CC5 8BC5                MOV AX, BP
0734:2CC7 2BC2                SUB AX, DX
0734:2CC9 50                  PUSH AL
0734:2CCA 8BC6                MOV AX, SI
0734:2CCC 1BC3                SSB AX, BX
0734:2CCE 7407                JE	2CD7
0734:2CD0 0BF3                OR SI, BX
0734:2CD2 7403                JE	2CD7
0734:2CD4 E8C01C              CALL 4994
0734:2CD7 58                  POP AX
0734:2CD8 E8BC1C              CALL 4994
0734:2CDB E8EF1C              CALL 49CA
0734:2CDE C3                  RET
0734:2CDF B300                MOV BL, 00
0734:2CE1 8AE0                MOV AH, AL
0734:2CE3 80E4DF              AND AH, DF
0734:2CE6 80FC57              CMP AH, 57
0734:2CE9 7418                JE	2D03
0734:2CEB 803EA15403          CMP BYTE PTR [54A1], 03
0734:2CF0 7215                JB	2D07
0734:2CF2 80FC44              CMP AH, 44
0734:2CF5 7510                JNE	2D07
0734:2CF7 8A64FE              MOV AH, [SI-FE]
0734:2CFA 80E4DF              AND AH, DF
0734:2CFD 80FC49              CMP AH, 49
0734:2D00 7505                JNE	2D07
0734:2D02 43                  INC BX
0734:2D03 43                  INC BX
0734:2D04 E8FB11              CALL 3EFF
0734:2D07 E89F11              CALL 3EA6
0734:2D0A E8C811              CALL 3ED2
0734:2D0D 80FB01              CMP BL, 01
0734:2D10 740B                JE	2D1D
0734:2D12 80FB02              CMP BL, 02
0734:2D15 740C                JE	2D23
0734:2D17 EC                  IN AL, DX
0734:2D18 E8831C              CALL 499B
0734:2D1B EB0B                JMP	2D28
0734:2D1D ED                  IN AX, DX
0734:2D1E E8761C              CALL 4994
0734:2D21 EB05                JMP	2D28
0734:2D23 66                  DB 66
0734:2D24 ED                  IN AX, DX
0734:2D25 E8661C              CALL 498B
0734:2D28 E8A21C              CALL 49CA
0734:2D2B C3                  RET
0734:2D2C 8CCB                MOV BL, SS
0734:2D2E B450                MOV AH, 50
0734:2D30 1E                  PUSH DS
0734:2D31 56                  PUSH DH
0734:2D32 C5369C54            LDS SI, [549C]
0734:2D36 895C10              MOV [SI+10], BX
0734:2D39 5E                  POP SI
0734:2D3A 1F                  POP DS
0734:2D3B C3                  RET
0734:2D3C B451                MOV AH, 51
0734:2D3E 1E                  PUSH DS
0734:2D3F 56                  PUSH DH
0734:2D40 C5369C54            LDS SI, [549C]
0734:2D44 8B5C10              MOV BX, [SI+10]
0734:2D47 5E                  POP SI
0734:2D48 1F                  POP DS
0734:2D49 C3                  RET
0734:2D4A CD21                INT 21
0734:2D4C C3                  RET
0734:2D4D A17C54              MOV AX, [547C]
0734:2D50 3B067E54            CMP AX, [547E]
0734:2D54 C3                  RET
0734:2D55 50                  PUSH AL
0734:2D56 E8F4FF              CALL 2D4A
0734:2D59 750F                JNE	2D6A
0734:2D5B 53                  PUSH BX
0734:2D5C 52                  PUSH DL
0734:2D5D E8971C              CALL 49F4
0734:2D60 8B362A55            MOV SI, [552A]
0734:2D64 8B3E3455            MOV DI, [5534]
0734:2D68 5A                  POP DX
0734:2D69 5B                  POP BX
0734:2D6A 58                  POP AX
0734:2D6B C3                  RET
0734:2D6C E85B0F              CALL 3CC7
0734:2D6F 741E                JE	2D8F
0734:2D71 2E803ED15402        CMP BYTE PTR CS: [54D1], 02
0734:2D77 720E                JB	2D87
0734:2D79 8AD0                MOV DL, AL
0734:2D7B 33F6                XOR SI, SI
0734:2D7D FEC2                INC DL
0734:2D7F B80573              MOV AX, 7305
0734:2D82 F9                  STC
0734:2D83 CD21                INT 21
0734:2D85 EB02                JMP	2D89
0734:2D87 CD25                INT 25
0734:2D89 BABE32              MOV DX, 32BE
0734:2D8C E9B108              JMP 363D
0734:2D8F F606D05406          TEST BYTE PTR [54D0], 06
0734:2D94 740F                JE	2DA5
0734:2D96 3B1E2A55            CMP BX, [552A]
0734:2D9A 7506                JNE	2DA2
0734:2D9C 81FA0001            CMP DX, 0100
0734:2DA0 7403                JE	2DA5
0734:2DA2 E9DB0B              JMP 397D
0734:2DA5 8BF3                MOV SI, BX
0734:2DA7 8BFA                MOV DI, DX
0734:2DA9 B8003D              MOV AX, 3D00
0734:2DAC BA8000              MOV DX, 0080
0734:2DAF E898FF              CALL 2D47
0734:2DB2 7303                JNB	2DB7
0734:2DB4 E97409              JMP 3728
0734:2DB7 93                  XCHG AX, BX
0734:2DB8 B80242              MOV AX, 4202
0734:2DBB 33C9                XOR CX, CX
0734:2DBD 33D2                XOR DX, DX
0734:2DBF CD21                INT 21
0734:2DC1 F606D05406          TEST BYTE PTR [54D0], 06
0734:2DC6 757E                JNE	2E46
0734:2DC8 E88AFF              CALL 2D52
0734:2DCB 8E067C54            MOV ES, WORD PTR [547C]
0734:2DCF 56                  PUSH DH
0734:2DD0 53                  PUSH BX
0734:2DD1 263B360200          CMP SI, ES: [0002]
0734:2DD6 9C                  PUSHF
0734:2DD7 F7DE                NEG SI
0734:2DD9 9D                  POPF
0734:2DDA 7305                JNB	2DE1
0734:2DDC 2603360200          ADD SI, ES: [0002]
0734:2DE1 B90400              MOV CX, 0004
0734:2DE4 33DB                XOR BX, BX
0734:2DE6 D1E6                SHL SI, 1
0734:2DE8 D1D3                RCL BX, 1
0734:2DEA E2FA                LOOP	2DE6
0734:2DEC 2BF7                SUB SI, DI
0734:2DEE 1BD9                SSB BX, CX
0734:2DF0 7208                JB	2DFA
0734:2DF2 3BDA                CMP BX, DX
0734:2DF4 7502                JNE	2DF8
0734:2DF6 3BF0                CMP SI, AX
0734:2DF8 730A                JNB	2E04
0734:2DFA 5B                  POP BX
0734:2DFB 5E                  POP SI
0734:2DFC BAC634              MOV DX, 34C6
0734:2DFF E85209              CALL 3751
0734:2E02 EB2E                JMP	2E32
0734:2E04 5B                  POP BX
0734:2E05 5E                  POP SI
0734:2E06 89161455            MOV [5514], DX
0734:2E0A A31C55              MOV [551C], AX
0734:2E0D B80042              MOV AX, 4200
0734:2E10 33C9                XOR CX, CX
0734:2E12 33D2                XOR DX, DX
0734:2E14 CD21                INT 21
0734:2E16 BA0F00              MOV DX, 000F
0734:2E19 23D7                AND DX, DI
0734:2E1B B104                MOV CL, 04
0734:2E1D D3EF                SHR DI, CL
0734:2E1F 03F7                ADD SI, DI
0734:2E21 B43F                MOV AH, 3F
0734:2E23 B900FE              MOV CX, FE00
0734:2E26 8EDE                MOV DS, DH
0734:2E28 CD21                INT 21
0734:2E2A 81C6E00F            ADD SI, 0FE0
0734:2E2E 3BC1                CMP AX, CX
0734:2E30 74EF                JE	2E21
0734:2E32 B43E                MOV AH, 3E
0734:2E34 CD21                INT 21
0734:2E36 16                  PUSH SS
0734:2E37 1F                  POP DS
0734:2E38 C3                  RET
0734:2E39 66                  DB 66
0734:2E3A 9C                  PUSHF
0734:2E3B 66                  DB 66
0734:2E3C 8F063855            POP [5538]
0734:2E40 66                  DB 66
0734:2E41 89263055            MOV [5530], SP
0734:2E45 C3                  RET
0734:2E46 50                  PUSH AL
0734:2E47 B43E                MOV AH, 3E
0734:2E49 CD21                INT 21
0734:2E4B 5B                  POP BX
0734:2E4C F606D05404          TEST BYTE PTR [54D0], 04
0734:2E51 7407                JE	2E5A
0734:2E53 81EB0002            SUB BX, 0200
0734:2E57 83DA00              SSB DX, +00
0734:2E5A 53                  PUSH BX
0734:2E5B 52                  PUSH DL
0734:2E5C E8EEFE              CALL 2D4A
0734:2E5F 7403                JE	2E64
0734:2E61 E8430B              CALL 39A4
0734:2E64 BF0455              MOV DI, 5504
0734:2E67 B91C00              MOV CX, 001C
0734:2E6A 33C0                XOR AX, AX
0734:2E6C F3AB                REPE                    STOSW
0734:2E6E 8F061455            POP [5514]
0734:2E72 8F061C55            POP [551C]
0734:2E76 BE0E00              MOV SI, 000E
0734:2E79 BF8054              MOV DI, 5480
0734:2E7C A5                  MOVSW
0734:2E7D A5                  MOVSW
0734:2E7E A5                  MOVSW
0734:2E7F A5                  MOVSW
0734:2E80 B8014B              MOV AX, 4B01
0734:2E83 BA8000              MOV DX, 0080
0734:2E86 BBEC54              MOV BX, 54EC
0734:2E89 CD21                INT 21
0734:2E8B 7303                JNB	2E90
0734:2E8D E99B08              JMP 3728
0734:2E90 E8A6FF              CALL 2E36
0734:2E93 8BC4                MOV AX, SP
0734:2E95 2B062E00            SUB AX, [002E]
0734:2E99 3D8000              CMP AX, 0080
0734:2E9C 7203                JB	2EA1
0734:2E9E B88000              MOV AX, 0080
0734:2EA1 A37A54              MOV [547A], AX
0734:2EA4 C436FA54            LES SI, [54FA]
0734:2EA8 26                  SEG ES (unused)
0734:2EA9 AD                  LODSW
0734:2EAA A32055              MOV [5520], AX
0734:2EAD 89363055            MOV [5530], SI
0734:2EB1 8C062855            MOV WORD PTR [5528], ES
0734:2EB5 C436FE54            LES SI, [54FE]
0734:2EB9 89363455            MOV [5534], SI
0734:2EBD 8C062A55            MOV WORD PTR [552A], ES
0734:2EC1 C606CF5400          MOV BYTE PTR [54CF], 00
0734:2EC6 16                  PUSH SS
0734:2EC7 07                  POP ES
0734:2EC8 F8                  CLC
0734:2EC9 E870FE              CALL 2D39
0734:2ECC 93                  XCHG AX, BX
0734:2ECD A37C54              MOV [547C], AX
0734:2ED0 BF2455              MOV DI, 5524
0734:2ED3 AB                  STOSW
0734:2ED4 AB                  STOSW
0734:2ED5 E854FE              CALL 2D29
0734:2ED8 B82225              MOV AX, 2522
0734:2EDB BA9F1D              MOV DX, 1D9F
0734:2EDE CD21                INT 21
0734:2EE0 8E1E7C54            MOV DS, WORD PTR [547C]
0734:2EE4 89160A00            MOV [000A], DX
0734:2EE8 8C0E0C00            MOV WORD PTR [000C], SS
0734:2EEC 16                  PUSH SS
0734:2EED 1F                  POP DS
0734:2EEE BFB254              MOV DI, 54B2
0734:2EF1 BE3455              MOV SI, 5534
0734:2EF4 57                  PUSH DI
0734:2EF5 A5                  MOVSW
0734:2EF6 A5                  MOVSW
0734:2EF7 A12A55              MOV AX, [552A]
0734:2EFA AB                  STOSW
0734:2EFB 5E                  POP SI
0734:2EFC B90600              MOV CX, 0006
0734:2EFF F3A5                REPE                    MOVSW
0734:2F01 C3                  RET
0734:2F02 3C0D                CMP AL, 0D
0734:2F04 7458                JE	2F5E
0734:2F06 8A64FE              MOV AH, [SI-FE]
0734:2F09 80CC20              OR AH, 20
0734:2F0C 80FC6D              CMP AH, 6D
0734:2F0F 744D                JE	2F5E
0734:2F11 56                  PUSH DH
0734:2F12 E8680F              CALL 3E7A
0734:2F15 3C0D                CMP AL, 0D
0734:2F17 7403                JE	2F1C
0734:2F19 E8E60F              CALL 3EFF
0734:2F1C 5E                  POP SI
0734:2F1D 3C0D                CMP AL, 0D
0734:2F1F 743D                JE	2F5E
0734:2F21 4E                  DEC SI
0734:2F22 AC                  LODSB
0734:2F23 E8750D              CALL 3C98
0734:2F26 51                  PUSH CX
0734:2F27 B104                MOV CL, 04
0734:2F29 D3EA                SHR DX, CL
0734:2F2B 03D3                ADD DX, BX
0734:2F2D 8BC6                MOV AX, SI
0734:2F2F D3E8                SHR AX, CL
0734:2F31 8CDB                MOV BL, DS
0734:2F33 03C3                ADD AX, BX
0734:2F35 3BC2                CMP AX, DX
0734:2F37 750B                JNE	2F44
0734:2F39 8BC6                MOV AX, SI
0734:2F3B 240F                AND AL, 0F
0734:2F3D 8BDF                MOV BX, DI
0734:2F3F 80E30F              AND BL, 0F
0734:2F42 3AC3                CMP AL, BL
0734:2F44 59                  POP CX
0734:2F45 9F                  LAHF
0734:2F46 1E                  PUSH DS
0734:2F47 06                  PUSH ES
0734:2F48 16                  PUSH SS
0734:2F49 1F                  POP DS
0734:2F4A E8F60B              CALL 3B40
0734:2F4D 07                  POP ES
0734:2F4E 1F                  POP DS
0734:2F4F 9E                  SAHF
0734:2F50 7305                JNB	2F57
0734:2F52 03F1                ADD SI, CX
0734:2F54 03F9                ADD DI, CX
0734:2F56 FD                  STD
0734:2F57 F3A4                REPE                    MOVSW
0734:2F59 A4                  MOVSB
0734:2F5A FC                  CLD
0734:2F5B E971FB              JMP 2ACC
0734:2F5E 0C20                OR AL, 20
0734:2F60 3C63                CMP AL, 63
0734:2F62 7457                JE	2FBB
0734:2F64 4E                  DEC SI
0734:2F65 E89A0F              CALL 3EFF
0734:2F68 3C0D                CMP AL, 0D
0734:2F6A 7419                JE	2F85
0734:2F6C E8440F              CALL 3EB0
0734:2F6F 8AC2                MOV AL, DL
0734:2F71 3C06                CMP AL, 06
0734:2F73 7743                JA	2FB8
0734:2F75 A2A154              MOV [54A1], AL
0734:2F78 A2A654              MOV [54A6], AL
0734:2F7B 3C03                CMP AL, 03
0734:2F7D 7305                JNB	2F84
0734:2F7F 8026A254FE          AND BYTE PTR [54A2], FE
0734:2F84 C3                  RET
0734:2F85 BED532              MOV SI, 32D5
0734:2F88 A0A154              MOV AL, [54A1]
0734:2F8B 3C00                CMP AL, 00
0734:2F8D 7407                JE	2F96
0734:2F8F BEDD32              MOV SI, 32DD
0734:2F92 0430                ADD AL, 30
0734:2F94 8804                MOV [SI], AL
0734:2F96 E8ED19              CALL 4983
0734:2F99 BEE132              MOV SI, 32E1
0734:2F9C 803EA45400          CMP BYTE PTR [54A4], 00
0734:2FA1 740F                JE	2FB2
0734:2FA3 BEF632              MOV SI, 32F6
0734:2FA6 A0A654              MOV AL, [54A6]
0734:2FA9 3A06A154            CMP AL, [54A1]
0734:2FAD 7403                JE	2FB2
0734:2FAF BE0833              MOV SI, 3308
0734:2FB2 E8D119              CALL 4983
0734:2FB5 E9151A              JMP 49CA
0734:2FB8 E9C509              JMP 397D
0734:2FBB E8440F              CALL 3EFF
0734:2FBE 8A26A154            MOV AH, [54A1]
0734:2FC2 3C0D                CMP AL, 0D
0734:2FC4 741F                JE	2FE5
0734:2FC6 0C20                OR AL, 20
0734:2FC8 50                  PUSH AL
0734:2FC9 AC                  LODSB
0734:2FCA E8080F              CALL 3ED2
0734:2FCD 58                  POP AX
0734:2FCE 3C6E                CMP AL, 6E
0734:2FD0 7506                JNE	2FD8
0734:2FD2 C606A45400          MOV BYTE PTR [54A4], 00
0734:2FD7 C3                  RET
0734:2FD8 3C32                CMP AL, 32
0734:2FDA 75DC                JNE	2FB8
0734:2FDC 803EA15403          CMP BYTE PTR [54A1], 03
0734:2FE1 75D5                JNE	2FB8
0734:2FE3 B402                MOV AH, 02
0734:2FE5 C606A45401          MOV BYTE PTR [54A4], 01
0734:2FEA 8826A654            MOV [54A6], AH
0734:2FEE C3                  RET
0734:2FEF BF8000              MOV DI, 0080
0734:2FF2 3C0D                CMP AL, 0D
0734:2FF4 7419                JE	300F
0734:2FF6 E8130F              CALL 3F09
0734:2FF9 7414                JE	300F
0734:2FFB 3A06AA54            CMP AL, [54AA]
0734:2FFF 740E                JE	300F
0734:3001 3C61                CMP AL, 61
0734:3003 7206                JB	300B
0734:3005 3C7A                CMP AL, 7A
0734:3007 7702                JA	300B
0734:3009 24DF                AND AL, DF
0734:300B AA                  STOSB
0734:300C AC                  LODSB
0734:300D EBE3                JMP	2FF2
0734:300F B000                MOV AL, 00
0734:3011 AA                  STOSB
0734:3012 893EEE54            MOV [54EE], DI
0734:3016 57                  PUSH DI
0734:3017 56                  PUSH DH
0734:3018 81FF8100            CMP DI, 0081
0734:301C 7424                JE	3042
0734:301E 81FF8500            CMP DI, 0085
0734:3022 721C                JB	3040
0734:3024 8D55FB              LEA DX, [DI-FB]
0734:3027 BB5E4C              MOV BX, 4C5E
0734:302A B90300              MOV CX, 0003
0734:302D 51                  PUSH CX
0734:302E 8BF3                MOV SI, BX
0734:3030 8BFA                MOV DI, DX
0734:3032 83C305              ADD BX, +05
0734:3035 B104                MOV CL, 04
0734:3037 F3A6                REPE                    CMPSW
0734:3039 8A04                MOV AL, [SI]
0734:303B 59                  POP CX
0734:303C 7404                JE	3042
0734:303E E2ED                LOOP	302D
0734:3040 B001                MOV AL, 01
0734:3042 A2D054              MOV [54D0], AL
0734:3045 5E                  POP SI
0734:3046 BF6856              MOV DI, 5668
0734:3049 57                  PUSH DI
0734:304A 4E                  DEC SI
0734:304B AC                  LODSB
0734:304C AA                  STOSB
0734:304D 3C0D                CMP AL, 0D
0734:304F 75FA                JNE	304B
0734:3051 5E                  POP SI
0734:3052 BF5C00              MOV DI, 005C
0734:3055 E82000              CALL 3075
0734:3058 A22055              MOV [5520], AL
0734:305B BF6C00              MOV DI, 006C
0734:305E E81700              CALL 3075
0734:3061 A22155              MOV [5521], AL
0734:3064 BE6856              MOV SI, 5668
0734:3067 5F                  POP DI
0734:3068 57                  PUSH DI
0734:3069 47                  INC DI
0734:306A AC                  LODSB
0734:306B AA                  STOSB
0734:306C 3C0D                CMP AL, 0D
0734:306E 75FA                JNE	306A
0734:3070 58                  POP AX
0734:3071 97                  XCHG AX, DI
0734:3072 2BC7                SUB AX, DI
0734:3074 48                  DEC AX
0734:3075 48                  DEC AX
0734:3076 AA                  STOSB
0734:3077 C3                  RET
0734:3078 AC                  LODSB
0734:3079 3C0D                CMP AL, 0D
0734:307B 740B                JE	3088
0734:307D E88C0E              CALL 3F09
0734:3080 74F6                JE	3078
0734:3082 3A06A954            CMP AL, [54A9]
0734:3086 7420                JE	30A8
0734:3088 4E                  DEC SI
0734:3089 B80129              MOV AX, 2901
0734:308C E8BBFC              CALL 2D47
0734:308F 50                  PUSH AL
0734:3090 AC                  LODSB
0734:3091 3C0D                CMP AL, 0D
0734:3093 740B                JE	30A0
0734:3095 E8740E              CALL 3F09
0734:3098 7406                JE	30A0
0734:309A 3A06AA54            CMP AL, [54AA]
0734:309E 75F0                JNE	3090
0734:30A0 4E                  DEC SI
0734:30A1 58                  POP AX
0734:30A2 3C01                CMP AL, 01
0734:30A4 7501                JNE	30A7
0734:30A6 48                  DEC AX
0734:30A7 C3                  RET
0734:30A8 AC                  LODSB
0734:30A9 3C0D                CMP AL, 0D
0734:30AB 74DB                JE	3088
0734:30AD E85C0E              CALL 3F09
0734:30B0 74F6                JE	30A8
0734:30B2 B000                MOV AL, 00
0734:30B4 AA                  STOSB
0734:30B5 4E                  DEC SI
0734:30B6 AC                  LODSB
0734:30B7 3C61                CMP AL, 61
0734:30B9 7206                JB	30C1
0734:30BB 3C7A                CMP AL, 7A
0734:30BD 7702                JA	30C1
0734:30BF 24DF                AND AL, DF
0734:30C1 AA                  STOSB
0734:30C2 B82020              MOV AX, 2020
0734:30C5 AB                  STOSW
0734:30C6 AB                  STOSW
0734:30C7 AB                  STOSW
0734:30C8 AB                  STOSW
0734:30C9 AB                  STOSW
0734:30CA 33C0                XOR AX, AX
0734:30CC AB                  STOSW
0734:30CD AB                  STOSW
0734:30CE AB                  STOSW
0734:30CF AB                  STOSW
0734:30D0 C3                  RET
0734:30D1 B300                MOV BL, 00
0734:30D3 8AE0                MOV AH, AL
0734:30D5 80E4DF              AND AH, DF
0734:30D8 80FC57              CMP AH, 57
0734:30DB 7418                JE	30F5
0734:30DD 803EA15403          CMP BYTE PTR [54A1], 03
0734:30E2 7215                JB	30F9
0734:30E4 80FC44              CMP AH, 44
0734:30E7 7510                JNE	30F9
0734:30E9 8A64FE              MOV AH, [SI-FE]
0734:30EC 80E4DF              AND AH, DF
0734:30EF 80FC4F              CMP AH, 4F
0734:30F2 7505                JNE	30F9
0734:30F4 43                  INC BX
0734:30F5 43                  INC BX
0734:30F6 E8090E              CALL 3EFF
0734:30F9 E8AD0D              CALL 3EA6
0734:30FC 52                  PUSH DL
0734:30FD E8E10D              CALL 3EDE
0734:3100 80FB01              CMP BL, 01
0734:3103 740F                JE	3114
0734:3105 80FB02              CMP BL, 02
0734:3108 7414                JE	311E
0734:310A E8A60D              CALL 3EB0
0734:310D E8C50D              CALL 3ED2
0734:3110 92                  XCHG AX, DX
0734:3111 5A                  POP DX
0734:3112 EE                  OUT DX, AL
0734:3113 C3                  RET
0734:3114 E8920D              CALL 3EA6
0734:3117 E8BB0D              CALL 3ED2
0734:311A 92                  XCHG AX, DX
0734:311B 5A                  POP DX
0734:311C EF                  OUT DX, AX
0734:311D C3                  RET
0734:311E E85C0D              CALL 3E7A
0734:3121 E8B10D              CALL 3ED2
0734:3124 53                  PUSH BX
0734:3125 52                  PUSH DL
0734:3126 66                  DB 66
0734:3127 58                  POP AX
0734:3128 5A                  POP DX
0734:3129 66                  DB 66
0734:312A EF                  OUT DX, AX
0734:312B C3                  RET
0734:312C 06                  PUSH ES
0734:312D 8E062A55            MOV ES, WORD PTR [552A]
0734:3131 8B1E3455            MOV BX, [5534]
0734:3135 03D9                ADD BX, CX
0734:3137 268A07              MOV AL, ES: [BX]
0734:313A 07                  POP ES
0734:313B C3                  RET
0734:313C 06                  PUSH ES
0734:313D 8B1E2A55            MOV BX, [552A]
0734:3141 8EC3                MOV ES, BL
0734:3143 8B1E3455            MOV BX, [5534]
0734:3147 03D9                ADD BX, CX
0734:3149 268807              MOV ES: [BX], AL
0734:314C 07                  POP ES
0734:314D C3                  RET
0734:314E 1E                  PUSH DS
0734:314F 8EDB                MOV DS, BL
0734:3151 53                  PUSH BX
0734:3152 8BDA                MOV BX, DX
0734:3154 8A27                MOV AH, [BX]
0734:3156 8807                MOV [BX], AL
0734:3158 3A07                CMP AL, [BX]
0734:315A 5B                  POP BX
0734:315B 1F                  POP DS
0734:315C 7501                JNE	315F
0734:315E C3                  RET
0734:315F F9                  STC
0734:3160 C3                  RET
0734:3161 1E                  PUSH DS
0734:3162 8EDB                MOV DS, BL
0734:3164 8BDA                MOV BX, DX
0734:3166 8A07                MOV AL, [BX]
0734:3168 1F                  POP DS
0734:3169 C3                  RET
0734:316A B9FFFF              MOV CX, FFFF
0734:316D E8BCFF              CALL 3129
0734:3170 3CCC                CMP AL, CC
0734:3172 7407                JE	317B
0734:3174 BAB333              MOV DX, 33B3
0734:3177 891E3455            MOV [5534], BX
0734:317B C3                  RET
0734:317C E8BD0B              CALL 3D39
0734:317F 51                  PUSH CX
0734:3180 BA0F00              MOV DX, 000F
0734:3183 8B363455            MOV SI, [5534]
0734:3187 E8E000              CALL 3267
0734:318A BF982E              MOV DI, 2E98
0734:318D B91F00              MOV CX, 001F
0734:3190 F2AE                REPNE                    SCASB
0734:3192 7521                JNE	31B5
0734:3194 8A451E              MOV AL, [DI+1E]
0734:3197 A880                TEST AL, 80
0734:3199 7409                JE	31A4
0734:319B 32F0                XOR DH, AL
0734:319D FECA                DEC DL
0734:319F 75E6                JNE	3187
0734:31A1 E9A600              JMP 3247
0734:31A4 A840                TEST AL, 40
0734:31A6 7407                JE	31AF
0734:31A8 243F                AND AL, 3F
0734:31AA 80E602              AND DH, 02
0734:31AD 02C6                ADD AL, DH
0734:31AF 98                  CBW
0734:31B0 E8B400              CALL 3264
0734:31B3 EB4D                JMP	3202
0734:31B5 3CFF                CMP AL, FF
0734:31B7 7403                JE	31BC
0734:31B9 E98E00              JMP 3247
0734:31BC E8AB00              CALL 3267
0734:31BF 24F7                AND AL, F7
0734:31C1 3410                XOR AL, 10
0734:31C3 A838                TEST AL, 38
0734:31C5 7403                JE	31CA
0734:31C7 E98000              JMP 3247
0734:31CA 3CC0                CMP AL, C0
0734:31CC 7334                JNB	3202
0734:31CE F6C601              TEST DH, 01
0734:31D1 750E                JNE	31E1
0734:31D3 3C06                CMP AL, 06
0734:31D5 7425                JE	31FC
0734:31D7 3C40                CMP AL, 40
0734:31D9 7227                JB	3202
0734:31DB 3C80                CMP AL, 80
0734:31DD 7220                JB	31FF
0734:31DF EB1B                JMP	31FC
0734:31E1 3C05                CMP AL, 05
0734:31E3 7411                JE	31F6
0734:31E5 3404                XOR AL, 04
0734:31E7 A807                TEST AL, 07
0734:31E9 7503                JNE	31EE
0734:31EB E87700              CALL 3262
0734:31EE 3C40                CMP AL, 40
0734:31F0 7210                JB	3202
0734:31F2 3C80                CMP AL, 80
0734:31F4 7209                JB	31FF
0734:31F6 E86C00              CALL 3262
0734:31F9 E86900              CALL 3262
0734:31FC E86600              CALL 3262
0734:31FF E86300              CALL 3262
0734:3202 8B1E2A55            MOV BX, [552A]
0734:3206 EB07                JMP	320F
0734:3208 E974FF              JMP 317C
0734:320B B90100              MOV CX, 0001
0734:320E 51                  PUSH CX
0734:320F BF6856              MOV DI, 5668
0734:3212 8BD6                MOV DX, SI
0734:3214 B0CC                MOV AL, CC
0734:3216 E835FF              CALL 314B
0734:3219 8AC4                MOV AL, AH
0734:321B 730C                JNB	3229
0734:321D BED533              MOV SI, 33D5
0734:3220 E86317              CALL 4983
0734:3223 E8A717              CALL 49CA
0734:3226 E983EB              JMP 1DA9
0734:3229 50                  PUSH AL
0734:322A B80100              MOV AX, 0001
0734:322D AB                  STOSW
0734:322E 96                  XCHG AX, SI
0734:322F AB                  STOSW
0734:3230 8BC3                MOV AX, BX
0734:3232 AB                  STOSW
0734:3233 58                  POP AX
0734:3234 AA                  STOSB
0734:3235 E89D07              CALL 39D2
0734:3238 E8DAF9              CALL 2C12
0734:323B 33D2                XOR DX, DX
0734:323D 813ECA54B333        CMP WORD PTR [54CA], 33B3
0734:3243 7510                JNE	3255
0734:3245 E822FF              CALL 3167
0734:3248 EB0B                JMP	3255
0734:324A 800E395501          OR BYTE PTR [5539], 01
0734:324F E88307              CALL 39D2
0734:3252 BA9033              MOV DX, 3390
0734:3255 3916CA54            CMP [54CA], DX
0734:3259 7507                JNE	3262
0734:325B E87D15              CALL 47D8
0734:325E 59                  POP CX
0734:325F E2A7                LOOP	3208
0734:3261 C3                  RET
0734:3262 E92803              JMP 358A
0734:3265 46                  INC SI
0734:3266 C3                  RET
0734:3267 03F0                ADD SI, AX
0734:3269 C3                  RET
0734:326A 1E                  PUSH DS
0734:326B 8E1E2A55            MOV DS, WORD PTR [552A]
0734:326F AC                  LODSB
0734:3270 1F                  POP DS
0734:3271 C3                  RET
0734:3272 E83207              CALL 39A4
0734:3275 BFDC54              MOV DI, 54DC
0734:3278 BE1C2E              MOV SI, 2E1C
0734:327B B90400              MOV CX, 0004
0734:327E AC                  LODSB
0734:327F 8AD8                MOV BL, AL
0734:3281 83C602              ADD SI, +02
0734:3284 87F7                XCHG AX, DI
0734:3286 AD                  LODSW
0734:3287 8BD0                MOV DX, AX
0734:3289 AD                  LODSW
0734:328A 87F7                XCHG DX, DI
0734:328C 80FB22              CMP BL, 22
0734:328F 740E                JE	329F
0734:3291 23C0                AND AX, AX
0734:3293 740A                JE	329F
0734:3295 1E                  PUSH DS
0734:3296 8ED8                MOV DS, AL
0734:3298 8AC3                MOV AL, BL
0734:329A B425                MOV AH, 25
0734:329C CD21                INT 21
0734:329E 1F                  POP DS
0734:329F E2DD                LOOP	327E
0734:32A1 BE9054              MOV SI, 5490
0734:32A4 BF0A00              MOV DI, 000A
0734:32A7 A5                  MOVSW
0734:32A8 A5                  MOVSW
0734:32A9 BF1600              MOV DI, 0016
0734:32AC A5                  MOVSW
0734:32AD CD20                INT 20
0734:32AF E9FAEA              JMP 1DA9
0734:32B2 E84D0C              CALL 3EFF
0734:32B5 3C0D                CMP AL, 0D
0734:32B7 7403                JE	32BC
0734:32B9 E93001              JMP 33E9
0734:32BC 803EA15403          CMP BYTE PTR [54A1], 03
0734:32C1 721A                JB	32DD
0734:32C3 BE1233              MOV SI, 3312
0734:32C6 E8BD16              CALL 4983
0734:32C9 8036A25401          XOR BYTE PTR [54A2], 01
0734:32CE B86E20              MOV AX, 206E
0734:32D1 7503                JNE	32D6
0734:32D3 B86666              MOV AX, 6666
0734:32D6 AB                  STOSW
0734:32D7 B000                MOV AL, 00
0734:32D9 AA                  STOSB
0734:32DA E8F016              CALL 49CA
0734:32DD C3                  RET
0734:32DE E8210C              CALL 3EFF
0734:32E1 3C0D                CMP AL, 0D
0734:32E3 7403                JE	32E8
0734:32E5 E90401              JMP 33E9
0734:32E8 803EA45400          CMP BYTE PTR [54A4], 00
0734:32ED 7403                JE	32F2
0734:32EF E88215              CALL 4871
0734:32F2 C3                  RET
0734:32F3 3C0D                CMP AL, 0D
0734:32F5 7503                JNE	32FA
0734:32F7 E9E114              JMP 47D8
0734:32FA 24DF                AND AL, DF
0734:32FC 3C58                CMP AL, 58
0734:32FE 74B2                JE	32B2
0734:3300 3C4E                CMP AL, 4E
0734:3302 74DA                JE	32DE
0734:3304 4E                  DEC SI
0734:3305 AD                  LODSW
0734:3306 25DFDF              AND AX, DFDF
0734:3309 BF282E              MOV DI, 2E28
0734:330C B91000              MOV CX, 0010
0734:330F F2AF                REPNE                    SCASB
0734:3311 8BDF                MOV BX, DI
0734:3313 BF6856              MOV DI, 5668
0734:3316 752A                JNE	3342
0734:3318 803C20              CMP BYTE PTR [SI], 20
0734:331B 7725                JA	3342
0734:331D AB                  STOSW
0734:331E B020                MOV AL, 20
0734:3320 AA                  STOSB
0734:3321 8B5F1E              MOV BX, [BX+1E]
0734:3324 E8B90B              CALL 3EDD
0734:3327 3C0D                CMP AL, 0D
0734:3329 750E                JNE	3339
0734:332B 53                  PUSH BX
0734:332C 8B07                MOV AX, [BX]
0734:332E E86616              CALL 4994
0734:3331 E85F08              CALL 3B90
0734:3334 5B                  POP BX
0734:3335 3C0D                CMP AL, 0D
0734:3337 7408                JE	3341
0734:3339 E86D0B              CALL 3EA6
0734:333C E8960B              CALL 3ED2
0734:333F 8917                MOV [BX], DX
0734:3341 C3                  RET
0734:3342 3C46                CMP AL, 46
0734:3344 7552                JNE	3398
0734:3346 4E                  DEC SI
0734:3347 AC                  LODSB
0734:3348 3C0D                CMP AL, 0D
0734:334A 7416                JE	3362
0734:334C 3C20                CMP AL, 20
0734:334E 740B                JE	335B
0734:3350 3C09                CMP AL, 09
0734:3352 7407                JE	335B
0734:3354 3C2C                CMP AL, 2C
0734:3356 7403                JE	335B
0734:3358 E99200              JMP 33EA
0734:335B E8830B              CALL 3EDE
0734:335E 3C0D                CMP AL, 0D
0734:3360 7506                JNE	3368
0734:3362 E80716              CALL 4969
0734:3365 E82B08              CALL 3B90
0734:3368 3C0D                CMP AL, 0D
0734:336A 74D5                JE	3341
0734:336C 4E                  DEC SI
0734:336D AD                  LODSW
0734:336E 25DFDF              AND AX, DFDF
0734:3371 BF782E              MOV DI, 2E78
0734:3374 B91000              MOV CX, 0010
0734:3377 F2AF                REPNE                    SCASB
0734:3379 751D                JNE	3398
0734:337B 81FF882E            CMP DI, 2E88
0734:337F 770B                JA	338C
0734:3381 8B45EE              MOV AX, [DI-EE]
0734:3384 F7D0                NOT AX
0734:3386 21063855            AND [5538], AX
0734:338A EB07                JMP	3393
0734:338C 8B45DE              MOV AX, [DI-DE]
0734:338F 09063855            OR [5538], AX
0734:3393 E84A0B              CALL 3EDD
0734:3396 EBD0                JMP	3368
0734:3398 803EA15403          CMP BYTE PTR [54A1], 03
0734:339D 724D                JB	33EC
0734:339F 3C45                CMP AL, 45
0734:33A1 7549                JNE	33EC
0734:33A3 AC                  LODSB
0734:33A4 24DF                AND AL, DF
0734:33A6 3C53                CMP AL, 53
0734:33A8 7442                JE	33EC
0734:33AA 86C4                XCHG BH, AH
0734:33AC B91000              MOV CX, 0010
0734:33AF BF282E              MOV DI, 2E28
0734:33B2 F2AF                REPNE                    SCASB
0734:33B4 7536                JNE	33EC
0734:33B6 8BDF                MOV BX, DI
0734:33B8 BF6856              MOV DI, 5668
0734:33BB C60545              MOV BYTE PTR [DI], 45
0734:33BE 47                  INC DI
0734:33BF AB                  STOSW
0734:33C0 B020                MOV AL, 20
0734:33C2 AA                  STOSB
0734:33C3 8B5F1E              MOV BX, [BX+1E]
0734:33C6 E8170B              CALL 3EDD
0734:33C9 3C0D                CMP AL, 0D
0734:33CB 750F                JNE	33DC
0734:33CD 53                  PUSH BX
0734:33CE 66                  DB 66
0734:33CF 8B07                MOV AX, [BX]
0734:33D1 E8BA15              CALL 498B
0734:33D4 E8BC07              CALL 3B90
0734:33D7 5B                  POP BX
0734:33D8 3C0D                CMP AL, 0D
0734:33DA 740F                JE	33EB
0734:33DC 53                  PUSH BX
0734:33DD E89D0A              CALL 3E7A
0734:33E0 8BCB                MOV CX, BX
0734:33E2 5B                  POP BX
0734:33E3 E8EF0A              CALL 3ED2
0734:33E6 8917                MOV [BX], DX
0734:33E8 894F02              MOV [BX+02], CX
0734:33EB C3                  RET
0734:33EC 4E                  DEC SI
0734:33ED E99005              JMP 397D
0734:33F0 8B1E2455            MOV BX, [5524]
0734:33F4 33C9                XOR CX, CX
0734:33F6 E8A609              CALL 3D9C
0734:33F9 E8E50A              CALL 3EDE
0734:33FC 51                  PUSH CX
0734:33FD 52                  PUSH DL
0734:33FE E8FA09              CALL 3DF8
0734:3401 5A                  POP DX
0734:3402 59                  POP CX
0734:3403 2BCA                SUB CX, DX
0734:3405 81EF6856            SUB DI, 5668
0734:3409 4F                  DEC DI
0734:340A 2BCF                SUB CX, DI
0734:340C 72DF                JB	33ED
0734:340E E80707              CALL 3B15
0734:3411 87D7                XCHG CX, DI
0734:3413 E82D07              CALL 3B40
0734:3416 8EC3                MOV ES, BL
0734:3418 BE6856              MOV SI, 5668
0734:341B AC                  LODSB
0734:341C F2AE                REPNE                    SCASB
0734:341E 7403                JE	3423
0734:3420 AE                  SCASB
0734:3421 7536                JNE	3459
0734:3423 51                  PUSH CX
0734:3424 57                  PUSH DI
0734:3425 8BCA                MOV CX, DX
0734:3427 F3A6                REPE                    CMPSW
0734:3429 5F                  POP DI
0734:342A 7529                JNE	3455
0734:342C E81F07              CALL 3B4B
0734:342F 52                  PUSH DL
0734:3430 87F7                XCHG CX, DI
0734:3432 8BC3                MOV AX, BX
0734:3434 E86015              CALL 4994
0734:3437 B03A                MOV AL, 3A
0734:3439 AA                  STOSB
0734:343A 8D44FF              LEA AX, [SI-FF]
0734:343D E85715              CALL 4994
0734:3440 B80D0A              MOV AX, 0A0D
0734:3443 AB                  STOSW
0734:3444 B90B00              MOV CX, 000B
0734:3447 8D55F5              LEA DX, [DI-F5]
0734:344A 53                  PUSH BX
0734:344B E88A15              CALL 49D5
0734:344E 5B                  POP BX
0734:344F 5A                  POP DX
0734:3450 8BFE                MOV DI, SI
0734:3452 E8EE06              CALL 3B40
0734:3455 59                  POP CX
0734:3456 41                  INC CX
0734:3457 E2BD                LOOP	3416
0734:3459 E9F206              JMP 3B4B
0734:345C E8810A              CALL 3EDD
0734:345F 3C0D                CMP AL, 0D
0734:3461 7412                JE	3475
0734:3463 E8430A              CALL 3EA6
0734:3466 83FA01              CMP DX, +01
0734:3469 7603                JBE	346E
0734:346B E91205              JMP 397D
0734:346E E8640A              CALL 3ED2
0734:3471 8816A354            MOV [54A3], DL
0734:3475 BE1D33              MOV SI, 331D
0734:3478 E80B15              CALL 4983
0734:347B A0A354              MOV AL, [54A3]
0734:347E A801                TEST AL, 01
0734:3480 9C                  PUSHF
0734:3481 0430                ADD AL, 30
0734:3483 AA                  STOSB
0734:3484 BE2C33              MOV SI, 332C
0734:3487 E8FC14              CALL 4983
0734:348A BE4033              MOV SI, 3340
0734:348D 9D                  POPF
0734:348E 7403                JE	3493
0734:3490 BE3933              MOV SI, 3339
0734:3493 E8F014              CALL 4983
0734:3496 E83415              CALL 49CA
0734:3499 C3                  RET
0734:349A 8AE0                MOV AH, AL
0734:349C 80E4DF              AND AH, DF
0734:349F 80FC4D              CMP AH, 4D
0734:34A2 74B8                JE	345C
0734:34A4 C706CC540218        MOV WORD PTR [54CC], 1802
0734:34AA E88F08              CALL 3D39
0734:34AD 51                  PUSH CX
0734:34AE E80400              CALL 34B2
0734:34B1 59                  POP CX
0734:34B2 E2F9                LOOP	34AD
0734:34B4 C3                  RET
0734:34B5 33C9                XOR CX, CX
0734:34B7 E872FC              CALL 3129
0734:34BA 3CCD                CMP AL, CD
0734:34BC 7513                JNE	34D1
0734:34BE 41                  INC CX
0734:34BF E86AFC              CALL 3129
0734:34C2 3C03                CMP AL, 03
0734:34C4 740B                JE	34D1
0734:34C6 F606A35401          TEST BYTE PTR [54A3], 01
0734:34CB 7429                JE	34F6
0734:34CD 3C01                CMP AL, 01
0734:34CF 753C                JNE	350D
0734:34D1 800E395501          OR BYTE PTR [5539], 01
0734:34D6 33C9                XOR CX, CX
0734:34D8 E851FC              CALL 3129
0734:34DB 50                  PUSH AL
0734:34DC E8F604              CALL 39D2
0734:34DF 58                  POP AX
0734:34E0 3C9C                CMP AL, 9C
0734:34E2 7503                JNE	34E7
0734:34E4 E89600              CALL 357A
0734:34E7 813ECA549033        CMP WORD PTR [54CA], 3390
0734:34ED 7403                JE	34F2
0734:34EF E99B00              JMP 358A
0734:34F2 E8E612              CALL 47D8
0734:34F5 C3                  RET
0734:34F6 B90200              MOV CX, 0002
0734:34F9 E86500              CALL 355E
0734:34FC 72D3                JB	34D1
0734:34FE 8B1E2A55            MOV BX, [552A]
0734:3502 8B363455            MOV SI, [5534]
0734:3506 83C602              ADD SI, +02
0734:3509 E8FFFC              CALL 3208
0734:350C C3                  RET
0734:350D 8AD8                MOV BL, AL
0734:350F B700                MOV BH, 00
0734:3511 1E                  PUSH DS
0734:3512 33C0                XOR AX, AX
0734:3514 8ED8                MOV DS, AL
0734:3516 D1E3                SHL BX, 1
0734:3518 D1E3                SHL BX, 1
0734:351A FA                  CLI
0734:351B C537                LDS SI, [BX]
0734:351D 8A04                MOV AL, [SI]
0734:351F 8034FF              XOR [SI], FF
0734:3522 3A04                CMP AL, [SI]
0734:3524 8804                MOV [SI], AL
0734:3526 FB                  STI
0734:3527 7407                JE	3530
0734:3529 8CDB                MOV BL, DS
0734:352B 1F                  POP DS
0734:352C E8DCFC              CALL 3208
0734:352F C3                  RET
0734:3530 8CD8                MOV AL, DS
0734:3532 1F                  POP DS
0734:3533 87363455            XCHG BX, WORD PTR [5534]
0734:3537 87062A55            XCHG SI, WORD PTR [552A]
0734:353B 8B0E3855            MOV CX, [5538]
0734:353F 1E                  PUSH DS
0734:3540 8B1E3055            MOV BX, [5530]
0734:3544 8E1E2855            MOV DS, WORD PTR [5528]
0734:3548 83EB06              SUB BX, +06
0734:354B 46                  INC SI
0734:354C 46                  INC SI
0734:354D 8937                MOV [BX], SI
0734:354F 894702              MOV [BX+02], AX
0734:3552 894F04              MOV [BX+04], CX
0734:3555 1F                  POP DS
0734:3556 891E3055            MOV [5530], BX
0734:355A 80263955FC          AND BYTE PTR [5539], FC
0734:355F EB91                JMP	34F2
0734:3561 E8C8FB              CALL 3129
0734:3564 8AE0                MOV AH, AL
0734:3566 34FF                XOR AL, FF
0734:3568 E8D1FB              CALL 3139
0734:356B 720E                JB	357B
0734:356D E8BCFB              CALL 3129
0734:3570 3AE0                CMP AH, AL
0734:3572 7407                JE	357B
0734:3574 8AC4                MOV AL, AH
0734:3576 E8C3FB              CALL 3139
0734:3579 F8                  CLC
0734:357A C3                  RET
0734:357B F9                  STC
0734:357C C3                  RET
0734:357D 06                  PUSH ES
0734:357E 8E062855            MOV ES, WORD PTR [5528]
0734:3582 8B1E3055            MOV BX, [5530]
0734:3586 26806701FE          AND BYTE PTR ES: [BX+01], FE
0734:358B 07                  POP ES
0734:358C C3                  RET
0734:358D 8B16CA54            MOV DX, [54CA]
0734:3591 E8C001              CALL 3751
0734:3594 81FAEC33            CMP DX, 33EC
0734:3598 7403                JE	359D
0734:359A E83E12              CALL 47D8
0734:359D E90CE8              JMP 1DA9
0734:35A0 C706CC540819        MOV WORD PTR [54CC], 1908
0734:35A6 3C0D                CMP AL, 0D
0734:35A8 750E                JNE	35B8
0734:35AA 8B0EBE54            MOV CX, [54BE]
0734:35AE 83C11F              ADD CX, +1F
0734:35B1 731A                JNB	35CD
0734:35B3 B9FFFF              MOV CX, FFFF
0734:35B6 EB15                JMP	35CD
0734:35B8 B92000              MOV CX, 0020
0734:35BB 8B1E2A55            MOV BX, [552A]
0734:35BF E8DD07              CALL 3D9C
0734:35C2 E81009              CALL 3ED2
0734:35C5 8916BE54            MOV [54BE], DX
0734:35C9 891EC254            MOV [54C2], BX
0734:35CD 41                  INC CX
0734:35CE 51                  PUSH CX
0734:35CF 52                  PUSH DL
0734:35D0 E84C09              CALL 3F1C
0734:35D3 5B                  POP BX
0734:35D4 59                  POP CX
0734:35D5 A1BE54              MOV AX, [54BE]
0734:35D8 8BD0                MOV DX, AX
0734:35DA 2BC1                SUB AX, CX
0734:35DC 2BD9                SUB BX, CX
0734:35DE 3BC3                CMP AX, BX
0734:35E0 73EC                JNB	35CE
0734:35E2 C3                  RET
0734:35E3 50                  PUSH AL
0734:35E4 53                  PUSH BX
0734:35E5 51                  PUSH CX
0734:35E6 52                  PUSH DL
0734:35E7 8AD8                MOV BL, AL
0734:35E9 FEC3                INC BL
0734:35EB B700                MOV BH, 00
0734:35ED B94A08              MOV CX, 084A
0734:35F0 BA0100              MOV DX, 0001
0734:35F3 B80D44              MOV AX, 440D
0734:35F6 CD21                INT 21
0734:35F8 5A                  POP DX
0734:35F9 59                  POP CX
0734:35FA 5B                  POP BX
0734:35FB 58                  POP AX
0734:35FC C3                  RET
0734:35FD 50                  PUSH AL
0734:35FE 53                  PUSH BX
0734:35FF 51                  PUSH CX
0734:3600 52                  PUSH DL
0734:3601 8AD8                MOV BL, AL
0734:3603 FEC3                INC BL
0734:3605 B700                MOV BH, 00
0734:3607 B96A08              MOV CX, 086A
0734:360A BA0100              MOV DX, 0001
0734:360D B80D44              MOV AX, 440D
0734:3610 CD21                INT 21
0734:3612 5A                  POP DX
0734:3613 59                  POP CX
0734:3614 5B                  POP BX
0734:3615 58                  POP AX
0734:3616 C3                  RET
0734:3617 E8B006              CALL 3CC7
0734:361A 7460                JE	367C
0734:361C 2E803ED15402        CMP BYTE PTR CS: [54D1], 02
0734:3622 7217                JB	363B
0734:3624 8AD0                MOV DL, AL
0734:3626 BE0160              MOV SI, 6001
0734:3629 FEC2                INC DL
0734:362B E8B5FF              CALL 35E0
0734:362E B80573              MOV AX, 7305
0734:3631 F9                  STC
0734:3632 CD21                INT 21
0734:3634 9C                  PUSHF
0734:3635 E8C5FF              CALL 35FA
0734:3638 9D                  POPF
0734:3639 EB02                JMP	363D
0734:363B CD26                INT 26
0734:363D BAC432              MOV DX, 32C4
0734:3640 8CD3                MOV BL, CS
0734:3642 8EDB                MOV DS, BL
0734:3644 8B267454            MOV SP, [5474]
0734:3648 8EC3                MOV ES, BL
0734:364A 732D                JNB	3679
0734:364C 3C0C                CMP AL, 0C
0734:364E 7602                JBE	3652
0734:3650 B00C                MOV AL, 0C
0734:3652 98                  CBW
0734:3653 D1E0                SHL AX, 1
0734:3655 96                  XCHG AX, SI
0734:3656 8A84B132            MOV AL, [SI+32B1]
0734:365A BEF531              MOV SI, 31F5
0734:365D 03F0                ADD SI, AX
0734:365F BF6856              MOV DI, 5668
0734:3662 E82113              CALL 4983
0734:3665 8BF2                MOV SI, DX
0734:3667 E81C13              CALL 4983
0734:366A BECA32              MOV SI, 32CA
0734:366D E81613              CALL 4983
0734:3670 A0AB54              MOV AL, [54AB]
0734:3673 0441                ADD AL, 41
0734:3675 AA                  STOSB
0734:3676 E85413              CALL 49CA
0734:3679 E930E7              JMP 1DA9
0734:367C A0D054              MOV AL, [54D0]
0734:367F A80C                TEST AL, 0C
0734:3681 7405                JE	3688
0734:3683 BA1334              MOV DX, 3413
0734:3686 EB07                JMP	368F
0734:3688 3C00                CMP AL, 00
0734:368A 7506                JNE	3692
0734:368C BA3934              MOV DX, 3439
0734:368F E9C200              JMP 3751
0734:3692 BD6856              MOV BP, 5668
0734:3695 80FEFE              CMP DH, FE
0734:3698 7207                JB	36A1
0734:369A 80EEFE              SUB DH, FE
0734:369D 81C3E00F            ADD BX, 0FE0
0734:36A1 89560A              MOV [BP+0A], DX
0734:36A4 8BF3                MOV SI, BX
0734:36A6 B43C                MOV AH, 3C
0734:36A8 33C9                XOR CX, CX
0734:36AA BA8000              MOV DX, 0080
0734:36AD E89AF6              CALL 2D47
0734:36B0 7279                JB	372B
0734:36B2 50                  PUSH AL
0734:36B3 BA5C34              MOV DX, 345C
0734:36B6 E89B00              CALL 3751
0734:36B9 A11455              MOV AX, [5514]
0734:36BC 83F810              CMP AX, +10
0734:36BF 7202                JB	36C3
0734:36C1 33C0                XOR AX, AX
0734:36C3 894608              MOV [BP+08], AX
0734:36C6 0BC0                OR AX, AX
0734:36C8 7403                JE	36CD
0734:36CA E8DC12              CALL 49A6
0734:36CD A11C55              MOV AX, [551C]
0734:36D0 894606              MOV [BP+06], AX
0734:36D3 E8C112              CALL 4994
0734:36D6 E8F812              CALL 49CE
0734:36D9 BA6534              MOV DX, 3465
0734:36DC E87500              CALL 3751
0734:36DF 5B                  POP BX
0734:36E0 8B560A              MOV DX, [BP+0A]
0734:36E3 B800FE              MOV AX, FE00
0734:36E6 2BC2                SUB AX, DX
0734:36E8 807E0800            CMP BYTE PTR [BP+08], 00
0734:36EC 7508                JNE	36F6
0734:36EE 3B4606              CMP AX, [BP+06]
0734:36F1 7203                JB	36F6
0734:36F3 8B4606              MOV AX, [BP+06]
0734:36F6 91                  XCHG AX, CX
0734:36F7 8EDE                MOV DS, DH
0734:36F9 B440                MOV AH, 40
0734:36FB CD21                INT 21
0734:36FD 16                  PUSH SS
0734:36FE 1F                  POP DS
0734:36FF 3BC1                CMP AX, CX
0734:3701 7515                JNE	3718
0734:3703 33D2                XOR DX, DX
0734:3705 81C6E00F            ADD SI, 0FE0
0734:3709 294E06              SUB [BP+06], CX
0734:370C 9F                  LAHF
0734:370D 805E0800            SSB BYTE PTR [BP+08], 00
0734:3711 75D0                JNE	36E3
0734:3713 9E                  SAHF
0734:3714 75CD                JNE	36E3
0734:3716 EB0E                JMP	3726
0734:3718 BA6E34              MOV DX, 346E
0734:371B E83600              CALL 3751
0734:371E B441                MOV AH, 41
0734:3720 BA8000              MOV DX, 0080
0734:3723 E824F6              CALL 2D47
0734:3726 B43E                MOV AH, 3E
0734:3728 CD21                INT 21
0734:372A C3                  RET
0734:372B 83F802              CMP AX, +02
0734:372E BA9434              MOV DX, 3494
0734:3731 7421                JE	3754
0734:3733 83F803              CMP AX, +03
0734:3736 BAA534              MOV DX, 34A5
0734:3739 7419                JE	3754
0734:373B 83F805              CMP AX, +05
0734:373E BAB634              MOV DX, 34B6
0734:3741 7411                JE	3754
0734:3743 83F808              CMP AX, +08
0734:3746 BAC634              MOV DX, 34C6
0734:3749 7409                JE	3754
0734:374B BF8034              MOV DI, 3480
0734:374E E84612              CALL 4994
0734:3751 BA7A34              MOV DX, 347A
0734:3754 B409                MOV AH, 09
0734:3756 E8F1F5              CALL 2D47
0734:3759 C3                  RET
0734:375A E8AB01              CALL 3905
0734:375D E88007              CALL 3EDD
0734:3760 E84607              CALL 3EA6
0734:3763 E86F07              CALL 3ED2
0734:3766 8BDA                MOV BX, DX
0734:3768 B443                MOV AH, 43
0734:376A 23DB                AND BX, BX
0734:376C 7503                JNE	3771
0734:376E B8005A              MOV AX, 5A00
0734:3771 E86501              CALL 38D6
0734:3774 52                  PUSH DL
0734:3775 BE6636              MOV SI, 3666
0734:3778 E80B12              CALL 4983
0734:377B 58                  POP AX
0734:377C E81812              CALL 4994
0734:377F E94B12              JMP 49CA
0734:3782 E88301              CALL 3905
0734:3785 E85807              CALL 3EDD
0734:3788 E81E07              CALL 3EA6
0734:378B E84707              CALL 3ED2
0734:378E B445                MOV AH, 45
0734:3790 E84601              CALL 38D6
0734:3793 52                  PUSH DL
0734:3794 BE7736              MOV SI, 3677
0734:3797 E8EC11              CALL 4983
0734:379A 58                  POP AX
0734:379B E8F911              CALL 4994
0734:379E E92C12              JMP 49CA
0734:37A1 3C3F                CMP AL, 3F
0734:37A3 7419                JE	37BE
0734:37A5 0C20                OR AL, 20
0734:37A7 3C61                CMP AL, 61
0734:37A9 74AF                JE	375A
0734:37AB 3C64                CMP AL, 64
0734:37AD 74D3                JE	3782
0734:37AF 3C72                CMP AL, 72
0734:37B1 7414                JE	37C7
0734:37B3 3C6D                CMP AL, 6D
0734:37B5 7434                JE	37EB
0734:37B7 3C73                CMP AL, 73
0734:37B9 746D                JE	3828
0734:37BB E9C201              JMP 397D
0734:37BE BAB535              MOV DX, 35B5
0734:37C1 B9B100              MOV CX, 00B1
0734:37C4 E91112              JMP 49D5
0734:37C7 E83E01              CALL 3905
0734:37CA E81307              CALL 3EDD
0734:37CD E8D906              CALL 3EA6
0734:37D0 8BDA                MOV BX, DX
0734:37D2 E80B07              CALL 3EDD
0734:37D5 E8D106              CALL 3EA6
0734:37D8 E8FA06              CALL 3ED2
0734:37DB 87DA                XCHG BX, DX
0734:37DD B451                MOV AH, 51
0734:37DF E8F700              CALL 38D6
0734:37E2 BE8C36              MOV SI, 368C
0734:37E5 E89E11              CALL 4983
0734:37E8 E9E211              JMP 49CA
0734:37EB E81A01              CALL 3905
0734:37EE E8EF06              CALL 3EDD
0734:37F1 E8B506              CALL 3EA6
0734:37F4 8BDA                MOV BX, DX
0734:37F6 E8E806              CALL 3EDE
0734:37F9 E8B706              CALL 3EB0
0734:37FC 52                  PUSH DL
0734:37FD E8E106              CALL 3EDE
0734:3800 E8A606              CALL 3EA6
0734:3803 E8CF06              CALL 3ED2
0734:3806 58                  POP AX
0734:3807 50                  PUSH AL
0734:3808 B444                MOV AH, 44
0734:380A E8CC00              CALL 38D6
0734:380D BE9F36              MOV SI, 369F
0734:3810 E87311              CALL 4983
0734:3813 8BEF                MOV BP, DI
0734:3815 BF7556              MOV DI, 5675
0734:3818 93                  XCHG AX, BX
0734:3819 E88211              CALL 499B
0734:381C BF9056              MOV DI, 5690
0734:381F 58                  POP AX
0734:3820 E87B11              CALL 499B
0734:3823 8BFD                MOV DI, BP
0734:3825 E9A511              JMP 49CA
0734:3828 E8DD00              CALL 3905
0734:382B AC                  LODSB
0734:382C E8A606              CALL 3ED2
0734:382F B44B                MOV AH, 4B
0734:3831 E8A500              CALL 38D6
0734:3834 83FB42              CMP BX, +42
0734:3837 761C                JBE	3855
0734:3839 33D2                XOR DX, DX
0734:383B B44C                MOV AH, 4C
0734:383D CD67                INT 67
0734:383F 80FC83              CMP AH, 83
0734:3842 740B                JE	384F
0734:3844 0AE4                OR AH, AH
0734:3846 7403                JE	384B
0734:3848 E99500              JMP 38DD
0734:384B 93                  XCHG AX, BX
0734:384C E8DC00              CALL 3928
0734:384F FEC2                INC DL
0734:3851 75E8                JNE	383B
0734:3853 EB17                JMP	386C
0734:3855 B44D                MOV AH, 4D
0734:3857 BF6856              MOV DI, 5668
0734:385A E87C00              CALL 38D6
0734:385D 23DB                AND BX, BX
0734:385F 740B                JE	386C
0734:3861 8BF7                MOV SI, DI
0734:3863 AD                  LODSW
0734:3864 92                  XCHG AX, DX
0734:3865 AD                  LODSW
0734:3866 E8C200              CALL 3928
0734:3869 4B                  DEC BX
0734:386A 75F7                JNE	3863
0734:386C BAE531              MOV DX, 31E5
0734:386F E8E2FE              CALL 3751
0734:3872 B80058              MOV AX, 5800
0734:3875 BF6856              MOV DI, 5668
0734:3878 E85E00              CALL 38D6
0734:387B BA4237              MOV DX, 3742
0734:387E E32B                JCXZ	38AB
0734:3880 8BF7                MOV SI, DI
0734:3882 51                  PUSH CX
0734:3883 AD                  LODSW
0734:3884 BF0837              MOV DI, 3708
0734:3887 E80D11              CALL 4994
0734:388A AD                  LODSW
0734:388B BFFB36              MOV DI, 36FB
0734:388E E80D11              CALL 499B
0734:3891 BAF036              MOV DX, 36F0
0734:3894 B91E00              MOV CX, 001E
0734:3897 E83E11              CALL 49D5
0734:389A 59                  POP CX
0734:389B F6C101              TEST CL, 01
0734:389E 7406                JE	38A6
0734:38A0 BAE531              MOV DX, 31E5
0734:38A3 E8AEFE              CALL 3751
0734:38A6 E2DA                LOOP	3882
0734:38A8 BAE531              MOV DX, 31E5
0734:38AB E8A6FE              CALL 3751
0734:38AE B442                MOV AH, 42
0734:38B0 E82600              CALL 38D6
0734:38B3 8BC2                MOV AX, DX
0734:38B5 2BC3                SUB AX, BX
0734:38B7 BB2137              MOV BX, 3721
0734:38BA E88800              CALL 3942
0734:38BD B44B                MOV AH, 4B
0734:38BF E81700              CALL 38D6
0734:38C2 93                  XCHG AX, BX
0734:38C3 B80254              MOV AX, 5402
0734:38C6 CD67                INT 67
0734:38C8 8BD3                MOV DX, BX
0734:38CA 80FC00              CMP AH, 00
0734:38CD 7403                JE	38D2
0734:38CF BAFF00              MOV DX, 00FF
0734:38D2 BB2537              MOV BX, 3725
0734:38D5 E86D00              CALL 3942
0734:38D8 C3                  RET
0734:38D9 CD67                INT 67
0734:38DB 22E4                AND AH, AH
0734:38DD 7801                JS	38E0
0734:38DF C3                  RET
0734:38E0 8AC4                MOV AL, AH
0734:38E2 3C8B                CMP AL, 8B
0734:38E4 7F0D                JG	38F3
0734:38E6 98                  CBW
0734:38E7 8BD8                MOV BX, AX
0734:38E9 D1E3                SHL BX, 1
0734:38EB 8BB79D36            MOV SI, [BX+369D]
0734:38EF 0BF6                OR SI, SI
0734:38F1 7509                JNE	38FC
0734:38F3 BF9A35              MOV DI, 359A
0734:38F6 E8A510              CALL 499B
0734:38F9 BE9035              MOV SI, 3590
0734:38FC BF6856              MOV DI, 5668
0734:38FF E88410              CALL 4983
0734:3902 E8C810              CALL 49CA
0734:3905 E9A4E4              JMP 1DA9
0734:3908 06                  PUSH ES
0734:3909 B86735              MOV AX, 3567
0734:390C CD21                INT 21
0734:390E 8CC0                MOV AL, ES
0734:3910 07                  POP ES
0734:3911 0BC3                OR AX, BX
0734:3913 740A                JE	391F
0734:3915 B446                MOV AH, 46
0734:3917 E8BFFF              CALL 38D6
0734:391A 22E4                AND AH, AH
0734:391C 7501                JNE	391F
0734:391E C3                  RET
0734:391F BEDC34              MOV SI, 34DC
0734:3922 E86110              CALL 4983
0734:3925 E8A510              CALL 49CA
0734:3928 E981E4              JMP 1DA9
0734:392B BFDA36              MOV DI, 36DA
0734:392E E86610              CALL 4994
0734:3931 8BC2                MOV AX, DX
0734:3933 BFD136              MOV DI, 36D1
0734:3936 E85E10              CALL 4994
0734:3939 52                  PUSH DL
0734:393A BACA36              MOV DX, 36CA
0734:393D B92600              MOV CX, 0026
0734:3940 E89510              CALL 49D5
0734:3943 5A                  POP DX
0734:3944 C3                  RET
0734:3945 BF6856              MOV DI, 5668
0734:3948 E81E00              CALL 3966
0734:394B BE0E37              MOV SI, 370E
0734:394E E83510              CALL 4983
0734:3951 92                  XCHG AX, DX
0734:3952 E81400              CALL 3966
0734:3955 BE1B37              MOV SI, 371B
0734:3958 E82B10              CALL 4983
0734:395B 8BF3                MOV SI, BX
0734:395D E82610              CALL 4983
0734:3960 BE2B37              MOV SI, 372B
0734:3963 E82010              CALL 4983
0734:3966 E96410              JMP 49CA
0734:3969 E82B10              CALL 4994
0734:396C 57                  PUSH DI
0734:396D 83EF04              SUB DI, +04
0734:3970 B90300              MOV CX, 0003
0734:3973 B030                MOV AL, 30
0734:3975 AE                  SCASB
0734:3976 7506                JNE	397E
0734:3978 C645FF20            MOV BYTE PTR [DI-FF], 20
0734:397C E2F7                LOOP	3975
0734:397E 5F                  POP DI
0734:397F C3                  RET
0734:3980 8BCE                MOV CX, SI
0734:3982 81E96A55            SUB CX, 556A
0734:3986 030EAC54            ADD CX, [54AC]
0734:398A BF6856              MOV DI, 5668
0734:398D 8BD7                MOV DX, DI
0734:398F 83F97F              CMP CX, +7F
0734:3992 7705                JA	3999
0734:3994 41                  INC CX
0734:3995 B020                MOV AL, 20
0734:3997 F3AA                REPE                    STOSW
0734:3999 BEEE31              MOV SI, 31EE
0734:399C B107                MOV CL, 07
0734:399E F3A4                REPE                    MOVSW
0734:39A0 E82A10              CALL 49CA
0734:39A3 FF267654            JMP WORD PTR [5476]
0734:39A7 8C0E2A55            MOV WORD PTR [552A], SS
0734:39AB C70634551D1D        MOV WORD PTR [5534], 1D1D
0734:39B1 8C162855            MOV WORD PTR [5528], CS
0734:39B5 50                  PUSH AL
0734:39B6 89263055            MOV [5530], SP
0734:39BA 58                  POP AX
0734:39BB E81700              CALL 39D2
0734:39BE C3                  RET
0734:39BF B8004C              MOV AX, 4C00
0734:39C2 CD21                INT 21
0734:39C4 BE8054              MOV SI, 5480
0734:39C7 06                  PUSH ES
0734:39C8 33FF                XOR DI, DI
0734:39CA 8EC7                MOV ES, BH
0734:39CC BF8C00              MOV DI, 008C
0734:39CF A5                  MOVSW
0734:39D0 A5                  MOVSW
0734:39D1 A5                  MOVSW
0734:39D2 A5                  MOVSW
0734:39D3 07                  POP ES
0734:39D4 C3                  RET
0734:39D5 E89C03              CALL 3D71
0734:39D8 8B1E7C54            MOV BX, [547C]
0734:39DC E84FF3              CALL 2D2B
0734:39DF E8E2FF              CALL 39C1
0734:39E2 89267854            MOV [5478], SP
0734:39E6 2B267A54            SUB SP, [547A]
0734:39EA 89262E00            MOV [002E], SP
0734:39EE FA                  CLI
0734:39EF BC0455              MOV SP, 5504
0734:39F2 803EA15403          CMP BYTE PTR [54A1], 03
0734:39F7 720C                JB	3A05
0734:39F9 66                  DB 66
0734:39FA 61                  DB 61
0734:39FB 8E262C55            MOV ES, WORD PTR [552C]
0734:39FF 8E2E2E55            MOV SS, WORD PTR [552E]
0734:3A03 EB12                JMP	3A17
0734:3A05 5F                  POP DI
0734:3A06 5E                  POP SI
0734:3A07 5E                  POP SI
0734:3A08 5D                  POP BP
0734:3A09 5D                  POP BP
0734:3A0A 83C406              ADD SP, +06
0734:3A0D 5B                  POP BX
0734:3A0E 5A                  POP DX
0734:3A0F 5A                  POP DX
0734:3A10 59                  POP CX
0734:3A11 59                  POP CX
0734:3A12 58                  POP AX
0734:3A13 58                  POP AX
0734:3A14 83C402              ADD SP, +02
0734:3A17 07                  POP ES
0734:3A18 07                  POP ES
0734:3A19 17                  POP SS
0734:3A1A 66                  DB 66
0734:3A1B 8B263055            MOV SP, [5530]
0734:3A1F C606A55400          MOV BYTE PTR [54A5], 00
0734:3A24 66                  DB 66
0734:3A25 FF363855            PUSH WORD PTR [5538]
0734:3A29 66                  DB 66
0734:3A2A FF362A55            PUSH WORD PTR [552A]
0734:3A2E 66                  DB 66
0734:3A2F FF363455            PUSH WORD PTR [5534]
0734:3A33 F606395502          TEST BYTE PTR [5539], 02
0734:3A38 8E1E2455            MOV DS, WORD PTR [5524]
0734:3A3C 7401                JE	3A3F
0734:3A3E FB                  STI
0734:3A3F 66                  DB 66
0734:3A40 CF                  IRET
0734:3A41 FA                  CLI
0734:3A42 2EC706CA54EC33      MOV WORD PTR CS: [54CA], 33EC
0734:3A49 2EC706CC545D01      MOV WORD PTR CS: [54CC], 015D
0734:3A50 8CC8                MOV AL, SS
0734:3A52 8ED0                MOV CS, AL
0734:3A54 8ED8                MOV DS, AL
0734:3A56 EB6E                JMP	3AC6
0734:3A58 2EC706CA548133      MOV WORD PTR CS: [54CA], 3381
0734:3A5F EB10                JMP	3A71
0734:3A61 2EC706CA549033      MOV WORD PTR CS: [54CA], 3390
0734:3A68 EB07                JMP	3A71
0734:3A6A 2EC706CA54B333      MOV WORD PTR CS: [54CA], 33B3
0734:3A71 FA                  CLI
0734:3A72 2E8F063455          POP CS: [5534]
0734:3A77 2E8F062A55          POP CS: [552A]
0734:3A7C 2E8F063855          POP CS: [5538]
0734:3A81 2E8C162855          MOV WORD PTR CS: [5528], CS
0734:3A86 66                  DB 66
0734:3A87 2E89263055          MOV CS: [5530], SP
0734:3A8C 8CCC                MOV AH, SS
0734:3A8E 8ED4                MOV CS, AH
0734:3A90 BC2855              MOV SP, 5528
0734:3A93 06                  PUSH ES
0734:3A94 1E                  PUSH DS
0734:3A95 16                  PUSH SS
0734:3A96 1F                  POP DS
0734:3A97 803EA15403          CMP BYTE PTR [54A1], 03
0734:3A9C 7218                JB	3AB6
0734:3A9E 8C262C55            MOV WORD PTR [552C], ES
0734:3AA2 8C2E2E55            MOV WORD PTR [552E], SS
0734:3AA6 66                  DB 66
0734:3AA7 9C                  PUSHF
0734:3AA8 9D                  POPF
0734:3AA9 8F063A55            POP [553A]
0734:3AAD 6A                  DB 6A
0734:3AAE 009C669D            ADD [SI+9D66], BL
0734:3AB2 66                  DB 66
0734:3AB3 60                  DB 60
0734:3AB4 EB10                JMP	3AC6
0734:3AB6 50                  PUSH AL
0734:3AB7 50                  PUSH AL
0734:3AB8 51                  PUSH CX
0734:3AB9 51                  PUSH CX
0734:3ABA 52                  PUSH DL
0734:3ABB 52                  PUSH DL
0734:3ABC 53                  PUSH BX
0734:3ABD 53                  PUSH BX
0734:3ABE 83EC06              SUB SP, +06
0734:3AC1 55                  PUSH BP
0734:3AC2 56                  PUSH DH
0734:3AC3 56                  PUSH DH
0734:3AC4 57                  PUSH DI
0734:3AC5 57                  PUSH DI
0734:3AC6 8B267854            MOV SP, [5478]
0734:3ACA FC                  CLD
0734:3ACB FB                  STI
0734:3ACC E86DF2              CALL 2D39
0734:3ACF 891E7C54            MOV [547C], BX
0734:3AD3 E82200              CALL 3AF5
0734:3AD6 1E                  PUSH DS
0734:3AD7 07                  POP ES
0734:3AD8 E851F2              CALL 2D29
0734:3ADB 80263955FE          AND BYTE PTR [5539], FE
0734:3AE0 C606A55401          MOV BYTE PTR [54A5], 01
0734:3AE5 813ECA54EC33        CMP WORD PTR [54CA], 33EC
0734:3AEB 750A                JNE	3AF7
0734:3AED B44D                MOV AH, 4D
0734:3AEF CD21                INT 21
0734:3AF1 BF0B34              MOV DI, 340B
0734:3AF4 E8A00E              CALL 4994
0734:3AF7 C3                  RET
0734:3AF8 BF8054              MOV DI, 5480
0734:3AFB 1E                  PUSH DS
0734:3AFC 07                  POP ES
0734:3AFD 33F6                XOR SI, SI
0734:3AFF 8EDE                MOV DS, DH
0734:3B01 BE8C00              MOV SI, 008C
0734:3B04 56                  PUSH DH
0734:3B05 A5                  MOVSW
0734:3B06 A5                  MOVSW
0734:3B07 A5                  MOVSW
0734:3B08 A5                  MOVSW
0734:3B09 5F                  POP DI
0734:3B0A 06                  PUSH ES
0734:3B0B 1F                  POP DS
0734:3B0C 33F6                XOR SI, SI
0734:3B0E 8EC6                MOV ES, DH
0734:3B10 BE0E00              MOV SI, 000E
0734:3B13 A5                  MOVSW
0734:3B14 A5                  MOVSW
0734:3B15 A5                  MOVSW
0734:3B16 A5                  MOVSW
0734:3B17 C3                  RET
0734:3B18 803EA05400          CMP BYTE PTR [54A0], 00
0734:3B1D 7509                JNE	3B28
0734:3B1F 57                  PUSH DI
0734:3B20 BF8854              MOV DI, 5488
0734:3B23 E80D00              CALL 3B30
0734:3B26 5F                  POP DI
0734:3B27 C3                  RET
0734:3B28 50                  PUSH AL
0734:3B29 52                  PUSH DL
0734:3B2A BA6D4C              MOV DX, 4C6D
0734:3B2D E824FC              CALL 3751
0734:3B30 5A                  POP DX
0734:3B31 58                  POP AX
0734:3B32 C3                  RET
0734:3B33 1E                  PUSH DS
0734:3B34 56                  PUSH DH
0734:3B35 33F6                XOR SI, SI
0734:3B37 8EDE                MOV DS, DH
0734:3B39 BE8C00              MOV SI, 008C
0734:3B3C A5                  MOVSW
0734:3B3D A5                  MOVSW
0734:3B3E A5                  MOVSW
0734:3B3F A5                  MOVSW
0734:3B40 5E                  POP SI
0734:3B41 1F                  POP DS
0734:3B42 C3                  RET
0734:3B43 56                  PUSH DH
0734:3B44 C606A05401          MOV BYTE PTR [54A0], 01
0734:3B49 BE8054              MOV SI, 5480
0734:3B4C EB09                JMP	3B57
0734:3B4E C606A05400          MOV BYTE PTR [54A0], 00
0734:3B53 56                  PUSH DH
0734:3B54 BE8854              MOV SI, 5488
0734:3B57 57                  PUSH DI
0734:3B58 33FF                XOR DI, DI
0734:3B5A 8EC7                MOV ES, BH
0734:3B5C BF8C00              MOV DI, 008C
0734:3B5F A5                  MOVSW
0734:3B60 A5                  MOVSW
0734:3B61 A5                  MOVSW
0734:3B62 A5                  MOVSW
0734:3B63 5F                  POP DI
0734:3B64 5E                  POP SI
0734:3B65 0E                  PUSH CS
0734:3B66 07                  POP ES
0734:3B67 C3                  RET
0734:3B68 1E                  PUSH DS
0734:3B69 56                  PUSH DH
0734:3B6A C5369854            LDS SI, [5498]
0734:3B6E 803C00              CMP BYTE PTR [SI], 00
0734:3B71 5E                  POP SI
0734:3B72 1F                  POP DS
0734:3B73 C3                  RET
0734:3B74 53                  PUSH BX
0734:3B75 51                  PUSH CX
0734:3B76 52                  PUSH DL
0734:3B77 50                  PUSH AL
0734:3B78 B90100              MOV CX, 0001
0734:3B7B 8BD4                MOV DX, SP
0734:3B7D E8580E              CALL 49D5
0734:3B80 58                  POP AX
0734:3B81 5A                  POP DX
0734:3B82 59                  POP CX
0734:3B83 5B                  POP BX
0734:3B84 C3                  RET
0734:3B85 B008                MOV AL, 08
0734:3B87 E8EAFF              CALL 3B71
0734:3B8A B020                MOV AL, 20
0734:3B8C E8E5FF              CALL 3B71
0734:3B8F B008                MOV AL, 08
0734:3B91 EBE1                JMP	3B74
0734:3B93 B82020              MOV AX, 2020
0734:3B96 AB                  STOSW
0734:3B97 B03A                MOV AL, 3A
0734:3B99 AA                  STOSB
0734:3B9A BA6856              MOV DX, 5668
0734:3B9D 8BCF                MOV CX, DI
0734:3B9F 2BCA                SUB CX, DX
0734:3BA1 890EAC54            MOV [54AC], CX
0734:3BA5 E89B00              CALL 3C40
0734:3BA8 9C                  PUSHF
0734:3BA9 E82C0E              CALL 49D5
0734:3BAC 9D                  POPF
0734:3BAD 723F                JB	3BEE
0734:3BAF C706CC545D01        MOV WORD PTR [54CC], 015D
0734:3BB5 8B0EB054            MOV CX, [54B0]
0734:3BB9 2BCE                SUB CX, SI
0734:3BBB 740C                JE	3BC9
0734:3BBD AC                  LODSB
0734:3BBE 3C0D                CMP AL, 0D
0734:3BC0 7416                JE	3BD8
0734:3BC2 3C0A                CMP AL, 0A
0734:3BC4 7412                JE	3BD8
0734:3BC6 AA                  STOSB
0734:3BC7 E2F4                LOOP	3BBD
0734:3BC9 E8A400              CALL 3C6D
0734:3BCC 73E7                JNB	3BB5
0734:3BCE B00A                MOV AL, 0A
0734:3BD0 81FF6756            CMP DI, 5667
0734:3BD4 7202                JB	3BD8
0734:3BD6 4E                  DEC SI
0734:3BD7 4F                  DEC DI
0734:3BD8 8936AE54            MOV [54AE], SI
0734:3BDC A2A754              MOV [54A7], AL
0734:3BDF B00D                MOV AL, 0D
0734:3BE1 AA                  STOSB
0734:3BE2 8BCF                MOV CX, DI
0734:3BE4 BA6855              MOV DX, 5568
0734:3BE7 2BCA                SUB CX, DX
0734:3BE9 E8EC0D              CALL 49D5
0734:3BEC EB0D                JMP	3BFB
0734:3BEE BA6655              MOV DX, 5566
0734:3BF1 E874FF              CALL 3B65
0734:3BF4 7511                JNE	3C07
0734:3BF6 B40A                MOV AH, 0A
0734:3BF8 E84FF1              CALL 2D47
0734:3BFB B00A                MOV AL, 0A
0734:3BFD E874FF              CALL 3B71
0734:3C00 BE6855              MOV SI, 5568
0734:3C03 E8FC02              CALL 3EFF
0734:3C06 C3                  RET
0734:3C07 57                  PUSH DI
0734:3C08 1E                  PUSH DS
0734:3C09 07                  POP ES
0734:3C0A 42                  INC DX
0734:3C0B 42                  INC DX
0734:3C0C 8BFA                MOV DI, DX
0734:3C0E B400                MOV AH, 00
0734:3C10 CD16                INT 16
0734:3C12 3C00                CMP AL, 00
0734:3C14 74F8                JE	3C0E
0734:3C16 3CE0                CMP AL, E0
0734:3C18 74F4                JE	3C0E
0734:3C1A 3C08                CMP AL, 08
0734:3C1C 741B                JE	3C39
0734:3C1E 3C7F                CMP AL, 7F
0734:3C20 7417                JE	3C39
0734:3C22 AA                  STOSB
0734:3C23 E84EFF              CALL 3B71
0734:3C26 3C0D                CMP AL, 0D
0734:3C28 75E4                JNE	3C0E
0734:3C2A 4F                  DEC DI
0734:3C2B 2BFA                SUB DI, DX
0734:3C2D 8BC7                MOV AX, DI
0734:3C2F 8BFA                MOV DI, DX
0734:3C31 8845FF              MOV [DI-FF], AL
0734:3C34 4A                  DEC DX
0734:3C35 4A                  DEC DX
0734:3C36 5F                  POP DI
0734:3C37 EBC2                JMP	3BFB
0734:3C39 3BFA                CMP DI, DX
0734:3C3B 74D1                JE	3C0E
0734:3C3D 4F                  DEC DI
0734:3C3E E844FF              CALL 3B82
0734:3C41 EBCB                JMP	3C0E
0734:3C43 803EA75400          CMP BYTE PTR [54A7], 00
0734:3C48 7502                JNE	3C4C
0734:3C4A F9                  STC
0734:3C4B C3                  RET
0734:3C4C BF6855              MOV DI, 5568
0734:3C4F 8B36AE54            MOV SI, [54AE]
0734:3C53 3B36B054            CMP SI, [54B0]
0734:3C57 7205                JB	3C5E
0734:3C59 E81400              CALL 3C6D
0734:3C5C 720F                JB	3C6D
0734:3C5E 803EA7540D          CMP BYTE PTR [54A7], 0D
0734:3C63 7506                JNE	3C6B
0734:3C65 803C0A              CMP BYTE PTR [SI], 0A
0734:3C68 7501                JNE	3C6B
0734:3C6A 46                  INC SI
0734:3C6B F8                  CLC
0734:3C6C C3                  RET
0734:3C6D E902F6              JMP 326F
0734:3C70 50                  PUSH AL
0734:3C71 53                  PUSH BX
0734:3C72 51                  PUSH CX
0734:3C73 52                  PUSH DL
0734:3C74 8BF7                MOV SI, DI
0734:3C76 B43F                MOV AH, 3F
0734:3C78 33DB                XOR BX, BX
0734:3C7A B96756              MOV CX, 5667
0734:3C7D 8BD7                MOV DX, DI
0734:3C7F 2BCA                SUB CX, DX
0734:3C81 740E                JE	3C91
0734:3C83 E8C4F0              CALL 2D47
0734:3C86 7209                JB	3C91
0734:3C88 0BC0                OR AX, AX
0734:3C8A 7405                JE	3C91
0734:3C8C 03C2                ADD AX, DX
0734:3C8E F8                  CLC
0734:3C8F EB02                JMP	3C93
0734:3C91 92                  XCHG AX, DX
0734:3C92 F9                  STC
0734:3C93 A3B054              MOV [54B0], AX
0734:3C96 5A                  POP DX
0734:3C97 59                  POP CX
0734:3C98 5B                  POP BX
0734:3C99 58                  POP AX
0734:3C9A C3                  RET
0734:3C9B E87AFE              CALL 3B15
0734:3C9E 8B1E2455            MOV BX, [5524]
0734:3CA2 33C9                XOR CX, CX
0734:3CA4 E8FE00              CALL 3DA2
0734:3CA7 53                  PUSH BX
0734:3CA8 2BCA                SUB CX, DX
0734:3CAA 52                  PUSH DL
0734:3CAB 51                  PUSH CX
0734:3CAC E83202              CALL 3EDE
0734:3CAF 8B1E2455            MOV BX, [5524]
0734:3CB3 E82C01              CALL 3DDF
0734:3CB6 59                  POP CX
0734:3CB7 8BF9                MOV DI, CX
0734:3CB9 03FA                ADD DI, DX
0734:3CBB 720A                JB	3CC7
0734:3CBD E81502              CALL 3ED2
0734:3CC0 8BFA                MOV DI, DX
0734:3CC2 8EC3                MOV ES, BL
0734:3CC4 5E                  POP SI
0734:3CC5 1F                  POP DS
0734:3CC6 C3                  RET
0734:3CC7 E9B6FC              JMP 397D
0734:3CCA 8B1E2A55            MOV BX, [552A]
0734:3CCE BA0001              MOV DX, 0100
0734:3CD1 3C0D                CMP AL, 0D
0734:3CD3 744E                JE	3D23
0734:3CD5 E80A01              CALL 3DDF
0734:3CD8 E80602              CALL 3EDE
0734:3CDB 3C0D                CMP AL, 0D
0734:3CDD 7444                JE	3D23
0734:3CDF 53                  PUSH BX
0734:3CE0 52                  PUSH DL
0734:3CE1 BB8000              MOV BX, 0080
0734:3CE4 F7DA                NEG DX
0734:3CE6 7406                JE	3CEE
0734:3CE8 B109                MOV CL, 09
0734:3CEA D3EA                SHR DX, CL
0734:3CEC 8BFA                MOV DI, DX
0734:3CEE E8C201              CALL 3EB0
0734:3CF1 E8ED01              CALL 3EDE
0734:3CF4 52                  PUSH DL
0734:3CF5 8816AB54            MOV [54AB], DL
0734:3CF9 E88101              CALL 3E7A
0734:3CFC E8E201              CALL 3EDE
0734:3CFF 53                  PUSH BX
0734:3D00 52                  PUSH DL
0734:3D01 56                  PUSH DH
0734:3D02 E8A401              CALL 3EA6
0734:3D05 4A                  DEC DX
0734:3D06 3BD7                CMP DX, DI
0734:3D08 73BD                JNB	3CC7
0734:3D0A 42                  INC DX
0734:3D0B 8BCA                MOV CX, DX
0734:3D0D E8C501              CALL 3ED2
0734:3D10 803ED15400          CMP BYTE PTR [54D1], 00
0734:3D15 750D                JNE	3D24
0734:3D17 5E                  POP SI
0734:3D18 5A                  POP DX
0734:3D19 5B                  POP BX
0734:3D1A 0BDB                OR BX, BX
0734:3D1C 75A9                JNE	3CC7
0734:3D1E 58                  POP AX
0734:3D1F 5B                  POP BX
0734:3D20 1F                  POP DS
0734:3D21 0BC9                OR CX, CX
0734:3D23 C3                  RET
0734:3D24 5B                  POP BX
0734:3D25 BBD254              MOV BX, 54D2
0734:3D28 8F07                POP [BX]
0734:3D2A 8F4702              POP [BX+02]
0734:3D2D 894F04              MOV [BX+04], CX
0734:3D30 58                  POP AX
0734:3D31 8F4706              POP [BX+06]
0734:3D34 5A                  POP DX
0734:3D35 33C9                XOR CX, CX
0734:3D37 895708              MOV [BX+08], DX
0734:3D3A 49                  DEC CX
0734:3D3B C3                  RET
0734:3D3C E81500              CALL 3D51
0734:3D3F E89F01              CALL 3EDE
0734:3D42 B90100              MOV CX, 0001
0734:3D45 3C0D                CMP AL, 0D
0734:3D47 740A                JE	3D53
0734:3D49 E85D01              CALL 3EA6
0734:3D4C E88601              CALL 3ED2
0734:3D4F 8BCA                MOV CX, DX
0734:3D51 E33E                JCXZ	3D91
0734:3D53 C3                  RET
0734:3D54 C606CE5400          MOV BYTE PTR [54CE], 00
0734:3D59 3C3D                CMP AL, 3D
0734:3D5B 7516                JNE	3D73
0734:3D5D E8A201              CALL 3EFF
0734:3D60 8B1E2A55            MOV BX, [552A]
0734:3D64 E87B00              CALL 3DDF
0734:3D67 8916C454            MOV [54C4], DX
0734:3D6B 891EC854            MOV [54C8], BX
0734:3D6F FE06CE54            INC [54CE]
0734:3D73 C3                  RET
0734:3D74 803ECE5400          CMP BYTE PTR [54CE], 00
0734:3D79 7411                JE	3D8C
0734:3D7B A1C454              MOV AX, [54C4]
0734:3D7E A33455              MOV [5534], AX
0734:3D81 A1C854              MOV AX, [54C8]
0734:3D84 A32A55              MOV [552A], AX
0734:3D87 C606CE5400          MOV BYTE PTR [54CE], 00
0734:3D8C C3                  RET
0734:3D8D E81901              CALL 3EA6
0734:3D90 C3                  RET
0734:3D91 E9ECFB              JMP 397D
0734:3D94 52                  PUSH DL
0734:3D95 E81101              CALL 3EA6
0734:3D98 8BCA                MOV CX, DX
0734:3D9A 5A                  POP DX
0734:3D9B 49                  DEC CX
0734:3D9C 03CA                ADD CX, DX
0734:3D9E C3                  RET
0734:3D9F 51                  PUSH CX
0734:3DA0 E83F00              CALL 3DDF
0734:3DA3 EB04                JMP	3DA9
0734:3DA5 51                  PUSH CX
0734:3DA6 E83900              CALL 3DDF
0734:3DA9 56                  PUSH DH
0734:3DAA E83401              CALL 3EDE
0734:3DAD 3C20                CMP AL, 20
0734:3DAF 770F                JA	3DC0
0734:3DB1 5E                  POP SI
0734:3DB2 59                  POP CX
0734:3DB3 E3DC                JCXZ	3D91
0734:3DB5 49                  DEC CX
0734:3DB6 03CA                ADD CX, DX
0734:3DB8 7303                JNB	3DBD
0734:3DBA B9FFFF              MOV CX, FFFF
0734:3DBD 4E                  DEC SI
0734:3DBE AC                  LODSB
0734:3DBF C3                  RET
0734:3DC0 0C20                OR AL, 20
0734:3DC2 3C6C                CMP AL, 6C
0734:3DC4 740D                JE	3DD3
0734:3DC6 52                  PUSH DL
0734:3DC7 E8DF00              CALL 3EA6
0734:3DCA 8BCA                MOV CX, DX
0734:3DCC 5A                  POP DX
0734:3DCD 3BD1                CMP DX, CX
0734:3DCF 770E                JA	3DDF
0734:3DD1 EB08                JMP	3DDB
0734:3DD3 E80A01              CALL 3EDD
0734:3DD6 E8BBFF              CALL 3D91
0734:3DD9 7204                JB	3DDF
0734:3DDB 83C404              ADD SP, +04
0734:3DDE C3                  RET
0734:3DDF E99EFB              JMP 397D
0734:3DE2 E8A8FF              CALL 3D8A
0734:3DE5 56                  PUSH DH
0734:3DE6 E81A01              CALL 3F00
0734:3DE9 3C3A                CMP AL, 3A
0734:3DEB 7404                JE	3DF1
0734:3DED 5E                  POP SI
0734:3DEE 4E                  DEC SI
0734:3DEF AC                  LODSB
0734:3DF0 C3                  RET
0734:3DF1 58                  POP AX
0734:3DF2 8BDA                MOV BX, DX
0734:3DF4 E80B01              CALL 3EFF
0734:3DF7 E893FF              CALL 3D8A
0734:3DFA C3                  RET
0734:3DFB BF6856              MOV DI, 5668
0734:3DFE 3C0D                CMP AL, 0D
0734:3E00 74DD                JE	3DDF
0734:3E02 3C27                CMP AL, 27
0734:3E04 740C                JE	3E12
0734:3E06 3C22                CMP AL, 22
0734:3E08 7408                JE	3E12
0734:3E0A E8A600              CALL 3EB0
0734:3E0D 8815                MOV [DI], DL
0734:3E0F 47                  INC DI
0734:3E10 EB13                JMP	3E25
0734:3E12 8AE0                MOV AH, AL
0734:3E14 AC                  LODSB
0734:3E15 3AC4                CMP AL, AH
0734:3E17 7407                JE	3E20
0734:3E19 3C0D                CMP AL, 0D
0734:3E1B 74C2                JE	3DDF
0734:3E1D AA                  STOSB
0734:3E1E EBF4                JMP	3E14
0734:3E20 AC                  LODSB
0734:3E21 3AC4                CMP AL, AH
0734:3E23 74F8                JE	3E1D
0734:3E25 E8B900              CALL 3EDE
0734:3E28 3C0D                CMP AL, 0D
0734:3E2A 75D6                JNE	3E02
0734:3E2C C3                  RET
0734:3E2D 50                  PUSH AL
0734:3E2E 57                  PUSH DI
0734:3E2F 51                  PUSH CX
0734:3E30 BF282E              MOV DI, 2E28
0734:3E33 B91000              MOV CX, 0010
0734:3E36 8A24                MOV AH, [SI]
0734:3E38 25DFDF              AND AX, DFDF
0734:3E3B 807C0141            CMP BYTE PTR [SI+01], 41
0734:3E3F 7311                JNB	3E52
0734:3E41 F2AF                REPNE                    SCASB
0734:3E43 7533                JNE	3E78
0734:3E45 33DB                XOR BX, BX
0734:3E47 8B7D1E              MOV DI, [DI+1E]
0734:3E4A 8B15                MOV DX, [DI]
0734:3E4C 46                  INC SI
0734:3E4D F8                  CLC
0734:3E4E 59                  POP CX
0734:3E4F 5F                  POP DI
0734:3E50 58                  POP AX
0734:3E51 C3                  RET
0734:3E52 3C45                CMP AL, 45
0734:3E54 7522                JNE	3E78
0734:3E56 8A4401              MOV AL, [SI+01]
0734:3E59 86C4                XCHG AL, AH
0734:3E5B 25DFDF              AND AX, DFDF
0734:3E5E 3D4950              CMP AX, 5049
0734:3E61 7505                JNE	3E68
0734:3E63 BF3455              MOV DI, 5534
0734:3E66 EB0A                JMP	3E72
0734:3E68 B90800              MOV CX, 0008
0734:3E6B F2AF                REPNE                    SCASB
0734:3E6D 7509                JNE	3E78
0734:3E6F 8B7D1E              MOV DI, [DI+1E]
0734:3E72 8B5D02              MOV BX, [DI+02]
0734:3E75 46                  INC SI
0734:3E76 EBD2                JMP	3E4A
0734:3E78 59                  POP CX
0734:3E79 5F                  POP DI
0734:3E7A 58                  POP AX
0734:3E7B F9                  STC
0734:3E7C C3                  RET
0734:3E7D E8ADFF              CALL 3E2A
0734:3E80 7202                JB	3E84
0734:3E82 AC                  LODSB
0734:3E83 C3                  RET
0734:3E84 E83400              CALL 3EB8
0734:3E87 721D                JB	3EA6
0734:3E89 98                  CBW
0734:3E8A 92                  XCHG AX, DX
0734:3E8B 33DB                XOR BX, BX
0734:3E8D AC                  LODSB
0734:3E8E E82A00              CALL 3EB8
0734:3E91 7212                JB	3EA5
0734:3E93 F6C7F0              TEST BH, F0
0734:3E96 750E                JNE	3EA6
0734:3E98 B90400              MOV CX, 0004
0734:3E9B D1E2                SHL DX, 1
0734:3E9D D1D3                RCL BX, 1
0734:3E9F E2FA                LOOP	3E9B
0734:3EA1 0AD0                OR DL, AL
0734:3EA3 EBE8                JMP	3E8D
0734:3EA5 C3                  RET
0734:3EA6 E9D7FA              JMP 397D
0734:3EA9 53                  PUSH BX
0734:3EAA E8D0FF              CALL 3E7A
0734:3EAD 23DB                AND BX, BX
0734:3EAF 5B                  POP BX
0734:3EB0 75F4                JNE	3EA6
0734:3EB2 C3                  RET
0734:3EB3 E8F3FF              CALL 3EA6
0734:3EB6 22F6                AND DH, DH
0734:3EB8 75EC                JNE	3EA6
0734:3EBA C3                  RET
0734:3EBB 50                  PUSH AL
0734:3EBC 2C30                SUB AL, 30
0734:3EBE 3C09                CMP AL, 09
0734:3EC0 760C                JBE	3ECE
0734:3EC2 58                  POP AX
0734:3EC3 50                  PUSH AL
0734:3EC4 0C20                OR AL, 20
0734:3EC6 2C61                SUB AL, 61
0734:3EC8 3C05                CMP AL, 05
0734:3ECA 7706                JA	3ED2
0734:3ECC 040A                ADD AL, 0A
0734:3ECE 44                  INC SP
0734:3ECF 44                  INC SP
0734:3ED0 F8                  CLC
0734:3ED1 C3                  RET
0734:3ED2 58                  POP AX
0734:3ED3 F9                  STC
0734:3ED4 C3                  RET
0734:3ED5 E82B00              CALL 3F00
0734:3ED8 3C0D                CMP AL, 0D
0734:3EDA 7501                JNE	3EDD
0734:3EDC C3                  RET
0734:3EDD E9A0FA              JMP 397D
0734:3EE0 AC                  LODSB
0734:3EE1 E81F00              CALL 3F00
0734:3EE4 3C2C                CMP AL, 2C
0734:3EE6 750F                JNE	3EF7
0734:3EE8 56                  PUSH DH
0734:3EE9 E81600              CALL 3EFF
0734:3EEC 3C0D                CMP AL, 0D
0734:3EEE 7504                JNE	3EF4
0734:3EF0 5E                  POP SI
0734:3EF1 B02C                MOV AL, 2C
0734:3EF3 C3                  RET
0734:3EF4 83C402              ADD SP, +02
0734:3EF7 C3                  RET
0734:3EF8 AC                  LODSB
0734:3EF9 24DF                AND AL, DF
0734:3EFB 2C41                SUB AL, 41
0734:3EFD 3C19                CMP AL, 19
0734:3EFF 76F7                JBE	3EF8
0734:3F01 4E                  DEC SI
0734:3F02 AC                  LODSB
0734:3F03 3C20                CMP AL, 20
0734:3F05 74FB                JE	3F02
0734:3F07 3C09                CMP AL, 09
0734:3F09 74F7                JE	3F02
0734:3F0B C3                  RET
0734:3F0C 3C20                CMP AL, 20
0734:3F0E 740E                JE	3F1E
0734:3F10 3C09                CMP AL, 09
0734:3F12 740A                JE	3F1E
0734:3F14 3C2C                CMP AL, 2C
0734:3F16 7406                JE	3F1E
0734:3F18 3C3B                CMP AL, 3B
0734:3F1A 7402                JE	3F1E
0734:3F1C 3C3D                CMP AL, 3D
0734:3F1E C3                  RET
0734:3F1F C606625500          MOV BYTE PTR [5562], 00
0734:3F24 89266055            MOV [5560], SP
0734:3F28 33C0                XOR AX, AX
0734:3F2A A35355              MOV [5553], AX
0734:3F2D A35755              MOV [5557], AX
0734:3F30 C6065B5503          MOV BYTE PTR [555B], 03
0734:3F35 C6065A5580          MOV BYTE PTR [555A], 80
0734:3F3A C7064D550000        MOV WORD PTR [554D], 0000
0734:3F40 E8D607              CALL 4716
0734:3F43 3C9B                CMP AL, 9B
0734:3F45 7508                JNE	3F4F
0734:3F47 800E575540          OR BYTE PTR [5557], 40
0734:3F4C E8CA07              CALL 4716
0734:3F4F A25955              MOV [5559], AL
0734:3F52 B400                MOV AH, 00
0734:3F54 8BD8                MOV BX, AX
0734:3F56 A35C55              MOV [555C], AX
0734:3F59 3DE001              CMP AX, 01E0
0734:3F5C 720A                JB	3F68
0734:3F5E 8A9F2A47            MOV BL, [BX+472A]
0734:3F62 B700                MOV BH, 00
0734:3F64 81C3E001            ADD BX, 01E0
0734:3F68 8A8FE741            MOV CL, [BX+41E7]
0734:3F6C B500                MOV CH, 00
0734:3F6E D1E3                SHL BX, 1
0734:3F70 8B9F4844            MOV BX, [BX+4448]
0734:3F74 8BF1                MOV SI, CX
0734:3F76 8BC3                MOV AX, BX
0734:3F78 B10C                MOV CL, 0C
0734:3F7A D3E8                SHR AX, CL
0734:3F7C 3A064D55            CMP AL, [554D]
0734:3F80 7203                JB	3F85
0734:3F82 A24D55              MOV [554D], AL
0734:3F85 80E70F              AND BH, 0F
0734:3F88 83FE0C              CMP SI, +0C
0734:3F8B 7364                JNB	3FF1
0734:3F8D FF94424D            CALL WORD PTR [SI+4D42]
0734:3F91 EBC1                JMP	3F54
0734:3F93 E88307              CALL 4716
0734:3F96 A25955              MOV [5559], AL
0734:3F99 B400                MOV AH, 00
0734:3F9B 05E001              ADD AX, 01E0
0734:3F9E C3                  RET
0734:3F9F E8AA06              CALL 4649
0734:3FA2 98                  CBW
0734:3FA3 03C3                ADD AX, BX
0734:3FA5 C3                  RET
0734:3FA6 800E625510          OR [5562], 10
0734:3FAB 800E4E5501          OR [554E], 01
0734:3FB0 E8A306              CALL 4653
0734:3FB3 3CC0                CMP AL, C0
0734:3FB5 72E8                JB	3F9F
0734:3FB7 B103                MOV CL, 03
0734:3FB9 D2E8                SHR AL, CL
0734:3FBB 2C10                SUB AL, 10
0734:3FBD 98                  CBW
0734:3FBE 03C3                ADD AX, BX
0734:3FC0 C3                  RET
0734:3FC1 A04755              MOV AL, [5547]
0734:3FC4 2407                AND AL, 07
0734:3FC6 98                  CBW
0734:3FC7 03C3                ADD AX, BX
0734:3FC9 C3                  RET
0734:3FCA 8AC3                MOV AL, BL
0734:3FCC 80E3CF              AND BL, CF
0734:3FCF 841E5755            TEST [5557], BL
0734:3FD3 7519                JNE	3FEE
0734:3FD5 081E5755            OR [5557], BL
0734:3FD9 8AD8                MOV BL, AL
0734:3FDB 2430                AND AL, 30
0734:3FDD 30065755            XOR [5557], AL
0734:3FE1 F6C301              TEST BL, 01
0734:3FE4 7404                JE	3FEA
0734:3FE6 883E5B55            MOV [555B], BH
0734:3FEA 58                  POP AX
0734:3FEB E95EFF              JMP 3F49
0734:3FEE E9FE05              JMP 45EC
0734:3FF1 56                  PUSH DH
0734:3FF2 8DB75238            LEA SI, [BX+3852]
0734:3FF6 81FE8E38            CMP SI, 388E
0734:3FFA 7505                JNE	4001
0734:3FFC E89606              CALL 4692
0734:3FFF 74ED                JE	3FEE
0734:4001 E8C806              CALL 46C9
0734:4004 C70664550000        MOV WORD PTR [5564], 0000
0734:400A 5E                  POP SI
0734:400B 81C65C37            ADD SI, 375C
0734:400F 803C00              CMP BYTE PTR [SI], 00
0734:4012 7463                JE	4077
0734:4014 C606635500          MOV BYTE PTR [5563], 00
0734:4019 AC                  LODSB
0734:401A 3C40                CMP AL, 40
0734:401C 7237                JB	4055
0734:401E C606635520          MOV BYTE PTR [5563], 20
0734:4023 3C60                CMP AL, 60
0734:4025 731B                JNB	4042
0734:4027 3C50                CMP AL, 50
0734:4029 7309                JNB	4034
0734:402B B4FF                MOV AH, FF
0734:402D F606595501          TEST BYTE PTR [5559], 01
0734:4032 7416                JE	404A
0734:4034 800E585510          OR BYTE PTR [5558], 10
0734:4039 8A265755            MOV AH, [5557]
0734:403D 80E410              AND AH, 10
0734:4040 EB08                JMP	404A
0734:4042 8AE0                MOV AH, AL
0734:4044 80E4F0              AND AH, F0
0734:4047 80EC70              SUB AH, 70
0734:404A 8AD8                MOV BL, AL
0734:404C 83E30E              AND BX, +0E
0734:404F FF97F64C            CALL WORD PTR [BX+4CF6]
0734:4053 EB18                JMP	406D
0734:4055 98                  CBW
0734:4056 93                  XCHG AX, BX
0734:4057 80FB28              CMP BL, 28
0734:405A 720D                JB	4069
0734:405C 8B87044D            MOV AX, [BX+4D04]
0734:4060 AB                  STOSW
0734:4061 80FC00              CMP AH, 00
0734:4064 7507                JNE	406D
0734:4066 4F                  DEC DI
0734:4067 EB04                JMP	406D
0734:4069 FF97044D            CALL WORD PTR [BX+4D04]
0734:406D 803C00              CMP BYTE PTR [SI], 00
0734:4070 7405                JE	4077
0734:4072 B02C                MOV AL, 2C
0734:4074 AA                  STOSB
0734:4075 EB9D                JMP	4014
0734:4077 A05855              MOV AL, [5558]
0734:407A F6D0                NOT AL
0734:407C 22065755            AND AL, [5557]
0734:4080 7503                JNE	4085
0734:4082 E9ED00              JMP 416F
0734:4085 B90B00              MOV CX, 000B
0734:4088 BB624A              MOV BX, 4A62
0734:408B BA1400              MOV DX, 0014
0734:408E B440                MOV AH, 40
0734:4090 84C4                TEST AH, AL
0734:4092 7520                JNE	40B4
0734:4094 B91400              MOV CX, 0014
0734:4097 BB8E4A              MOV BX, 4A8E
0734:409A BA2600              MOV DX, 0026
0734:409D B410                MOV AH, 10
0734:409F 84C4                TEST AH, AL
0734:40A1 7511                JNE	40B4
0734:40A3 B90600              MOV CX, 0006
0734:40A6 BBDE4A              MOV BX, 4ADE
0734:40A9 BA0A00              MOV DX, 000A
0734:40AC B420                MOV AH, 20
0734:40AE 84C4                TEST AH, AL
0734:40B0 7502                JNE	40B4
0734:40B2 EB21                JMP	40D5
0734:40B4 08265855            OR [5558], AH
0734:40B8 57                  PUSH DI
0734:40B9 8BFB                MOV DI, BX
0734:40BB 8ADC                MOV BL, AH
0734:40BD A15C55              MOV AX, [555C]
0734:40C0 F2AF                REPNE                    SCASB
0734:40C2 750E                JNE	40D2
0734:40C4 03FA                ADD DI, DX
0734:40C6 8B35                MOV SI, [DI]
0734:40C8 81C65238            ADD SI, 3852
0734:40CC E8FD05              CALL 46C9
0734:40CF 5F                  POP DI
0734:40D0 EBA5                JMP	4077
0734:40D2 E91A05              JMP 45EC
0734:40D5 A801                TEST AL, 01
0734:40D7 742D                JE	4106
0734:40D9 A15C55              MOV AX, [555C]
0734:40DC 80FC00              CMP AH, 00
0734:40DF 75F1                JNE	40D2
0734:40E1 57                  PUSH DI
0734:40E2 B90900              MOV CX, 0009
0734:40E5 BF5837              MOV DI, 3758
0734:40E8 F2AE                REPNE                    SCASB
0734:40EA 5F                  POP DI
0734:40EB 75E5                JNE	40D2
0734:40ED B90300              MOV CX, 0003
0734:40F0 E86B06              CALL 475B
0734:40F3 57                  PUSH DI
0734:40F4 BF8456              MOV DI, 5684
0734:40F7 E87205              CALL 4669
0734:40FA B03A                MOV AL, 3A
0734:40FC AA                  STOSB
0734:40FD 5F                  POP DI
0734:40FE 800E585501          OR BYTE PTR [5558], 01
0734:4103 E971FF              JMP 4074
0734:4106 A802                TEST AL, 02
0734:4108 7436                JE	4140
0734:410A 2406                AND AL, 06
0734:410C 08065855            OR [5558], AL
0734:4110 A15C55              MOV AX, [555C]
0734:4113 80FC00              CMP AH, 00
0734:4116 75BA                JNE	40D2
0734:4118 24FE                AND AL, FE
0734:411A 57                  PUSH DI
0734:411B BF6137              MOV DI, 3761
0734:411E B90500              MOV CX, 0005
0734:4121 F2AE                REPNE                    SCASB
0734:4123 BE0C40              MOV SI, 400C
0734:4126 7439                JE	4161
0734:4128 B102                MOV CL, 02
0734:412A F2AE                REPNE                    SCASB
0734:412C 75A4                JNE	40D2
0734:412E BE1140              MOV SI, 4011
0734:4131 F606585504          TEST BYTE PTR [5558], 04
0734:4136 7529                JNE	4161
0734:4138 BE1740              MOV SI, 4017
0734:413B EB24                JMP	4161
0734:413D E9AF04              JMP 45EC
0734:4140 A808                TEST AL, 08
0734:4142 74F9                JE	413D
0734:4144 57                  PUSH DI
0734:4145 A15C55              MOV AX, [555C]
0734:4148 BFF64A              MOV DI, 4AF6
0734:414B B92E00              MOV CX, 002E
0734:414E F2AF                REPNE                    SCASB
0734:4150 75EB                JNE	413D
0734:4152 F606585501          TEST BYTE PTR [5558], 01
0734:4157 74E4                JE	413D
0734:4159 BEB43E              MOV SI, 3EB4
0734:415C 800E585508          OR BYTE PTR [5558], 08
0734:4161 5F                  POP DI
0734:4162 B90800              MOV CX, 0008
0734:4165 56                  PUSH DH
0734:4166 E8F505              CALL 475B
0734:4169 5E                  POP SI
0734:416A 57                  PUSH DI
0734:416B E85E05              CALL 46C9
0734:416E 5F                  POP DI
0734:416F E905FF              JMP 4074
0734:4172 8B0E6455            MOV CX, [5564]
0734:4176 83F900              CMP CX, +00
0734:4179 741D                JE	4198
0734:417B A06255              MOV AL, [5562]
0734:417E A810                TEST AL, 10
0734:4180 7516                JNE	4198
0734:4182 A820                TEST AL, 20
0734:4184 7412                JE	4198
0734:4186 87CF                XCHG DI, DI
0734:4188 8BF7                MOV SI, DI
0734:418A B020                MOV AL, 20
0734:418C AE                  SCASB
0734:418D 75FD                JNE	418C
0734:418F 83C704              ADD DI, +04
0734:4192 87F7                XCHG AX, DI
0734:4194 2BCE                SUB CX, SI
0734:4196 F3A4                REPE                    MOVSW
0734:4198 57                  PUSH DI
0734:4199 BF6856              MOV DI, 5668
0734:419C A1C254              MOV AX, [54C2]
0734:419F E8F507              CALL 4994
0734:41A2 B03A                MOV AL, 3A
0734:41A4 AA                  STOSB
0734:41A5 A1BE54              MOV AX, [54BE]
0734:41A8 E8EC07              CALL 4994
0734:41AB B020                MOV AL, 20
0734:41AD AA                  STOSB
0734:41AE 8B1E5355            MOV BX, [5553]
0734:41B2 BE8356              MOV SI, 5683
0734:41B5 2BF7                SUB SI, DI
0734:41B7 D1EE                SHR SI, 1
0734:41B9 3BDE                CMP BX, SI
0734:41BB 7E19                JLE	41D6
0734:41BD 2BDE                SUB BX, SI
0734:41BF 53                  PUSH BX
0734:41C0 8BDE                MOV BX, SI
0734:41C2 57                  PUSH DI
0734:41C3 E88205              CALL 4745
0734:41C6 E80408              CALL 49CA
0734:41C9 59                  POP CX
0734:41CA 5B                  POP BX
0734:41CB BF6856              MOV DI, 5668
0734:41CE 2BCF                SUB CX, DI
0734:41D0 B020                MOV AL, 20
0734:41D2 F3AA                REPE                    STOSW
0734:41D4 EBDC                JMP	41B2
0734:41D6 E86F05              CALL 4745
0734:41D9 B020                MOV AL, 20
0734:41DB B98456              MOV CX, 5684
0734:41DE 2BCF                SUB CX, DI
0734:41E0 7202                JB	41E4
0734:41E2 F3AA                REPE                    STOSW
0734:41E4 5F                  POP DI
0734:41E5 F606625508          TEST BYTE PTR [5562], 08
0734:41EA 740D                JE	41F9
0734:41EC BE4A33              MOV SI, 334A
0734:41EF 807DFF20            CMP BYTE PTR [DI-FF], 20
0734:41F3 7501                JNE	41F6
0734:41F5 46                  INC SI
0734:41F6 E88D07              CALL 4983
0734:41F9 57                  PUSH DI
0734:41FA BF934C              MOV DI, 4C93
0734:41FD 8B0E5C55            MOV CX, [555C]
0734:4201 E87805              CALL 4779
0734:4204 5F                  POP DI
0734:4205 E30E                JCXZ	4215
0734:4207 B8B756              MOV AX, 56B7
0734:420A 2BC1                SUB AX, CX
0734:420C 51                  PUSH CX
0734:420D E8A307              CALL 49B0
0734:4210 59                  POP CX
0734:4211 F3A4                REPE                    MOVSW
0734:4213 EB6B                JMP	4280
0734:4215 A06255              MOV AL, [5562]
0734:4218 3406                XOR AL, 06
0734:421A A806                TEST AL, 06
0734:421C 7562                JNE	4280
0734:421E 803E5B5503          CMP BYTE PTR [555B], 03
0734:4223 775B                JA	4280
0734:4225 B8AD56              MOV AX, 56AD
0734:4228 803E5A5500          CMP BYTE PTR [555A], 00
0734:422D 7C07                JL	4236
0734:422F 7403                JE	4234
0734:4231 83E804              SUB AX, +04
0734:4234 48                  DEC AX
0734:4235 48                  DEC AX
0734:4236 E87A07              CALL 49B0
0734:4239 E83004              CALL 4669
0734:423C B03A                MOV AL, 3A
0734:423E AA                  STOSB
0734:423F A15E55              MOV AX, [555E]
0734:4242 E85207              CALL 4994
0734:4245 B03D                MOV AL, 3D
0734:4247 AA                  STOSB
0734:4248 A05B55              MOV AL, [555B]
0734:424B 98                  CBW
0734:424C D1E0                SHL AX, 1
0734:424E 93                  XCHG AX, BX
0734:424F 8B9FDB4C            MOV BX, [BX+4CDB]
0734:4253 06                  PUSH ES
0734:4254 8E07                MOV ES, WORD PTR [BX]
0734:4256 8B1E5E55            MOV BX, [555E]
0734:425A 268A07              MOV AL, ES: [BX]
0734:425D 268A6701            MOV AH, ES: [BX+01]
0734:4261 268A5702            MOV DL, ES: [BX+02]
0734:4265 268A7703            MOV DH, ES: [BX+03]
0734:4269 07                  POP ES
0734:426A 803E5A5500          CMP BYTE PTR [555A], 00
0734:426F 7C0C                JL	427D
0734:4271 7405                JE	4278
0734:4273 92                  XCHG AX, DX
0734:4274 E82007              CALL 4994
0734:4277 92                  XCHG AX, DX
0734:4278 E81C07              CALL 4994
0734:427B EB03                JMP	4280
0734:427D E81E07              CALL 499B
0734:4280 E84307              CALL 49C3
0734:4283 A06255              MOV AL, [5562]
0734:4286 A801                TEST AL, 01
0734:4288 7419                JE	42A3
0734:428A A808                TEST AL, 08
0734:428C 7512                JNE	42A0
0734:428E A15C55              MOV AX, [555C]
0734:4291 83F817              CMP AX, +17
0734:4294 740A                JE	42A0
0734:4296 3D8E00              CMP AX, 008E
0734:4299 7405                JE	42A0
0734:429B 3DFB00              CMP AX, 00FB
0734:429E 7503                JNE	42A3
0734:42A0 E97CFC              JMP 3F1C
0734:42A3 C3                  RET
0734:42A4 E8AF03              CALL 4653
0734:42A7 3CC0                CMP AL, C0
0734:42A9 7203                JB	42AE
0734:42AB E9A101              JMP 444C
0734:42AE E83204              CALL 46E0
0734:42B1 800E585501          OR BYTE PTR [5558], 01
0734:42B6 F606575501          TEST BYTE PTR [5557], 01
0734:42BB 7406                JE	42C3
0734:42BD E8AC03              CALL 4669
0734:42C0 B03A                MOV AL, 3A
0734:42C2 AA                  STOSB
0734:42C3 A04755              MOV AL, [5547]
0734:42C6 24C7                AND AL, C7
0734:42C8 800E585520          OR BYTE PTR [5558], 20
0734:42CD F606575520          TEST BYTE PTR [5557], 20
0734:42D2 7403                JE	42D7
0734:42D4 E99C00              JMP 4370
0734:42D7 800E625504          OR BYTE PTR [5562], 04
0734:42DC C7065E550000        MOV WORD PTR [555E], 0000
0734:42E2 3C06                CMP AL, 06
0734:42E4 93                  XCHG AX, BX
0734:42E5 B05B                MOV AL, 5B
0734:42E7 AA                  STOSB
0734:42E8 747B                JE	4365
0734:42EA 83E307              AND BX, +07
0734:42ED 8A9F9D4C            MOV BL, [BX+4C9D]
0734:42F1 F6C308              TEST BL, 08
0734:42F4 7519                JNE	430F
0734:42F6 F6C304              TEST BL, 04
0734:42F9 7428                JE	4323
0734:42FB B84250              MOV AX, 5042
0734:42FE 8B0E0C55            MOV CX, [550C]
0734:4302 F606575501          TEST BYTE PTR [5557], 01
0734:4307 750D                JNE	4316
0734:4309 FE0E5B55            DEC BYTE PTR [555B]
0734:430D EB07                JMP	4316
0734:430F B84258              MOV AX, 5842
0734:4312 8B0E1455            MOV CX, [5514]
0734:4316 890E5E55            MOV [555E], CX
0734:431A AB                  STOSW
0734:431B F6C303              TEST BL, 03
0734:431E 741A                JE	433A
0734:4320 B02B                MOV AL, 2B
0734:4322 AA                  STOSB
0734:4323 B85349              MOV AX, 4953
0734:4326 8B0E0855            MOV CX, [5508]
0734:432A F6C301              TEST BL, 01
0734:432D 7406                JE	4335
0734:432F B044                MOV AL, 44
0734:4331 8B0E0455            MOV CX, [5504]
0734:4335 010E5E55            ADD [555E], CX
0734:4339 AB                  STOSW
0734:433A F6064755C0          TEST BYTE PTR [5547], C0
0734:433F 742E                JE	436F
0734:4341 F606475580          TEST BYTE PTR [5547], 80
0734:4346 751A                JNE	4362
0734:4348 E8CE03              CALL 4716
0734:434B 98                  CBW
0734:434C 01065E55            ADD [555E], AX
0734:4350 3C00                CMP AL, 00
0734:4352 B42B                MOV AH, 2B
0734:4354 7D04                JNL	435A
0734:4356 B42D                MOV AH, 2D
0734:4358 F6D8                NEG AL
0734:435A 8825                MOV [DI], AH
0734:435C 47                  INC DI
0734:435D E83E06              CALL 499B
0734:4360 EB0D                JMP	436F
0734:4362 B02B                MOV AL, 2B
0734:4364 AA                  STOSB
0734:4365 E8C803              CALL 472D
0734:4368 01065E55            ADD [555E], AX
0734:436C E82806              CALL 4994
0734:436F B05D                MOV AL, 5D
0734:4371 AA                  STOSB
0734:4372 C3                  RET
0734:4373 3C05                CMP AL, 05
0734:4375 7509                JNE	4380
0734:4377 B05B                MOV AL, 5B
0734:4379 AA                  STOSB
0734:437A E8FC02              CALL 4676
0734:437D E99200              JMP 440F
0734:4380 50                  PUSH AL
0734:4381 2407                AND AL, 07
0734:4383 3C04                CMP AL, 04
0734:4385 7506                JNE	438D
0734:4387 E88F03              CALL 4716
0734:438A A24855              MOV [5548], AL
0734:438D 58                  POP AX
0734:438E A880                TEST AL, 80
0734:4390 7516                JNE	43A8
0734:4392 A840                TEST AL, 40
0734:4394 7415                JE	43AB
0734:4396 E88003              CALL 4716
0734:4399 3C00                CMP AL, 00
0734:439B 7D06                JNL	43A3
0734:439D F6D8                NEG AL
0734:439F C6052D              MOV BYTE PTR [DI], 2D
0734:43A2 47                  INC DI
0734:43A3 E8F805              CALL 499B
0734:43A6 EB03                JMP	43AB
0734:43A8 E8CE02              CALL 4676
0734:43AB A04755              MOV AL, [5547]
0734:43AE 2407                AND AL, 07
0734:43B0 3C04                CMP AL, 04
0734:43B2 7562                JNE	4416
0734:43B4 A04855              MOV AL, [5548]
0734:43B7 3C24                CMP AL, 24
0734:43B9 7504                JNE	43BF
0734:43BB B004                MOV AL, 04
0734:43BD EB57                JMP	4416
0734:43BF 2407                AND AL, 07
0734:43C1 3C05                CMP AL, 05
0734:43C3 750C                JNE	43D1
0734:43C5 F6064755C0          TEST BYTE PTR [5547], C0
0734:43CA 7505                JNE	43D1
0734:43CC E8AA02              CALL 4676
0734:43CF EB0C                JMP	43DD
0734:43D1 C7055B45            MOV WORD PTR [DI], 455B
0734:43D5 47                  INC DI
0734:43D6 47                  INC DI
0734:43D7 E8AE02              CALL 4685
0734:43DA B05D                MOV AL, 5D
0734:43DC AA                  STOSB
0734:43DD A04855              MOV AL, [5548]
0734:43E0 D0E8                SHR AL, 1
0734:43E2 D0E8                SHR AL, 1
0734:43E4 D0E8                SHR AL, 1
0734:43E6 2407                AND AL, 07
0734:43E8 3C04                CMP AL, 04
0734:43EA 7441                JE	442D
0734:43EC C7055B45            MOV WORD PTR [DI], 455B
0734:43F0 47                  INC DI
0734:43F1 47                  INC DI
0734:43F2 E89302              CALL 4685
0734:43F5 8A264855            MOV AH, [5548]
0734:43F9 F6C4C0              TEST AH, C0
0734:43FC 7414                JE	4412
0734:43FE B02A                MOV AL, 2A
0734:4400 AA                  STOSB
0734:4401 B032                MOV AL, 32
0734:4403 F6C480              TEST AH, 80
0734:4406 7409                JE	4411
0734:4408 B034                MOV AL, 34
0734:440A F6C440              TEST AH, 40
0734:440D 7402                JE	4411
0734:440F B038                MOV AL, 38
0734:4411 AA                  STOSB
0734:4412 B05D                MOV AL, 5D
0734:4414 AA                  STOSB
0734:4415 C3                  RET
0734:4416 C7055B45            MOV WORD PTR [DI], 455B
0734:441A 47                  INC DI
0734:441B 47                  INC DI
0734:441C E86902              CALL 4685
0734:441F B05D                MOV AL, 5D
0734:4421 AA                  STOSB
0734:4422 C3                  RET
0734:4423 E83002              CALL 4653
0734:4426 3CC0                CMP AL, C0
0734:4428 7303                JNB	442D
0734:442A E981FE              JMP 42AB
0734:442D E9BF01              JMP 45EC
0734:4430 E82302              CALL 4653
0734:4433 3CC0                CMP AL, C0
0734:4435 72F6                JB	442D
0734:4437 EB16                JMP	444F
0734:4439 E8A702              CALL 46E0
0734:443C B005                MOV AL, 05
0734:443E F606575520          TEST BYTE PTR [5557], 20
0734:4443 7501                JNE	4446
0734:4445 40                  INC AX
0734:4446 A24755              MOV [5547], AL
0734:4449 E965FE              JMP 42AE
0734:444C E8FD01              CALL 4649
0734:444F 2407                AND AL, 07
0734:4451 8A0E6355            MOV CL, [5563]
0734:4455 080E6255            OR [5562], CL
0734:4459 80FC00              CMP AH, 00
0734:445C 7C0D                JL	446B
0734:445E 7409                JE	4469
0734:4460 80FC20              CMP AH, 20
0734:4463 7410                JE	4475
0734:4465 C60545              MOV BYTE PTR [DI], 45
0734:4468 47                  INC DI
0734:4469 0408                ADD AL, 08
0734:446B 98                  CBW
0734:446C D1E0                SHL AX, 1
0734:446E 93                  XCHG AX, BX
0734:446F 8B87A54C            MOV AX, [BX+4CA5]
0734:4473 AB                  STOSW
0734:4474 C3                  RET
0734:4475 50                  PUSH AL
0734:4476 B84D4D              MOV AX, 4D4D
0734:4479 AB                  STOSW
0734:447A 58                  POP AX
0734:447B 0430                ADD AL, 30
0734:447D AA                  STOSB
0734:447E C3                  RET
0734:447F A05955              MOV AL, [5559]
0734:4482 EBCB                JMP	444F
0734:4484 B000                MOV AL, 00
0734:4486 EBC7                JMP	444F
0734:4488 B420                MOV AH, 20
0734:448A EB21                JMP	44AD
0734:448C B8464C              MOV AX, 4C46
0734:448F AB                  STOSW
0734:4490 B04F                MOV AL, 4F
0734:4492 AA                  STOSB
0734:4493 B84154              MOV AX, 5441
0734:4496 EB0B                JMP	44A3
0734:4498 B8444F              MOV AX, 4F44
0734:449B AB                  STOSW
0734:449C B85542              MOV AX, 4255
0734:449F AB                  STOSW
0734:44A0 B84C45              MOV AX, 454C
0734:44A3 AB                  STOSW
0734:44A4 E86602              CALL 470A
0734:44A7 EB2B                JMP	44D4
0734:44A9 B854FF              MOV AX, FF54
0734:44AC AA                  STOSB
0734:44AD E8A601              CALL 4653
0734:44B0 3CC0                CMP AL, C0
0734:44B2 732A                JNB	44DE
0734:44B4 80266255FD          AND BYTE PTR [5562], FD
0734:44B9 E9F2FD              JMP 42AB
0734:44BC E8D601              CALL 4692
0734:44BF 7406                JE	44C7
0734:44C1 E83E02              CALL 46FF
0734:44C4 83EF04              SUB DI, +04
0734:44C7 B84641              MOV AX, 4146
0734:44CA AB                  STOSW
0734:44CB B85220              MOV AX, 2052
0734:44CE AB                  STOSW
0734:44CF 80266255FD          AND BYTE PTR [5562], FD
0734:44D4 E87F01              CALL 4653
0734:44D7 3CC0                CMP AL, C0
0734:44D9 7303                JNB	44DE
0734:44DB E9D3FD              JMP 42AE
0734:44DE E90E01              JMP 45EC
0734:44E1 E84C02              CALL 472D
0734:44E4 50                  PUSH AL
0734:44E5 E8AD01              CALL 4692
0734:44E8 7404                JE	44EE
0734:44EA E84302              CALL 472D
0734:44ED 50                  PUSH AL
0734:44EE E83F02              CALL 472D
0734:44F1 E8A304              CALL 4994
0734:44F4 B03A                MOV AL, 3A
0734:44F6 AA                  STOSB
0734:44F7 E89B01              CALL 4692
0734:44FA 7404                JE	4500
0734:44FC 58                  POP AX
0734:44FD E89704              CALL 4994
0734:4500 58                  POP AX
0734:4501 E89304              CALL 4994
0734:4504 C3                  RET
0734:4505 E81102              CALL 4716
0734:4508 98                  CBW
0734:4509 EB28                JMP	4533
0734:450B E82202              CALL 472D
0734:450E E88401              CALL 4692
0734:4511 7420                JE	4533
0734:4513 50                  PUSH AL
0734:4514 E8EB01              CALL 46FF
0734:4517 83EF04              SUB DI, +04
0734:451A 5A                  POP DX
0734:451B E81202              CALL 472D
0734:451E 8B1EBE54            MOV BX, [54BE]
0734:4522 031E5355            ADD BX, [5553]
0734:4526 03D3                ADD DX, BX
0734:4528 1306C054            ADC AX, [54C0]
0734:452C E86804              CALL 4994
0734:452F 92                  XCHG AX, DX
0734:4530 E96404              JMP 4994
0734:4533 0306BE54            ADD AX, [54BE]
0734:4537 03065355            ADD AX, [5553]
0734:453B E95904              JMP 4994
0734:453E 58                  POP AX
0734:453F A04755              MOV AL, [5547]
0734:4542 2407                AND AL, 07
0734:4544 3C01                CMP AL, 01
0734:4546 7403                JE	454B
0734:4548 E9C9FA              JMP 4011
0734:454B E929FB              JMP 4074
0734:454E A04755              MOV AL, [5547]
0734:4551 2407                AND AL, 07
0734:4553 93                  XCHG AX, BX
0734:4554 B85354              MOV AX, 5453
0734:4557 AB                  STOSW
0734:4558 B028                MOV AL, 28
0734:455A AA                  STOSB
0734:455B B83029              MOV AX, 2930
0734:455E 0AC3                OR AL, BL
0734:4560 AB                  STOSW
0734:4561 C3                  RET
0734:4562 BB4352              MOV BX, 5243
0734:4565 E8E400              CALL 4649
0734:4568 3C04                CMP AL, 04
0734:456A 7713                JA	457F
0734:456C 7505                JNE	4573
0734:456E C6064D5505          MOV BYTE PTR [554D], 05
0734:4573 813E5C550202        CMP WORD PTR [555C], 0202
0734:4579 7524                JNE	459F
0734:457B 3C01                CMP AL, 01
0734:457D 7520                JNE	459F
0734:457F EB6E                JMP	45EF
0734:4581 E8C800              CALL 4649
0734:4584 BB4452              MOV BX, 5244
0734:4587 B9FFFF              MOV CX, FFFF
0734:458A EB13                JMP	459F
0734:458C E8BD00              CALL 4649
0734:458F 3C03                CMP AL, 03
0734:4591 725C                JB	45EF
0734:4593 3C06                CMP AL, 06
0734:4595 7305                JNB	459C
0734:4597 C6064D5504          MOV BYTE PTR [554D], 04
0734:459C BB5452              MOV BX, 5254
0734:459F 93                  XCHG AX, BX
0734:45A0 AB                  STOSW
0734:45A1 93                  XCHG AX, BX
0734:45A2 0C30                OR AL, 30
0734:45A4 AA                  STOSB
0734:45A5 C3                  RET
0734:45A6 E8A300              CALL 4649
0734:45A9 3C06                CMP AL, 06
0734:45AB 7342                JNB	45EF
0734:45AD 3C02                CMP AL, 02
0734:45AF 7405                JE	45B6
0734:45B1 80266255FE          AND BYTE PTR [5562], FE
0734:45B6 3C04                CMP AL, 04
0734:45B8 7205                JB	45BF
0734:45BA C6064D5503          MOV BYTE PTR [554D], 03
0734:45BF 0410                ADD AL, 10
0734:45C1 E9A7FE              JMP 4468
0734:45C4 E85201              CALL 4716
0734:45C7 3C00                CMP AL, 00
0734:45C9 93                  XCHG AX, BX
0734:45CA B02B                MOV AL, 2B
0734:45CC 7D04                JNL	45D2
0734:45CE F6DB                NEG BL
0734:45D0 B02D                MOV AL, 2D
0734:45D2 AA                  STOSB
0734:45D3 93                  XCHG AX, BX
0734:45D4 EB03                JMP	45D9
0734:45D6 E84001              CALL 4716
0734:45D9 E9C203              JMP 499B
0734:45DC BB4D4D              MOV BX, 4D4D
0734:45DF E86A00              CALL 4649
0734:45E2 2407                AND AL, 07
0734:45E4 EBB9                JMP	459F
0734:45E6 800E625510          OR BYTE PTR [5562], 10
0734:45EB 58                  POP AX
0734:45EC E925FA              JMP 4011
0734:45EF 8B266055            MOV SP, [5560]
0734:45F3 B84F23              MOV AX, 234F
0734:45F6 50                  PUSH AL
0734:45F7 C70653550000        MOV WORD PTR [5553], 0000
0734:45FD C70657550000        MOV WORD PTR [5557], 0000
0734:4603 C6065A5580          MOV BYTE PTR [555A], 80
0734:4608 C7064D550000        MOV WORD PTR [554D], 0000
0734:460E 80266255FB          AND BYTE PTR [5562], FB
0734:4613 E80301              CALL 4716
0734:4616 BFE34C              MOV DI, 4CE3
0734:4619 B90A00              MOV CX, 000A
0734:461C F2AE                REPNE                    SCASB
0734:461E 740B                JE	462B
0734:4620 FF0E5355            DEC WORD PTR [5553]
0734:4624 BBB401              MOV BX, 01B4
0734:4627 BE7100              MOV SI, 0071
0734:462A C3                  RET
0734:462B 800E625508          OR BYTE PTR [5562], 08
0734:4630 BB0900              MOV BX, 0009
0734:4633 2BD9                SUB BX, CX
0734:4635 D1E3                SHL BX, 1
0734:4637 83FB0C              CMP BX, +0C
0734:463A 7208                JB	4644
0734:463C 8B9FE14C            MOV BX, [BX+4CE1]
0734:4640 BE0C00              MOV SI, 000C
0734:4643 C3                  RET
0734:4644 8DB7BC00            LEA SI, [BX+00BC]
0734:4648 BBF307              MOV BX, 07F3
0734:464B C3                  RET
0734:464C E80700              CALL 4653
0734:464F B103                MOV CL, 03
0734:4651 D2E8                SHR AL, CL
0734:4653 2407                AND AL, 07
0734:4655 C3                  RET
0734:4656 F606585580          TEST BYTE PTR [5558], 80
0734:465B 750B                JNE	4668
0734:465D 800E585580          OR BYTE PTR [5558], 80
0734:4662 E8B400              CALL 4716
0734:4665 A24755              MOV [5547], AL
0734:4668 A04755              MOV AL, [5547]
0734:466B C3                  RET
0734:466C A05B55              MOV AL, [555B]
0734:466F 98                  CBW
0734:4670 D1E0                SHL AX, 1
0734:4672 93                  XCHG AX, BX
0734:4673 8B87C54C            MOV AX, [BX+4CC5]
0734:4677 AB                  STOSW
0734:4678 C3                  RET
0734:4679 E8B400              CALL 472D
0734:467C 50                  PUSH AL
0734:467D E8B000              CALL 472D
0734:4680 E81403              CALL 4994
0734:4683 58                  POP AX
0734:4684 E81003              CALL 4994
0734:4687 C3                  RET
0734:4688 98                  CBW
0734:4689 D1E0                SHL AX, 1
0734:468B 93                  XCHG AX, BX
0734:468C 50                  PUSH AL
0734:468D 8B87B54C            MOV AX, [BX+4CB5]
0734:4691 AB                  STOSW
0734:4692 58                  POP AX
0734:4693 93                  XCHG AX, BX
0734:4694 C3                  RET
0734:4695 800E585510          OR [5558], 10
0734:469A F606575510          TEST BYTE PTR [5557], 10
0734:469F C3                  RET
0734:46A0 80FC00              CMP AH, 00
0734:46A3 7C20                JL	46C5
0734:46A5 9C                  PUSHF
0734:46A6 F606625510          TEST BYTE PTR [5562], 10
0734:46AB 7406                JE	46B3
0734:46AD E83300              CALL 46E0
0734:46B0 83EF04              SUB DI, +04
0734:46B3 E87A00              CALL 472D
0734:46B6 9D                  POPF
0734:46B7 7408                JE	46C1
0734:46B9 50                  PUSH AL
0734:46BA E87300              CALL 472D
0734:46BD E8D702              CALL 4994
0734:46C0 58                  POP AX
0734:46C1 E8D302              CALL 4994
0734:46C4 C3                  RET
0734:46C5 E85100              CALL 4716
0734:46C8 E8D302              CALL 499B
0734:46CB C3                  RET
0734:46CC BF8456              MOV DI, 5684
0734:46CF AC                  LODSB
0734:46D0 8AE0                MOV AH, AL
0734:46D2 247F                AND AL, 7F
0734:46D4 AA                  STOSB
0734:46D5 22E4                AND AH, AH
0734:46D7 79F6                JNS	46CF
0734:46D9 B020                MOV AL, 20
0734:46DB AA                  STOSB
0734:46DC 81FF8C56            CMP DI, 568C
0734:46E0 72F9                JB	46DB
0734:46E2 C3                  RET
0734:46E3 88265A55            MOV [555A], AH
0734:46E7 893E6455            MOV [5564], DI
0734:46EB B051                MOV AL, 51
0734:46ED 80FC20              CMP AH, 20
0734:46F0 7412                JE	4704
0734:46F2 80FC00              CMP AH, 00
0734:46F5 7F0B                JG	4702
0734:46F7 740C                JE	4705
0734:46F9 B84259              MOV AX, 5942
0734:46FC AB                  STOSW
0734:46FD B85445              MOV AX, 4554
0734:4700 EB0A                JMP	470C
0734:4702 B044                MOV AL, 44
0734:4704 AA                  STOSB
0734:4705 B8574F              MOV AX, 4F57
0734:4708 AB                  STOSW
0734:4709 B85244              MOV AX, 4452
0734:470C AB                  STOSW
0734:470D B82050              MOV AX, 5020
0734:4710 AB                  STOSW
0734:4711 B85452              MOV AX, 5254
0734:4714 AB                  STOSW
0734:4715 B020                MOV AL, 20
0734:4717 AA                  STOSB
0734:4718 C3                  RET
0734:4719 1E                  PUSH DS
0734:471A 56                  PUSH DH
0734:471B 8B36BE54            MOV SI, [54BE]
0734:471F 8E1EC254            MOV DS, WORD PTR [54C2]
0734:4723 2E03365355          ADD SI, CS: [5553]
0734:4728 AC                  LODSB
0734:4729 5E                  POP SI
0734:472A 1F                  POP DS
0734:472B FF065355            INC [5553]
0734:472F C3                  RET
0734:4730 1E                  PUSH DS
0734:4731 56                  PUSH DH
0734:4732 8B36BE54            MOV SI, [54BE]
0734:4736 8E1EC254            MOV DS, WORD PTR [54C2]
0734:473A 2E03365355          ADD SI, CS: [5553]
0734:473F AD                  LODSW
0734:4740 5E                  POP SI
0734:4741 1F                  POP DS
0734:4742 8306535502          ADD WORD PTR [5553], +02
0734:4747 C3                  RET
0734:4748 8B36BE54            MOV SI, [54BE]
0734:474C 8E1EC254            MOV DS, WORD PTR [54C2]
0734:4750 AC                  LODSB
0734:4751 E84A02              CALL 499B
0734:4754 4B                  DEC BX
0734:4755 75F9                JNE	4750
0734:4757 16                  PUSH SS
0734:4758 1F                  POP DS
0734:4759 8936BE54            MOV [54BE], SI
0734:475D C3                  RET
0734:475E 833E645500          CMP WORD PTR [5564], +00
0734:4763 7404                JE	4769
0734:4765 010E6455            ADD [5564], CX
0734:4769 8BF7                MOV SI, DI
0734:476B 03F9                ADD DI, CX
0734:476D 8BCF                MOV CX, DI
0734:476F 81E98456            SUB CX, 5684
0734:4773 57                  PUSH DI
0734:4774 FD                  STD
0734:4775 4E                  DEC SI
0734:4776 4F                  DEC DI
0734:4777 F3A4                REPE                    MOVSW
0734:4779 5F                  POP DI
0734:477A FC                  CLD
0734:477B C3                  RET
0734:477C BE5433              MOV SI, 3354
0734:477F F6064E5501          TEST BYTE PTR [554E], 01
0734:4784 741E                JE	47A4
0734:4786 C6440937            MOV BYTE PTR [SI+09], 37
0734:478A A0A654              MOV AL, [54A6]
0734:478D 803EA45400          CMP BYTE PTR [54A4], 00
0734:4792 7517                JNE	47AB
0734:4794 A0A154              MOV AL, [54A1]
0734:4797 3A064D55            CMP AL, [554D]
0734:479B 7214                JB	47B1
0734:479D BE5F33              MOV SI, 335F
0734:47A0 B91800              MOV CX, 0018
0734:47A3 C3                  RET
0734:47A4 C6440936            MOV BYTE PTR [SI+09], 36
0734:47A8 A0A154              MOV AL, [54A1]
0734:47AB 3A064D55            CMP AL, [554D]
0734:47AF 730C                JNB	47BD
0734:47B1 A04D55              MOV AL, [554D]
0734:47B4 0430                ADD AL, 30
0734:47B6 884407              MOV [SI+07], AL
0734:47B9 B90B00              MOV CX, 000B
0734:47BC C3                  RET
0734:47BD BE7733              MOV SI, 3377
0734:47C0 8BC1                MOV AX, CX
0734:47C2 B90500              MOV CX, 0005
0734:47C5 F2AF                REPNE                    SCASB
0734:47C7 7511                JNE	47DA
0734:47C9 BFAC4B              MOV DI, 4BAC
0734:47CC 2BF9                SUB DI, CX
0734:47CE 33C9                XOR CX, CX
0734:47D0 A0A654              MOV AL, [54A6]
0734:47D3 3A05                CMP AL, [DI]
0734:47D5 7E03                JLE	47DA
0734:47D7 B90A00              MOV CX, 000A
0734:47DA C3                  RET
0734:47DB BE282E              MOV SI, 2E28
0734:47DE BF6856              MOV DI, 5668
0734:47E1 B90800              MOV CX, 0008
0734:47E4 F606A25401          TEST BYTE PTR [54A2], 01
0734:47E9 7402                JE	47ED
0734:47EB B106                MOV CL, 06
0734:47ED E85500              CALL 4842
0734:47F0 E8D301              CALL 49C3
0734:47F3 BF6856              MOV DI, 5668
0734:47F6 F606A25401          TEST BYTE PTR [54A2], 01
0734:47FB 7513                JNE	4810
0734:47FD 56                  PUSH DH
0734:47FE 83C604              ADD SI, +04
0734:4801 B104                MOV CL, 04
0734:4803 E84600              CALL 4849
0734:4806 5E                  POP SI
0734:4807 41                  INC CX
0734:4808 E83A00              CALL 4842
0734:480B E85E01              CALL 4969
0734:480E EB15                JMP	4825
0734:4810 B104                MOV CL, 04
0734:4812 E84900              CALL 485B
0734:4815 56                  PUSH DH
0734:4816 E85301              CALL 4969
0734:4819 E8AA01              CALL 49C3
0734:481C 5E                  POP SI
0734:481D BF6856              MOV DI, 5668
0734:4820 B106                MOV CL, 06
0734:4822 E82700              CALL 4849
0734:4825 E89E01              CALL 49C3
0734:4828 BE3455              MOV SI, 5534
0734:482B BFBE54              MOV DI, 54BE
0734:482E A5                  MOVSW
0734:482F A5                  MOVSW
0734:4830 A12A55              MOV AX, [552A]
0734:4833 AB                  STOSW
0734:4834 C606625503          MOV BYTE PTR [5562], 03
0734:4839 E8E8F6              CALL 3F21
0734:483C 66                  DB 66
0734:483D A13455              MOV AX, [5534]
0734:4840 66                  DB 66
0734:4841 A3BE54              MOV [54BE], AX
0734:4844 C3                  RET
0734:4845 F606A25401          TEST BYTE PTR [54A2], 01
0734:484A 7512                JNE	485E
0734:484C A5                  MOVSW
0734:484D B03D                MOV AL, 3D
0734:484F AA                  STOSB
0734:4850 8B5C1E              MOV BX, [SI+1E]
0734:4853 8B07                MOV AX, [BX]
0734:4855 E83F01              CALL 4994
0734:4858 B020                MOV AL, 20
0734:485A AA                  STOSB
0734:485B E2EF                LOOP	484C
0734:485D C3                  RET
0734:485E B045                MOV AL, 45
0734:4860 AA                  STOSB
0734:4861 A5                  MOVSW
0734:4862 B03D                MOV AL, 3D
0734:4864 AA                  STOSB
0734:4865 8B5C1E              MOV BX, [SI+1E]
0734:4868 66                  DB 66
0734:4869 8B07                MOV AX, [BX]
0734:486B E82001              CALL 498B
0734:486E B020                MOV AL, 20
0734:4870 AA                  STOSB
0734:4871 E2EB                LOOP	485E
0734:4873 C3                  RET
0734:4874 BF6856              MOV DI, 5668
0734:4877 BE4E4D              MOV SI, 4D4E
0734:487A BB6855              MOV BX, 5568
0734:487D 66                  DB 66
0734:487E DD37                FNSAVE DWORD PTR [BX]
0734:4880 B90300              MOV CX, 0003
0734:4883 A5                  MOVSW
0734:4884 B03D                MOV AL, 3D
0734:4886 AA                  STOSB
0734:4887 87F3                XCHG SI, BX
0734:4889 66                  DB 66
0734:488A AD                  LODSW
0734:488B 87F3                XCHG SI, BX
0734:488D 50                  PUSH AL
0734:488E E80601              CALL 4994
0734:4891 B020                MOV AL, 20
0734:4893 AA                  STOSB
0734:4894 E2ED                LOOP	4883
0734:4896 53                  PUSH BX
0734:4897 A5                  MOVSW
0734:4898 A5                  MOVSW
0734:4899 87F3                XCHG SI, BX
0734:489B 66                  DB 66
0734:489C AD                  LODSW
0734:489D AD                  LODSW
0734:489E 87F3                XCHG SI, BX
0734:48A0 25FF07              AND AX, 07FF
0734:48A3 E8F100              CALL 4994
0734:48A6 B020                MOV AL, 20
0734:48A8 AA                  STOSB
0734:48A9 5B                  POP BX
0734:48AA B102                MOV CL, 02
0734:48AC 51                  PUSH CX
0734:48AD A5                  MOVSW
0734:48AE A4                  MOVSB
0734:48AF 87F3                XCHG SI, BX
0734:48B1 66                  DB 66
0734:48B2 AD                  LODSW
0734:48B3 66                  DB 66
0734:48B4 8BD0                MOV DX, AX
0734:48B6 66                  DB 66
0734:48B7 AD                  LODSW
0734:48B8 87F3                XCHG DX, BX
0734:48BA B10C                MOV CL, 0C
0734:48BC 66                  DB 66
0734:48BD D3E8                SHR AX, CL
0734:48BF 803EA15403          CMP BYTE PTR [54A1], 03
0734:48C4 7205                JB	48CB
0734:48C6 E8CE00              CALL 4994
0734:48C9 EB03                JMP	48CE
0734:48CB E8DB00              CALL 49A6
0734:48CE 8BC2                MOV AX, DX
0734:48D0 E8C400              CALL 4994
0734:48D3 B020                MOV AL, 20
0734:48D5 AA                  STOSB
0734:48D6 59                  POP CX
0734:48D7 E2D3                LOOP	48AC
0734:48D9 87F3                XCHG AX, BX
0734:48DB E8E800              CALL 49C3
0734:48DE 5D                  POP BP
0734:48DF 58                  POP AX
0734:48E0 5A                  POP DX
0734:48E1 B10A                MOV CL, 0A
0734:48E3 D3E8                SHR AX, CL
0734:48E5 240E                AND AL, 0E
0734:48E7 8AC8                MOV CL, AL
0734:48E9 D3CD                ROR BP, CL
0734:48EB B130                MOV CL, 30
0734:48ED BF6856              MOV DI, 5668
0734:48F0 51                  PUSH CX
0734:48F1 B85354              MOV AX, 5453
0734:48F4 AB                  STOSW
0734:48F5 8AC1                MOV AL, CL
0734:48F7 B43D                MOV AH, 3D
0734:48F9 AB                  STOSW
0734:48FA 57                  PUSH DI
0734:48FB A801                TEST AL, 01
0734:48FD B020                MOV AL, 20
0734:48FF B91600              MOV CX, 0016
0734:4902 F3AA                REPE                    STOSW
0734:4904 7404                JE	490A
0734:4906 B80D0A              MOV AX, 0A0D
0734:4909 AB                  STOSW
0734:490A B024                MOV AL, 24
0734:490C AA                  STOSB
0734:490D 5F                  POP DI
0734:490E 8BC5                MOV AX, BP
0734:4910 D1CD                ROR BP, 1
0734:4912 D1CD                ROR BP, 1
0734:4914 2403                AND AL, 03
0734:4916 741D                JE	4935
0734:4918 56                  PUSH DH
0734:4919 BE5E4D              MOV SI, 4D5E
0734:491C B105                MOV CL, 05
0734:491E 3C03                CMP AL, 03
0734:4920 740E                JE	4930
0734:4922 BE634D              MOV SI, 4D63
0734:4925 B103                MOV CL, 03
0734:4927 3C02                CMP AL, 02
0734:4929 7405                JE	4930
0734:492B B030                MOV AL, 30
0734:492D AA                  STOSB
0734:492E B100                MOV CL, 00
0734:4930 F3A4                REPE                    MOVSW
0734:4932 5E                  POP SI
0734:4933 EB20                JMP	4955
0734:4935 8B4408              MOV AX, [SI+08]
0734:4938 E85C00              CALL 4994
0734:493B B02E                MOV AL, 2E
0734:493D AA                  STOSB
0734:493E 8B4406              MOV AX, [SI+06]
0734:4941 E85300              CALL 4994
0734:4944 8B4404              MOV AX, [SI+04]
0734:4947 E84D00              CALL 4994
0734:494A 8B4402              MOV AX, [SI+02]
0734:494D E84700              CALL 4994
0734:4950 8B04                MOV AX, [SI]
0734:4952 E84200              CALL 4994
0734:4955 BA6856              MOV DX, 5668
0734:4958 E8F9ED              CALL 3751
0734:495B 59                  POP CX
0734:495C 83C60A              ADD SI, +0A
0734:495F FEC1                INC CL
0734:4961 80F938              CMP CL, 38
0734:4964 7587                JNE	48ED
0734:4966 66                  DB 66
0734:4967 DD266855            FRSTOR DWORD PTR [5568]
0734:496B C3                  RET
0734:496C BE682E              MOV SI, 2E68
0734:496F B90800              MOV CX, 0008
0734:4972 AD                  LODSW
0734:4973 85063855            TEST [5538], AX
0734:4977 8B440E              MOV AX, [SI+0E]
0734:497A 7403                JE	497F
0734:497C 8B441E              MOV AX, [SI+1E]
0734:497F AB                  STOSW
0734:4980 B020                MOV AL, 20
0734:4982 AA                  STOSB
0734:4983 E2ED                LOOP	4972
0734:4985 C3                  RET
0734:4986 AC                  LODSB
0734:4987 AA                  STOSB
0734:4988 AC                  LODSB
0734:4989 3C00                CMP AL, 00
0734:498B 75FA                JNE	4987
0734:498D C3                  RET
0734:498E 50                  PUSH AL
0734:498F 66                  DB 66
0734:4990 C1                  DB C1
0734:4991 E810E8              CALL 31A1
0734:4994 0100                ADD [BX+SI], AX
0734:4996 58                  POP AX
0734:4997 50                  PUSH AL
0734:4998 8AC4                MOV AL, AH
0734:499A E80100              CALL 499B
0734:499D 58                  POP AX
0734:499E 50                  PUSH AL
0734:499F 51                  PUSH CX
0734:49A0 B104                MOV CL, 04
0734:49A2 D2E8                SHR AL, CL
0734:49A4 E80200              CALL 49A6
0734:49A7 59                  POP CX
0734:49A8 58                  POP AX
0734:49A9 240F                AND AL, 0F
0734:49AB 0490                ADD AL, 90
0734:49AD 27                  BAA
0734:49AE 1440                ADC AL, 40
0734:49B0 27                  BAA
0734:49B1 AA                  STOSB
0734:49B2 C3                  RET
0734:49B3 50                  PUSH AL
0734:49B4 2BC7                SUB AX, DI
0734:49B6 7706                JA	49BE
0734:49B8 E80B00              CALL 49C3
0734:49BB BF6856              MOV DI, 5668
0734:49BE 59                  POP CX
0734:49BF 2BCF                SUB CX, DI
0734:49C1 B020                MOV AL, 20
0734:49C3 F3AA                REPE                    STOSW
0734:49C5 C3                  RET
0734:49C6 4F                  DEC DI
0734:49C7 803D20              CMP BYTE PTR [DI], 20
0734:49CA 74FA                JE	49C6
0734:49CC 47                  INC DI
0734:49CD B80D0A              MOV AX, 0A0D
0734:49D0 AB                  STOSW
0734:49D1 8BCF                MOV CX, DI
0734:49D3 BA6856              MOV DX, 5668
0734:49D6 2BCA                SUB CX, DX
0734:49D8 E88DF1              CALL 3B65
0734:49DB 7509                JNE	49E6
0734:49DD BB0100              MOV BX, 0001
0734:49E0 B440                MOV AH, 40
0734:49E2 E865E3              CALL 2D47
0734:49E5 C3                  RET
0734:49E6 E30E                JCXZ	49F6
0734:49E8 56                  PUSH DH
0734:49E9 8BF2                MOV SI, DX
0734:49EB AC                  LODSB
0734:49EC BB0700              MOV BX, 0007
0734:49EF B40E                MOV AH, 0E
0734:49F1 CD10                INT 10
0734:49F3 E2F6                LOOP	49EB
0734:49F5 5E                  POP SI
0734:49F6 C3                  RET
0734:49F7 BF0455              MOV DI, 5504
0734:49FA B91C00              MOV CX, 001C
0734:49FD 33C0                XOR AX, AX
0734:49FF F3AB                REPE                    STOSW
0734:4A01 B448                MOV AH, 48
0734:4A03 BBFFFF              MOV BX, FFFF
0734:4A06 CD21                INT 21
0734:4A08 83FB11              CMP BX, +11
0734:4A0B 727F                JB	4A8C
0734:4A0D B448                MOV AH, 48
0734:4A0F CD21                INT 21
0734:4A11 7279                JB	4A8C
0734:4A13 C606355501          MOV BYTE PTR [5535], 01
0734:4A18 E81EE4              CALL 2E36
0734:4A1B 53                  PUSH BX
0734:4A1C BF2455              MOV DI, 5524
0734:4A1F AB                  STOSW
0734:4A20 AB                  STOSW
0734:4A21 AB                  STOSW
0734:4A22 AB                  STOSW
0734:4A23 E8C8E4              CALL 2EEB
0734:4A26 8B1E2A55            MOV BX, [552A]
0734:4A2A 8EC3                MOV ES, BL
0734:4A2C 58                  POP AX
0734:4A2D 8BD0                MOV DX, AX
0734:4A2F 03D3                ADD DX, BX
0734:4A31 2689160200          MOV ES: [0002], DX
0734:4A36 3D0010              CMP AX, 1000
0734:4A39 7602                JBE	4A3D
0734:4A3B 33C0                XOR AX, AX
0734:4A3D B104                MOV CL, 04
0734:4A3F D3E0                SHL AX, CL
0734:4A41 48                  DEC AX
0734:4A42 48                  DEC AX
0734:4A43 A33055              MOV [5530], AX
0734:4A46 97                  XCHG AX, DI
0734:4A47 33C0                XOR AX, AX
0734:4A49 AB                  STOSW
0734:4A4A B455                MOV AH, 55
0734:4A4C 8CC2                MOV DL, ES
0734:4A4E 268B360200          MOV SI, ES: [0002]
0734:4A53 F8                  CLC
0734:4A54 CD21                INT 21
0734:4A56 26C7060A009F1D      MOV WORD PTR ES: [000A], 1D9F
0734:4A5D 268C0E0C00          MOV WORD PTR ES: [000C], SS
0734:4A62 803ECF5400          CMP BYTE PTR [54CF], 00
0734:4A67 750A                JNE	4A73
0734:4A69 FE06CF54            INC BYTE PTR [54CF]
0734:4A6D 26C6060001C3        MOV BYTE PTR ES: [0100], C3
0734:4A73 8C067C54            MOV WORD PTR [547C], ES
0734:4A77 8CC0                MOV AL, ES
0734:4A79 48                  DEC AX
0734:4A7A 8EC0                MOV ES, AL
0734:4A7C 40                  INC AX
0734:4A7D 26                  SEG ES (unused)
0734:4A7E A30100              MOV [0001], AX
0734:4A81 26C606080000        MOV BYTE PTR ES: [0008], 00
0734:4A87 1E                  PUSH DS
0734:4A88 07                  POP ES
0734:4A89 E8A0E2              CALL 2D29
0734:4A8C C3                  RET
0734:4A8D 00B301DE            ADD [BP+DI+DE01], DH
0734:4A91 1C35                SSB AL, 35
0734:4A93 0C2D                OR AL, 2D
0734:4A95 0D000E              OR AX, 0E00
0734:4A98 220F                AND CL, [BX]
0734:4A9A 99                  CWD
0734:4A9B 0F                  DB 0F
0734:4A9C F9                  STC
0734:4A9D 0F                  DB 0F
0734:4A9E 3D10DE              CMP AX, DE10
0734:4AA1 1CDE                SSB AL, DE
0734:4AA3 1CCA                SSB AL, CA
0734:4AA5 106012              ADC [BX+SI+12], AH
0734:4AA8 4D                  DEC BP
0734:4AA9 132F                ADC BP, [BX]
0734:4AAB 14DA                ADC AL, DA
0734:4AAD 14D0                ADC AL, D0
0734:4AAF 155116              ADC AX, 1651
0734:4AB2 4E                  DEC SI
0734:4AB3 17                  POP SS
0734:4AB4 F8                  CLC
0734:4AB5 17                  POP SS
0734:4AB6 FE18                CALL FAR [BX+SI]
0734:4AB8 DE1C                FICOMP WORD PTR [SI]
0734:4ABA 7519                JNE	4AD5
0734:4ABC FF1A                CALL FAR [BP+SI]
0734:4ABE 00B61D01            ADD [BP+011D], DH
0734:4AC2 BF1D03              MOV DI, 031D
0734:4AC5 C8                  DB C8
0734:4AC6 1D2203              SSB AX, 0322
0734:4AC9 014158              ADD [BX+DI+58], AX
0734:4ACC 42                  INC DX
0734:4ACD 58                  POP AX
0734:4ACE 43                  INC BX
0734:4ACF 58                  POP AX
0734:4AD0 44                  INC SP
0734:4AD1 58                  POP AX
0734:4AD2 53                  PUSH BX
0734:4AD3 50                  PUSH AL
0734:4AD4 42                  INC DX
0734:4AD5 50                  PUSH AL
0734:4AD6 53                  PUSH BX
0734:4AD7 49                  DEC CX
0734:4AD8 44                  INC SP
0734:4AD9 49                  DEC CX
0734:4ADA 49                  DEC CX
0734:4ADB 50                  PUSH AL
0734:4ADC 46                  INC SI
0734:4ADD 4C                  DEC SP
0734:4ADE 44                  INC SP
0734:4ADF 53                  PUSH BX
0734:4AE0 45                  INC BP
0734:4AE1 53                  PUSH BX
0734:4AE2 53                  PUSH BX
0734:4AE3 53                  PUSH BX
0734:4AE4 43                  INC BX
0734:4AE5 53                  PUSH BX
0734:4AE6 46                  INC SI
0734:4AE7 53                  PUSH BX
0734:4AE8 47                  INC DI
0734:4AE9 53                  PUSH BX
0734:4AEA 205514              AND [DI+14], DL
0734:4AED 55                  PUSH BP
0734:4AEE 1C55                SSB AL, 55
0734:4AF0 185530              SSB [DI+30], DL
0734:4AF3 55                  PUSH BP
0734:4AF4 0C55                OR AL, 55
0734:4AF6 085504              OR [DI+04], DL
0734:4AF9 55                  PUSH BP
0734:4AFA 3455                XOR AL, 55
0734:4AFC 385524              CMP [DI+24], DL
0734:4AFF 55                  PUSH BP
0734:4B00 26                  SEG ES (unused)
0734:4B01 55                  PUSH BP
0734:4B02 28552A              SUB [DI+2A], DL
0734:4B05 55                  PUSH BP
0734:4B06 2C55                SUB AL, 55
0734:4B08 2E                  SEG CS (unused)
0734:4B09 55                  PUSH BP
0734:4B0A 0008                ADD [BX+SI], CL
0734:4B0C 0004                ADD [SI], AL
0734:4B0E 0002                ADD [BP+SI], AL
0734:4B10 800040              ADD BYTE PTR [BX+SI], 40
0734:4B13 0010                ADD [BX+SI], DL
0734:4B15 0004                ADD [SI], AL
0734:4B17 0001                ADD [BX+DI], AL
0734:4B19 004E56              ADD [BP+56], CL
0734:4B1C 55                  PUSH BP
0734:4B1D 50                  PUSH AL
0734:4B1E 44                  INC SP
0734:4B1F 49                  DEC CX
0734:4B20 50                  PUSH AL
0734:4B21 4C                  DEC SP
0734:4B22 4E                  DEC SI
0734:4B23 5A                  POP DX
0734:4B24 4E                  DEC SI
0734:4B25 41                  INC CX
0734:4B26 50                  PUSH AL
0734:4B27 4F                  DEC DI
0734:4B28 4E                  DEC SI
0734:4B29 43                  INC BX
0734:4B2A 4F                  DEC DI
0734:4B2B 56                  PUSH DH
0734:4B2C 44                  INC SP
0734:4B2D 4E                  DEC SI
0734:4B2E 45                  INC BP
0734:4B2F 49                  DEC CX
0734:4B30 4E                  DEC SI
0734:4B31 47                  INC DI
0734:4B32 5A                  POP DX
0734:4B33 52                  PUSH DL
0734:4B34 41                  INC CX
0734:4B35 43                  INC BX
0734:4B36 50                  PUSH AL
0734:4B37 45                  INC BP
0734:4B38 43                  INC BX
0734:4B39 59                  POP CX
0734:4B3A 66                  DB 66
0734:4B3B 67                  DB 67
0734:4B3C 26                  SEG ES (unused)
0734:4B3D 26                  SEG ES (unused)
0734:4B3E 26                  SEG ES (unused)
0734:4B3F 26                  SEG ES (unused)
0734:4B40 26                  SEG ES (unused)
0734:4B41 65                  DB 65
0734:4B42 F2                  REPNE (unused)
0734:4B43 F3AC                REPE                    LODSW
0734:4B45 AD                  LODSW
0734:4B46 AA                  STOSB
0734:4B47 AB                  STOSW
0734:4B48 A4                  MOVSB
0734:4B49 A5                  MOVSW
0734:4B4A A6                  CMPSB
0734:4B4B A7                  CMPSW
0734:4B4C AE                  SCASB
0734:4B4D AF                  SCASW
0734:4B4E 6C                  DB 6C
0734:4B4F 6D                  DB 6D
0734:4B50 6E                  DB 6E
0734:4B51 6F                  DB 6F
0734:4B52 CC                  INT 3
0734:4B53 CDE0                INT E0
0734:4B55 E1E2                LOOPE	4B39
0734:4B57 E89A82              CALL CDF1
0734:4B5A 818080808080        ADD WORD PTR [BX+SI+8080], 8080
0734:4B60 8080800000          ADD BYTE PTR [BX+SI+0080], 00
0734:4B65 0000                ADD [BX+SI], AL
0734:4B67 0000                ADD [BX+SI], AL
0734:4B69 0000                ADD [BX+SI], AL
0734:4B6B 0000                ADD [BX+SI], AL
0734:4B6D 0000                ADD [BX+SI], AL
0734:4B6F 0000                ADD [BX+SI], AL
0734:4B71 0001                ADD [BX+DI], AL
0734:4B73 0101                ADD [BX+DI], AX
0734:4B75 014244              ADD [BP+SI+44], AX
0734:4B78 2D3A44              SUB AX, 443A
0734:4B7B 4F                  DEC DI
0734:4B7C 53                  PUSH BX
0734:4B7D 204465              AND [SI+65], AL
0734:4B80 62                  DB 62
0734:4B81 7567                JNE	4BEA
0734:4B83 207631              AND [BP+31], DH
0734:4B86 2E3235              XOR DH, CS: [DI]
0734:4B89 206865              AND [BX+SI+65], CH
0734:4B8C 6C                  DB 6C
0734:4B8D 7020                JO	4BAF
0734:4B8F 7363                JNB	4BF4
0734:4B91 7265                JB	4BF8
0734:4B93 65                  DB 65
0734:4B94 6E                  DB 6E
0734:4B95 0D0A61              OR AX, 610A
0734:4B98 7373                JNB	4C0D
0734:4B9A 65                  DB 65
0734:4B9B 6D                  DB 6D
0734:4B9C 62                  DB 62
0734:4B9D 6C                  DB 6C
0734:4B9E 65                  DB 65
0734:4B9F 094120              OR [BX+DI+20], AX
0734:4BA2 5B                  POP BX
0734:4BA3 61                  DB 61
0734:4BA4 64                  SEG FS (unused)
0734:4BA5 64                  SEG FS (unused)
0734:4BA6 7265                JB	4C0D
0734:4BA8 7373                JNB	4C1D
0734:4BAA 5D                  POP BP
0734:4BAB 0D0A63              OR AX, 630A
0734:4BAE 6F                  DB 6F
0734:4BAF 6D                  DB 6D
0734:4BB0 7061                JO	4C13
0734:4BB2 7265                JB	4C19
0734:4BB4 0909                OR [BX+DI], CX
0734:4BB6 43                  INC BX
0734:4BB7 207261              AND [BP+SI+61], DH
0734:4BBA 6E                  DB 6E
0734:4BBB 67                  DB 67
0734:4BBC 65                  DB 65
0734:4BBD 206164              AND [BX+DI+64], AH
0734:4BC0 64                  SEG FS (unused)
0734:4BC1 7265                JB	4C28
0734:4BC3 7373                JNB	4C38
0734:4BC5 0D0A64              OR AX, 640A
0734:4BC8 756D                JNE	4C37
0734:4BCA 7009                JO	4BD5
0734:4BCC 094420              OR [SI+20], AX
0734:4BCF 5B                  POP BX
0734:4BD0 7261                JB	4C33
0734:4BD2 6E                  DB 6E
0734:4BD3 67                  DB 67
0734:4BD4 65                  DB 65
0734:4BD5 5D                  POP BP
0734:4BD6 0D0A64              OR AX, 640A
0734:4BD9 756D                JNE	4C48
0734:4BDB 7020                JO	4BFD
0734:4BDD 4D                  DEC BP
0734:4BDE 43                  INC BX
0734:4BDF 42                  INC DX
0734:4BE0 206368              AND [BP+DI+68], AH
0734:4BE3 61                  DB 61
0734:4BE4 69                  DB 69
0734:4BE5 6E                  DB 6E
0734:4BE6 09444D              OR [SI+4D], AX
0734:4BE9 0D0A65              OR AX, 650A
0734:4BEC 6E                  DB 6E
0734:4BED 7465                JE	4C54
0734:4BEF 7209                JB	4BFA
0734:4BF1 094520              OR [DI+20], AX
0734:4BF4 61                  DB 61
0734:4BF5 64                  SEG FS (unused)
0734:4BF6 64                  SEG FS (unused)
0734:4BF7 7265                JB	4C5E
0734:4BF9 7373                JNB	4C6E
0734:4BFB 205B6C              AND [BP+DI+6C], BL
0734:4BFE 69                  DB 69
0734:4BFF 7374                JNB	4C75
0734:4C01 5D                  POP BP
0734:4C02 0D0A66              OR AX, 660A
0734:4C05 69                  DB 69
0734:4C06 6C                  DB 6C
0734:4C07 6C                  DB 6C
0734:4C08 0909                OR [BX+DI], CX
0734:4C0A 46                  INC SI
0734:4C0B 207261              AND [BP+SI+61], DH
0734:4C0E 6E                  DB 6E
0734:4C0F 67                  DB 67
0734:4C10 65                  DB 65
0734:4C11 206C69              AND [SI+69], CH
0734:4C14 7374                JNB	4C8A
0734:4C16 0D0A67              OR AX, 670A
0734:4C19 6F                  DB 6F
0734:4C1A 0909                OR [BX+DI], CX
0734:4C1C 47                  INC DI
0734:4C1D 205B3D              AND [BP+DI+3D], BL
0734:4C20 61                  DB 61
0734:4C21 64                  SEG FS (unused)
0734:4C22 64                  SEG FS (unused)
0734:4C23 7265                JB	4C8A
0734:4C25 7373                JNB	4C9A
0734:4C27 5D                  POP BP
0734:4C28 205B62              AND [BP+DI+62], BL
0734:4C2B 7265                JB	4C92
0734:4C2D 61                  DB 61
0734:4C2E 6B                  DB 6B
0734:4C2F 7074                JO	4CA5
0734:4C31 735D                JNB	4C90
0734:4C33 0D0A68              OR AX, 680A
0734:4C36 65                  DB 65
0734:4C37 7820                JS	4C59
0734:4C39 61                  DB 61
0734:4C3A 64                  SEG FS (unused)
0734:4C3B 64                  SEG FS (unused)
0734:4C3C 2F                  DAS
0734:4C3D 7375                JNB	4CB4
0734:4C3F 62                  DB 62
0734:4C40 094820              OR [BX+SI+20], CX
0734:4C43 7661                JBE	4CA6
0734:4C45 6C                  DB 6C
0734:4C46 7565                JNE	4CAD
0734:4C48 3120                XOR [BX+SI], SP
0734:4C4A 7661                JBE	4CAD
0734:4C4C 6C                  DB 6C
0734:4C4D 7565                JNE	4CB4
0734:4C4F 320D                XOR CL, [DI]
0734:4C51 0A696E              OR CH, [BX+DI+6E]
0734:4C54 7075                JO	4CCB
0734:4C56 7409                JE	4C61
0734:4C58 09495B              OR [BX+DI+5B], CX
0734:4C5B 57                  PUSH DI
0734:4C5C 7C44                JL	4CA2
0734:4C5E 5D                  POP BP
0734:4C5F 20706F              AND [BX+SI+6F], DH
0734:4C62 7274                JB	4CD8
0734:4C64 0D0A6C              OR AX, 6C0A
0734:4C67 6F                  DB 6F
0734:4C68 61                  DB 61
0734:4C69 64207072            AND FS: [BX+SI+72], DH
0734:4C6D 6F                  DB 6F
0734:4C6E 67                  DB 67
0734:4C6F 7261                JB	4CD2
0734:4C71 6D                  DB 6D
0734:4C72 094C20              OR [SI+20], CX
0734:4C75 5B                  POP BX
0734:4C76 61                  DB 61
0734:4C77 64                  SEG FS (unused)
0734:4C78 64                  SEG FS (unused)
0734:4C79 7265                JB	4CE0
0734:4C7B 7373                JNB	4CF0
0734:4C7D 5D                  POP BP
0734:4C7E 0D0A6C              OR AX, 6C0A
0734:4C81 6F                  DB 6F
0734:4C82 61                  DB 61
0734:4C83 64207365            AND FS: [BP+DI+65], DH
0734:4C87 63                  DB 63
0734:4C88 746F                JE	4CF9
0734:4C8A 7273                JB	4CFF
0734:4C8C 094C20              OR [SI+20], CX
0734:4C8F 61                  DB 61
0734:4C90 64                  SEG FS (unused)
0734:4C91 64                  SEG FS (unused)
0734:4C92 7265                JB	4CF9
0734:4C94 7373                JNB	4D09
0734:4C96 206472              AND [SI+72], AH
0734:4C99 69                  DB 69
0734:4C9A 7665                JBE	4D01
0734:4C9C 207365              AND [BP+DI+65], DH
0734:4C9F 63                  DB 63
0734:4CA0 746F                JE	4D11
0734:4CA2 7220                JB	4CC4
0734:4CA4 63                  DB 63
0734:4CA5 6F                  DB 6F
0734:4CA6 756E                JNE	4D16
0734:4CA8 740D                JE	4CB7
0734:4CAA 0A6D6F              OR CH, [DI+6F]
0734:4CAD 7665                JBE	4D14
0734:4CAF 0909                OR [BX+DI], CX
0734:4CB1 4D                  DEC BP
0734:4CB2 207261              AND [BP+SI+61], DH
0734:4CB5 6E                  DB 6E
0734:4CB6 67                  DB 67
0734:4CB7 65                  DB 65
0734:4CB8 206164              AND [BX+DI+64], AH
0734:4CBB 64                  SEG FS (unused)
0734:4CBC 7265                JB	4D23
0734:4CBE 7373                JNB	4D33
0734:4CC0 0D0A38              OR AX, 380A
0734:4CC3 307838              XOR [BX+SI+38], BH
0734:4CC6 36206D6F            AND ES: [DI+6F], CH
0734:4CCA 64                  SEG FS (unused)
0734:4CCB 65                  DB 65
0734:4CCC 094D20              OR [DI+20], CX
0734:4CCF 5B                  POP BX
0734:4CD0 785D                JS	4D2F
0734:4CD2 2028                AND [BX+SI], CH
0734:4CD4 783D                JS	4D13
0734:4CD6 302E2E36            XOR [362E], CH
0734:4CDA 290D                SUB [DI], CX
0734:4CDC 0A7365              OR DH, [BP+DI+65]
0734:4CDF 7420                JE	4D01
0734:4CE1 46                  INC SI
0734:4CE2 50                  PUSH AL
0734:4CE3 55                  PUSH BP
0734:4CE4 206D6F              AND [DI+6F], CH
0734:4CE7 64                  SEG FS (unused)
0734:4CE8 65                  DB 65
0734:4CE9 094D43              OR [DI+43], CX
0734:4CEC 205B32              AND [BP+DI+32], BL
0734:4CEF 7C4E                JL	4D3F
0734:4CF1 5D                  POP BP
0734:4CF2 2028                AND [BX+SI], CH
0734:4CF4 323D                XOR BH, [DI]
0734:4CF6 3238                XOR BH, [BX+SI]
0734:4CF8 37                  AAA
0734:4CF9 2C4E                SUB AL, 4E
0734:4CFB 3D6E6F              CMP AX, 6F6E
0734:4CFE 204650              AND [BP+50], AL
0734:4D01 55                  PUSH BP
0734:4D02 290D                SUB [DI], CX
0734:4D04 0A7365              OR DH, [BP+DI+65]
0734:4D07 7420                JE	4D29
0734:4D09 6E                  DB 6E
0734:4D0A 61                  DB 61
0734:4D0B 6D                  DB 6D
0734:4D0C 65                  DB 65
0734:4D0D 094E20              OR [BP+20], CX
0734:4D10 5B                  POP BX
0734:4D11 5B                  POP BX
0734:4D12 64                  SEG FS (unused)
0734:4D13 7269                JB	4D7E
0734:4D15 7665                JBE	4D7C
0734:4D17 3A5D5B              CMP BL, [DI+5B]
0734:4D1A 7061                JO	4D7D
0734:4D1C 7468                JE	4D86
0734:4D1E 5D                  POP BP
0734:4D1F 7072                JO	4D93
0734:4D21 6F                  DB 6F
0734:4D22 67                  DB 67
0734:4D23 6E                  DB 6E
0734:4D24 61                  DB 61
0734:4D25 6D                  DB 6D
0734:4D26 65                  DB 65
0734:4D27 205B61              AND [BP+DI+61], BL
0734:4D2A 7267                JB	4D93
0734:4D2C 6C                  DB 6C
0734:4D2D 69                  DB 69
0734:4D2E 7374                JNB	4DA4
0734:4D30 5D                  POP BP
0734:4D31 5D                  POP BP
0734:4D32 0D0A6F              OR AX, 6F0A
0734:4D35 7574                JNE	4DAB
0734:4D37 7075                JO	4DAE
0734:4D39 7409                JE	4D44
0734:4D3B 094F5B              OR [BX+5B], CX
0734:4D3E 57                  PUSH DI
0734:4D3F 7C44                JL	4D85
0734:4D41 5D                  POP BP
0734:4D42 20706F              AND [BX+SI+6F], DH
0734:4D45 7274                JB	4DBB
0734:4D47 207661              AND [BP+61], DH
0734:4D4A 6C                  DB 6C
0734:4D4B 7565                JNE	4DB2
0734:4D4D 0D0A70              OR AX, 700A
0734:4D50 726F                JB	4DC1
0734:4D52 63                  DB 63
0734:4D53 65                  DB 65
0734:4D54 65                  DB 65
0734:4D55 640909              OR FS: [BX+DI], CX
0734:4D58 50                  PUSH AL
0734:4D59 205B3D              AND [BP+DI+3D], BL
0734:4D5C 61                  DB 61
0734:4D5D 64                  SEG FS (unused)
0734:4D5E 64                  SEG FS (unused)
0734:4D5F 7265                JB	4DC6
0734:4D61 7373                JNB	4DD6
0734:4D63 5D                  POP BP
0734:4D64 205B63              AND [BP+DI+63], BL
0734:4D67 6F                  DB 6F
0734:4D68 756E                JNE	4DD8
0734:4D6A 745D                JE	4DC9
0734:4D6C 0D0A71              OR AX, 710A
0734:4D6F 7569                JNE	4DDA
0734:4D71 7409                JE	4D7C
0734:4D73 09510D              OR [BX+DI+0D], DX
0734:4D76 0A7265              OR DH, [BP+SI+65]
0734:4D79 67                  DB 67
0734:4D7A 69                  DB 69
0734:4D7B 7374                JNB	4DF1
0734:4D7D 65                  DB 65
0734:4D7E 7209                JB	4D89
0734:4D80 52                  PUSH DL
0734:4D81 205B72              AND [BP+DI+72], BL
0734:4D84 65                  DB 65
0734:4D85 67                  DB 67
0734:4D86 69                  DB 69
0734:4D87 7374                JNB	4DFD
0734:4D89 65                  DB 65
0734:4D8A 7220                JB	4DAC
0734:4D8C 5B                  POP BX
0734:4D8D 7661                JBE	4DF0
0734:4D8F 6C                  DB 6C
0734:4D90 7565                JNE	4DF7
0734:4D92 5D                  POP BP
0734:4D93 5D                  POP BP
0734:4D94 0D0A46              OR AX, 460A
0734:4D97 50                  PUSH AL
0734:4D98 55                  PUSH BP
0734:4D99 207265              AND [BP+SI+65], DH
0734:4D9C 67                  DB 67
0734:4D9D 69                  DB 69
0734:4D9E 7374                JNB	4E14
0734:4DA0 65                  DB 65
0734:4DA1 7209                JB	4DAC
0734:4DA3 52                  PUSH DL
0734:4DA4 4E                  DEC SI
0734:4DA5 0D0A74              OR AX, 740A
0734:4DA8 6F                  DB 6F
0734:4DA9 67                  DB 67
0734:4DAA 67                  DB 67
0734:4DAB 6C                  DB 6C
0734:4DAC 65                  DB 65
0734:4DAD 2033                AND [BP+DI], DH
0734:4DAF 38362072            CMP [7220], DH
0734:4DB3 65                  DB 65
0734:4DB4 67                  DB 67
0734:4DB5 7309                JNB	4DC0
0734:4DB7 52                  PUSH DL
0734:4DB8 58                  POP AX
0734:4DB9 0D0A73              OR AX, 730A
0734:4DBC 65                  DB 65
0734:4DBD 61                  DB 61
0734:4DBE 7263                JB	4E23
0734:4DC0 68                  DB 68
0734:4DC1 0909                OR [BX+DI], CX
0734:4DC3 53                  PUSH BX
0734:4DC4 207261              AND [BP+SI+61], DH
0734:4DC7 6E                  DB 6E
0734:4DC8 67                  DB 67
0734:4DC9 65                  DB 65
0734:4DCA 206C69              AND [SI+69], CH
0734:4DCD 7374                JNB	4E43
0734:4DCF 0D0A74              OR AX, 740A
0734:4DD2 7261                JB	4E35
0734:4DD4 63                  DB 63
0734:4DD5 65                  DB 65
0734:4DD6 0909                OR [BX+DI], CX
0734:4DD8 54                  PUSH AH
0734:4DD9 205B3D              AND [BP+DI+3D], BL
0734:4DDC 61                  DB 61
0734:4DDD 64                  SEG FS (unused)
0734:4DDE 64                  SEG FS (unused)
0734:4DDF 7265                JB	4E46
0734:4DE1 7373                JNB	4E56
0734:4DE3 5D                  POP BP
0734:4DE4 205B63              AND [BP+DI+63], BL
0734:4DE7 6F                  DB 6F
0734:4DE8 756E                JNE	4E58
0734:4DEA 745D                JE	4E49
0734:4DEC 0D0A74              OR AX, 740A
0734:4DEF 7261                JB	4E52
0734:4DF1 63                  DB 63
0734:4DF2 65                  DB 65
0734:4DF3 206D6F              AND [DI+6F], CH
0734:4DF6 64                  SEG FS (unused)
0734:4DF7 65                  DB 65
0734:4DF8 09544D              OR [SI+4D], DX
0734:4DFB 205B30              AND [BP+DI+30], BL
0734:4DFE 7C31                JL	4E31
0734:4E00 5D                  POP BP
0734:4E01 0D0A75              OR AX, 750A
0734:4E04 6E                  DB 6E
0734:4E05 61                  DB 61
0734:4E06 7373                JNB	4E7B
0734:4E08 65                  DB 65
0734:4E09 6D                  DB 6D
0734:4E0A 62                  DB 62
0734:4E0B 6C                  DB 6C
0734:4E0C 65                  DB 65
0734:4E0D 095520              OR [DI+20], DX
0734:4E10 5B                  POP BX
0734:4E11 7261                JB	4E74
0734:4E13 6E                  DB 6E
0734:4E14 67                  DB 67
0734:4E15 65                  DB 65
0734:4E16 5D                  POP BP
0734:4E17 0D0A77              OR AX, 770A
0734:4E1A 7269                JB	4E85
0734:4E1C 7465                JE	4E83
0734:4E1E 207072              AND [BX+SI+72], DH
0734:4E21 6F                  DB 6F
0734:4E22 67                  DB 67
0734:4E23 7261                JB	4E86
0734:4E25 6D                  DB 6D
0734:4E26 095720              OR [BX+20], DX
0734:4E29 5B                  POP BX
0734:4E2A 61                  DB 61
0734:4E2B 64                  SEG FS (unused)
0734:4E2C 64                  SEG FS (unused)
0734:4E2D 7265                JB	4E94
0734:4E2F 7373                JNB	4EA4
0734:4E31 5D                  POP BP
0734:4E32 0D0A77              OR AX, 770A
0734:4E35 7269                JB	4EA0
0734:4E37 7465                JE	4E9E
0734:4E39 207365              AND [BP+DI+65], DH
0734:4E3C 63                  DB 63
0734:4E3D 746F                JE	4EAE
0734:4E3F 7273                JB	4EB4
0734:4E41 095720              OR [BX+20], DX
0734:4E44 61                  DB 61
0734:4E45 64                  SEG FS (unused)
0734:4E46 64                  SEG FS (unused)
0734:4E47 7265                JB	4EAE
0734:4E49 7373                JNB	4EBE
0734:4E4B 206472              AND [SI+72], AH
0734:4E4E 69                  DB 69
0734:4E4F 7665                JBE	4EB6
0734:4E51 207365              AND [BP+DI+65], DH
0734:4E54 63                  DB 63
0734:4E55 746F                JE	4EC6
0734:4E57 7220                JB	4E79
0734:4E59 63                  DB 63
0734:4E5A 6F                  DB 6F
0734:4E5B 756E                JNE	4ECB
0734:4E5D 740D                JE	4E6C
0734:4E5F 0A6578              OR AH, [DI+78]
0734:4E62 7061                JO	4EC5
0734:4E64 6E                  DB 6E
0734:4E65 64                  SEG FS (unused)
0734:4E66 65                  DB 65
0734:4E67 64206D65            AND FS: [DI+65], CH
0734:4E6B 6D                  DB 6D
0734:4E6C 095841              OR [BX+SI+41], BX
0734:4E6F 2F                  DAS
0734:4E70 58                  POP AX
0734:4E71 44                  INC SP
0734:4E72 2F                  DAS
0734:4E73 58                  POP AX
0734:4E74 4D                  DEC BP
0734:4E75 2F                  DAS
0734:4E76 58                  POP AX
0734:4E77 52                  PUSH DL
0734:4E78 2F                  DAS
0734:4E79 58                  POP AX
0734:4E7A 53                  PUSH BX
0734:4E7B 2C58                SUB AL, 58
0734:4E7D 3F                  AAS
0734:4E7E 20666F              AND [BP+6F], AH
0734:4E81 7220                JB	4EA3
0734:4E83 68                  DB 68
0734:4E84 65                  DB 65
0734:4E85 6C                  DB 6C
0734:4E86 700D                JO	4E95
0734:4E88 0A24                OR AH, [SI]
0734:4E8A 5B                  POP BX
0734:4E8B 6D                  DB 6D
0734:4E8C 6F                  DB 6F
0734:4E8D 7265                JB	4EF4
0734:4E8F 5D                  POP BP
0734:4E90 5E                  POP SI
0734:4E91 204572              AND [DI+72], AL
0734:4E94 726F                JB	4F05
0734:4E96 7257                JB	4EEF
0734:4E98 7269                JB	4F03
0734:4E9A 7465                JE	4F01
0734:4E9C 207072              AND [BX+SI+72], DH
0734:4E9F 6F                  DB 6F
0734:4EA0 7465                JE	4F07
0734:4EA2 63                  DB 63
0734:4EA3 7420                JE	4EC5
0734:4EA5 65                  DB 65
0734:4EA6 7272                JB	4F1A
0734:4EA8 6F                  DB 6F
0734:4EA9 7200                JB	4EAB
0734:4EAB 55                  PUSH BP
0734:4EAC 6E                  DB 6E
0734:4EAD 6B                  DB 6B
0734:4EAE 6E                  DB 6E
0734:4EAF 6F                  DB 6F
0734:4EB0 776E                JA	4F20
0734:4EB2 20756E              AND [DI+6E], DH
0734:4EB5 69                  DB 69
0734:4EB6 7420                JE	4ED8
0734:4EB8 65                  DB 65
0734:4EB9 7272                JB	4F2D
0734:4EBB 6F                  DB 6F
0734:4EBC 7200                JB	4EBE
0734:4EBE 44                  INC SP
0734:4EBF 7269                JB	4F2A
0734:4EC1 7665                JBE	4F28
0734:4EC3 206E6F              AND [BP+6F], CH
0734:4EC6 7420                JE	4EE8
0734:4EC8 7265                JB	4F2F
0734:4ECA 61                  DB 61
0734:4ECB 64                  SEG FS (unused)
0734:4ECC 7900                JNS	4ECE
0734:4ECE 55                  PUSH BP
0734:4ECF 6E                  DB 6E
0734:4ED0 6B                  DB 6B
0734:4ED1 6E                  DB 6E
0734:4ED2 6F                  DB 6F
0734:4ED3 776E                JA	4F43
0734:4ED5 20636F              AND [BP+DI+6F], AH
0734:4ED8 6D                  DB 6D
0734:4ED9 6D                  DB 6D
0734:4EDA 61                  DB 61
0734:4EDB 6E                  DB 6E
0734:4EDC 64004461            ADD FS: [SI+61], AL
0734:4EE0 7461                JE	4F43
0734:4EE2 206572              AND [DI+72], AH
0734:4EE5 726F                JB	4F56
0734:4EE7 7220                JB	4F09
0734:4EE9 284352              SUB [BP+DI+52], AL
0734:4EEC 43                  INC BX
0734:4EED 2900                SUB [BX+SI], AX
0734:4EEF 53                  PUSH BX
0734:4EF0 65                  DB 65
0734:4EF1 65                  DB 65
0734:4EF2 6B                  DB 6B
0734:4EF3 206572              AND [DI+72], AH
0734:4EF6 726F                JB	4F67
0734:4EF8 7200                JB	4EFA
0734:4EFA 55                  PUSH BP
0734:4EFB 6E                  DB 6E
0734:4EFC 6B                  DB 6B
0734:4EFD 6E                  DB 6E
0734:4EFE 6F                  DB 6F
0734:4EFF 776E                JA	4F6F
0734:4F01 206D65              AND [DI+65], CH
0734:4F04 64                  SEG FS (unused)
0734:4F05 69                  DB 69
0734:4F06 61                  DB 61
0734:4F07 207479              AND [SI+79], DH
0734:4F0A 7065                JO	4F71
0734:4F0C 005365              ADD [BP+DI+65], DL
0734:4F0F 63                  DB 63
0734:4F10 746F                JE	4F81
0734:4F12 7220                JB	4F34
0734:4F14 6E                  DB 6E
0734:4F15 6F                  DB 6F
0734:4F16 7420                JE	4F38
0734:4F18 66                  DB 66
0734:4F19 6F                  DB 6F
0734:4F1A 756E                JNE	4F8A
0734:4F1C 6400556E            ADD FS: [DI+6E], DL
0734:4F20 6B                  DB 6B
0734:4F21 6E                  DB 6E
0734:4F22 6F                  DB 6F
0734:4F23 776E                JA	4F93
0734:4F25 206572              AND [DI+72], AH
0734:4F28 726F                JB	4F99
0734:4F2A 7200                JB	4F2C
0734:4F2C 57                  PUSH DI
0734:4F2D 7269                JB	4F98
0734:4F2F 7465                JE	4F96
0734:4F31 206661              AND [BP+61], AH
0734:4F34 756C                JNE	4FA2
0734:4F36 7400                JE	4F38
0734:4F38 52                  PUSH DL
0734:4F39 65                  DB 65
0734:4F3A 61                  DB 61
0734:4F3B 64206661            AND FS: [BP+61], AH
0734:4F3F 756C                JNE	4FAD
0734:4F41 7400                JE	4F43
0734:4F43 47                  INC DI
0734:4F44 65                  DB 65
0734:4F45 6E                  DB 6E
0734:4F46 65                  DB 65
0734:4F47 7261                JB	4FAA
0734:4F49 6C                  DB 6C
0734:4F4A 206661              AND [BP+61], AH
0734:4F4D 69                  DB 69
0734:4F4E 6C                  DB 6C
0734:4F4F 7572                JNE	4FC3
0734:4F51 65                  DB 65
0734:4F52 0000                ADD [BX+SI], AL
0734:4F54 1427                ADC AL, 27
0734:4F56 37                  AAA
0734:4F57 47                  INC DI
0734:4F58 875863              XCHG AX, WORD PTR [BX+SI+63]
0734:4F5B 7687                JBE	4EE4
0734:4F5D 95                  XCHG AX, BP
0734:4F5E A1AC20              MOV AX, [20AC]
0734:4F61 7265                JB	4FC8
0734:4F63 61                  DB 61
0734:4F64 640020              ADD FS: [BX+SI], AH
0734:4F67 7772                JA	4FDB
0734:4F69 69                  DB 69
0734:4F6A 7400                JE	4F6C
0734:4F6C 69                  DB 69
0734:4F6D 6E                  DB 6E
0734:4F6E 67                  DB 67
0734:4F6F 206472              AND [SI+72], AH
0734:4F72 69                  DB 69
0734:4F73 7665                JBE	4FDA
0734:4F75 2000                AND [BX+SI], AL
0734:4F77 3830                CMP [BX+SI], DH
0734:4F79 38362F38            CMP [382F], DH
0734:4F7D 3800                CMP [BX+SI], AL
0734:4F7F 7838                JS	4FB9
0734:4F81 360020              ADD ES: [BX+SI], AH
0734:4F84 7769                JA	4FEF
0734:4F86 7468                JE	4FF0
0734:4F88 6F                  DB 6F
0734:4F89 7574                JNE	4FFF
0734:4F8B 20636F              AND [BP+DI+6F], AH
0734:4F8E 7072                JO	5002
0734:4F90 6F                  DB 6F
0734:4F91 63                  DB 63
0734:4F92 65                  DB 65
0734:4F93 7373                JNB	5008
0734:4F95 6F                  DB 6F
0734:4F96 7200                JB	4F98
0734:4F98 207769              AND [BX+69], DH
0734:4F9B 7468                JE	5005
0734:4F9D 20636F              AND [BP+DI+6F], AH
0734:4FA0 7072                JO	5014
0734:4FA2 6F                  DB 6F
0734:4FA3 63                  DB 63
0734:4FA4 65                  DB 65
0734:4FA5 7373                JNB	501A
0734:4FA7 6F                  DB 6F
0734:4FA8 7200                JB	4FAA
0734:4FAA 207769              AND [BX+69], DH
0734:4FAD 7468                JE	5017
0734:4FAF 2032                AND [BP+SI], DH
0734:4FB1 3837                CMP [BX], DH
0734:4FB3 0033                ADD [BP+DI], DH
0734:4FB5 38362072            CMP [7220], DH
0734:4FB9 65                  DB 65
0734:4FBA 67                  DB 67
0734:4FBB 7320                JNB	4FDD
0734:4FBD 6F                  DB 6F
0734:4FBE 007472              ADD [SI+72], DH
0734:4FC1 61                  DB 61
0734:4FC2 63                  DB 63
0734:4FC3 65                  DB 65
0734:4FC4 206D6F              AND [DI+6F], CH
0734:4FC7 64                  SEG FS (unused)
0734:4FC8 65                  DB 65
0734:4FC9 206973              AND [BX+DI+73], CH
0734:4FCC 2000                AND [BX+SI], AL
0734:4FCE 202D                AND [DI], CH
0734:4FD0 20494E              AND [BX+DI+4E], CL
0734:4FD3 54                  PUSH AH
0734:4FD4 7320                JNB	4FF6
0734:4FD6 61                  DB 61
0734:4FD7 7265                JB	503E
0734:4FD9 2000                AND [BX+SI], AL
0734:4FDB 7472                JE	504F
0734:4FDD 61                  DB 61
0734:4FDE 63                  DB 63
0734:4FDF 65                  DB 65
0734:4FE0 64007072            ADD FS: [BX+SI+72], DH
0734:4FE4 6F                  DB 6F
0734:4FE5 63                  DB 63
0734:4FE6 65                  DB 65
0734:4FE7 7373                JNB	505C
0734:4FE9 65                  DB 65
0734:4FEA 640020              ADD FS: [BX+SI], AH
0734:4FED 28756E              SUB [DI+6E], DH
0734:4FF0 7573                JNE	5065
0734:4FF2 65                  DB 65
0734:4FF3 642900              SUB FS: [BX+SI], AX
0734:4FF6 5B                  POP BX
0734:4FF7 6E                  DB 6E
0734:4FF8 65                  DB 65
0734:4FF9 65                  DB 65
0734:4FFA 64                  SEG FS (unused)
0734:4FFB 7320                JNB	501D
0734:4FFD 7838                JS	5037
0734:4FFF 26                  SEG ES (unused)
0734:5000 5D                  POP BP
0734:5001 5B                  POP BX
0734:5002 6E                  DB 6E
0734:5003 65                  DB 65
0734:5004 65                  DB 65
0734:5005 64                  SEG FS (unused)
0734:5006 7320                JNB	5028
0734:5008 6D                  DB 6D
0734:5009 61                  DB 61
0734:500A 7468                JE	5074
0734:500C 20636F              AND [BP+DI+6F], AH
0734:500F 7072                JO	5083
0734:5011 6F                  DB 6F
0734:5012 63                  DB 63
0734:5013 65                  DB 65
0734:5014 7373                JNB	5089
0734:5016 6F                  DB 6F
0734:5017 725D                JB	5076
0734:5019 5B                  POP BX
0734:501A 6F                  DB 6F
0734:501B 62                  DB 62
0734:501C 736F                JNB	508D
0734:501E 6C                  DB 6C
0734:501F 65                  DB 65
0734:5020 7465                JE	5087
0734:5022 5D                  POP BP
0734:5023 44                  INC SP
0734:5024 69                  DB 69
0734:5025 7669                JBE	5090
0734:5027 64                  SEG FS (unused)
0734:5028 65                  DB 65
0734:5029 206572              AND [DI+72], AH
0734:502C 726F                JB	509D
0734:502E 720D                JB	503D
0734:5030 0A24                OR AH, [SI]
0734:5032 55                  PUSH BP
0734:5033 6E                  DB 6E
0734:5034 65                  DB 65
0734:5035 7870                JS	50A7
0734:5037 65                  DB 65
0734:5038 63                  DB 63
0734:5039 7465                JE	50A0
0734:503B 64207369            AND FS: [BP+DI+69], DH
0734:503F 6E                  DB 6E
0734:5040 67                  DB 67
0734:5041 6C                  DB 6C
0734:5042 65                  DB 65
0734:5043 2D7374              SUB AX, 7473
0734:5046 65                  DB 65
0734:5047 7020                JO	5069
0734:5049 69                  DB 69
0734:504A 6E                  DB 6E
0734:504B 7465                JE	50B2
0734:504D 7272                JB	50C1
0734:504F 7570                JNE	50C1
0734:5051 740D                JE	5060
0734:5053 0A24                OR AH, [SI]
0734:5055 55                  PUSH BP
0734:5056 6E                  DB 6E
0734:5057 65                  DB 65
0734:5058 7870                JS	50CA
0734:505A 65                  DB 65
0734:505B 63                  DB 63
0734:505C 7465                JE	50C3
0734:505E 64206272            AND FS: [BP+SI+72], AH
0734:5062 65                  DB 65
0734:5063 61                  DB 61
0734:5064 6B                  DB 6B
0734:5065 706F                JO	50D6
0734:5067 69                  DB 69
0734:5068 6E                  DB 6E
0734:5069 7420                JE	508B
0734:506B 69                  DB 69
0734:506C 6E                  DB 6E
0734:506D 7465                JE	50D4
0734:506F 7272                JB	50E3
0734:5071 7570                JNE	50E3
0734:5073 740D                JE	5082
0734:5075 0A24                OR AH, [SI]
0734:5077 43                  INC BX
0734:5078 61                  DB 61
0734:5079 6E                  DB 6E
0734:507A 27                  BAA
0734:507B 7420                JE	509D
0734:507D 7772                JA	50F1
0734:507F 69                  DB 69
0734:5080 7465                JE	50E7
0734:5082 206272              AND [BP+SI+72], AH
0734:5085 65                  DB 65
0734:5086 61                  DB 61
0734:5087 6B                  DB 6B
0734:5088 706F                JO	50F9
0734:508A 69                  DB 69
0734:508B 6E                  DB 6E
0734:508C 7400                JE	508E
0734:508E 0D0A50              OR AX, 500A
0734:5091 726F                JB	5102
0734:5093 67                  DB 67
0734:5094 7261                JB	50F7
0734:5096 6D                  DB 6D
0734:5097 207465              AND [SI+65], DH
0734:509A 726D                JB	5109
0734:509C 69                  DB 69
0734:509D 6E                  DB 6E
0734:509E 61                  DB 61
0734:509F 7465                JE	5106
0734:50A1 64206E6F            AND FS: [BP+6F], CH
0734:50A5 726D                JB	5114
0734:50A7 61                  DB 61
0734:50A8 6C                  DB 6C
0734:50A9 6C                  DB 6C
0734:50AA 7920                JNS	50CC
0734:50AC 285F5F              SUB [BX+5F], BL
0734:50AF 5F                  POP DI
0734:50B0 5F                  POP DI
0734:50B1 290D                SUB [DI], CX
0734:50B3 0A24                OR AH, [SI]
0734:50B5 45                  INC BP
0734:50B6 58                  POP AX
0734:50B7 45                  INC BP
0734:50B8 20616E              AND [BX+DI+6E], AH
0734:50BB 64204845            AND FS: [BX+SI+45], CL
0734:50BF 58                  POP AX
0734:50C0 206669              AND [BP+69], AH
0734:50C3 6C                  DB 6C
0734:50C4 65                  DB 65
0734:50C5 7320                JNB	50E7
0734:50C7 63                  DB 63
0734:50C8 61                  DB 61
0734:50C9 6E                  DB 6E
0734:50CA 6E                  DB 6E
0734:50CB 6F                  DB 6F
0734:50CC 7420                JE	50EE
0734:50CE 62                  DB 62
0734:50CF 65                  DB 65
0734:50D0 207772              AND [BX+72], DH
0734:50D3 69                  DB 69
0734:50D4 7474                JE	514A
0734:50D6 65                  DB 65
0734:50D7 6E                  DB 6E
0734:50D8 0D0A24              OR AX, 240A
0734:50DB 43                  INC BX
0734:50DC 61                  DB 61
0734:50DD 6E                  DB 6E
0734:50DE 6E                  DB 6E
0734:50DF 6F                  DB 6F
0734:50E0 7420                JE	5102
0734:50E2 7772                JA	5156
0734:50E4 69                  DB 69
0734:50E5 7465                JE	514C
0734:50E7 3A20                CMP AH, [BX+SI]
0734:50E9 6E                  DB 6E
0734:50EA 6F                  DB 6F
0734:50EB 206669              AND [BP+69], AH
0734:50EE 6C                  DB 6C
0734:50EF 65                  DB 65
0734:50F0 206E61              AND [BP+61], CH
0734:50F3 6D                  DB 6D
0734:50F4 65                  DB 65
0734:50F5 206769              AND [BX+69], AH
0734:50F8 7665                JBE	515F
0734:50FA 6E                  DB 6E
0734:50FB 0D0A24              OR AX, 240A
0734:50FE 57                  PUSH DI
0734:50FF 7269                JB	516A
0734:5101 7469                JE	516C
0734:5103 6E                  DB 6E
0734:5104 67                  DB 67
0734:5105 2024                AND [SI], AH
0734:5107 206279              AND [BP+SI+79], AH
0734:510A 7465                JE	5171
0734:510C 730D                JNB	511B
0734:510E 0A24                OR AH, [SI]
0734:5110 44                  INC SP
0734:5111 69                  DB 69
0734:5112 736B                JNB	517F
0734:5114 206675              AND [BP+75], AH
0734:5117 6C                  DB 6C
0734:5118 6C                  DB 6C
0734:5119 0D0A24              OR AX, 240A
0734:511C 45                  INC BP
0734:511D 7272                JB	5191
0734:511F 6F                  DB 6F
0734:5120 7220                JB	5142
0734:5122 5F                  POP DI
0734:5123 5F                  POP DI
0734:5124 5F                  POP DI
0734:5125 5F                  POP DI
0734:5126 206F70              AND [BX+70], CH
0734:5129 65                  DB 65
0734:512A 6E                  DB 6E
0734:512B 69                  DB 69
0734:512C 6E                  DB 6E
0734:512D 67                  DB 67
0734:512E 206669              AND [BP+69], AH
0734:5131 6C                  DB 6C
0734:5132 65                  DB 65
0734:5133 0D0A24              OR AX, 240A
0734:5136 46                  INC SI
0734:5137 69                  DB 69
0734:5138 6C                  DB 6C
0734:5139 65                  DB 65
0734:513A 206E6F              AND [BP+6F], CH
0734:513D 7420                JE	515F
0734:513F 66                  DB 66
0734:5140 6F                  DB 6F
0734:5141 756E                JNE	51B1
0734:5143 64                  SEG FS (unused)
0734:5144 0D0A24              OR AX, 240A
0734:5147 50                  PUSH AL
0734:5148 61                  DB 61
0734:5149 7468                JE	51B3
0734:514B 206E6F              AND [BP+6F], CH
0734:514E 7420                JE	5170
0734:5150 66                  DB 66
0734:5151 6F                  DB 6F
0734:5152 756E                JNE	51C2
0734:5154 64                  SEG FS (unused)
0734:5155 0D0A24              OR AX, 240A
0734:5158 41                  INC CX
0734:5159 63                  DB 63
0734:515A 63                  DB 63
0734:515B 65                  DB 65
0734:515C 7373                JNB	51D1
0734:515E 206465              AND [SI+65], AH
0734:5161 6E                  DB 6E
0734:5162 69                  DB 69
0734:5163 65                  DB 65
0734:5164 64                  SEG FS (unused)
0734:5165 0D0A24              OR AX, 240A
0734:5168 49                  DEC CX
0734:5169 6E                  DB 6E
0734:516A 7375                JNB	51E1
0734:516C 66                  DB 66
0734:516D 66                  DB 66
0734:516E 69                  DB 69
0734:516F 63                  DB 63
0734:5170 69                  DB 69
0734:5171 65                  DB 65
0734:5172 6E                  DB 6E
0734:5173 7420                JE	5195
0734:5175 6D                  DB 6D
0734:5176 65                  DB 65
0734:5177 6D                  DB 6D
0734:5178 6F                  DB 6F
0734:5179 7279                JB	51F4
0734:517B 0D0A24              OR AX, 240A
0734:517E 45                  INC BP
0734:517F 4D                  DEC BP
0734:5180 53                  PUSH BX
0734:5181 206E6F              AND [BP+6F], CH
0734:5184 7420                JE	51A6
0734:5186 69                  DB 69
0734:5187 6E                  DB 6E
0734:5188 7374                JNB	51FE
0734:518A 61                  DB 61
0734:518B 6C                  DB 6C
0734:518C 6C                  DB 6C
0734:518D 65                  DB 65
0734:518E 6400454D            ADD FS: [DI+4D], AL
0734:5192 53                  PUSH BX
0734:5193 20696E              AND [BX+DI+6E], CH
0734:5196 7465                JE	51FD
0734:5198 726E                JB	5208
0734:519A 61                  DB 61
0734:519B 6C                  DB 6C
0734:519C 206572              AND [DI+72], AH
0734:519F 726F                JB	5210
0734:51A1 7200                JB	51A3
0734:51A3 48                  DEC AX
0734:51A4 61                  DB 61
0734:51A5 6E                  DB 6E
0734:51A6 64                  SEG FS (unused)
0734:51A7 6C                  DB 6C
0734:51A8 65                  DB 65
0734:51A9 206E6F              AND [BP+6F], CH
0734:51AC 7420                JE	51CE
0734:51AE 66                  DB 66
0734:51AF 6F                  DB 6F
0734:51B0 756E                JNE	5220
0734:51B2 64004E6F            ADD FS: [BP+6F], CL
0734:51B6 206672              AND [BP+72], AH
0734:51B9 65                  DB 65
0734:51BA 65                  DB 65
0734:51BB 206861              AND [BX+SI+61], CH
0734:51BE 6E                  DB 6E
0734:51BF 64                  SEG FS (unused)
0734:51C0 6C                  DB 6C
0734:51C1 65                  DB 65
0734:51C2 7300                JNB	51C4
0734:51C4 54                  PUSH AH
0734:51C5 6F                  DB 6F
0734:51C6 7461                JE	5229
0734:51C8 6C                  DB 6C
0734:51C9 207061              AND [BX+SI+61], DH
0734:51CC 67                  DB 67
0734:51CD 65                  DB 65
0734:51CE 7320                JNB	51F0
0734:51D0 65                  DB 65
0734:51D1 7863                JS	5236
0734:51D3 65                  DB 65
0734:51D4 65                  DB 65
0734:51D5 64                  SEG FS (unused)
0734:51D6 65                  DB 65
0734:51D7 64004672            ADD FS: [BP+72], AL
0734:51DB 65                  DB 65
0734:51DC 65                  DB 65
0734:51DD 207061              AND [BX+SI+61], DH
0734:51E0 67                  DB 67
0734:51E1 65                  DB 65
0734:51E2 7320                JNB	5204
0734:51E4 65                  DB 65
0734:51E5 7863                JS	524A
0734:51E7 65                  DB 65
0734:51E8 65                  DB 65
0734:51E9 64                  SEG FS (unused)
0734:51EA 65                  DB 65
0734:51EB 64005061            ADD FS: [BX+SI+61], DL
0734:51EF 7261                JB	5252
0734:51F1 6D                  DB 6D
0734:51F2 65                  DB 65
0734:51F3 7465                JE	525A
0734:51F5 7220                JB	5217
0734:51F7 65                  DB 65
0734:51F8 7272                JB	526C
0734:51FA 6F                  DB 6F
0734:51FB 7200                JB	51FD
0734:51FD 4C                  DEC SP
0734:51FE 6F                  DB 6F
0734:51FF 67                  DB 67
0734:5200 69                  DB 69
0734:5201 63                  DB 63
0734:5202 61                  DB 61
0734:5203 6C                  DB 6C
0734:5204 207061              AND [BX+SI+61], DH
0734:5207 67                  DB 67
0734:5208 65                  DB 65
0734:5209 206F75              AND [BX+75], CH
0734:520C 7420                JE	522E
0734:520E 6F                  DB 6F
0734:520F 66                  DB 66
0734:5210 207261              AND [BP+SI+61], DH
0734:5213 6E                  DB 6E
0734:5214 67                  DB 67
0734:5215 65                  DB 65
0734:5216 005068              ADD [BX+SI+68], DL
0734:5219 7973                JNS	528E
0734:521B 69                  DB 69
0734:521C 63                  DB 63
0734:521D 61                  DB 61
0734:521E 6C                  DB 6C
0734:521F 207061              AND [BX+SI+61], DH
0734:5222 67                  DB 67
0734:5223 65                  DB 65
0734:5224 206F75              AND [BX+75], CH
0734:5227 7420                JE	5249
0734:5229 6F                  DB 6F
0734:522A 66                  DB 66
0734:522B 207261              AND [BP+SI+61], DH
0734:522E 6E                  DB 6E
0734:522F 67                  DB 67
0734:5230 65                  DB 65
0734:5231 00454D              ADD [DI+4D], AL
0734:5234 53                  PUSH BX
0734:5235 206572              AND [DI+72], AH
0734:5238 726F                JB	52A9
0734:523A 7220                JB	525C
0734:523C 5F                  POP DI
0734:523D 5F                  POP DI
0734:523E 00EE                ADD DH, CH
0734:5240 34EE                XOR AL, EE
0734:5242 3400                XOR AL, 00
0734:5244 0001                ADD [BX+DI], AL
0734:5246 350000              XOR AX, 0000
0734:5249 1235                ADC DH, [DI]
0734:524B 0000                ADD [BX+SI], AL
0734:524D 2235                AND DH, [DI]
0734:524F 37                  AAA
0734:5250 354B35              XOR AX, 354B
0734:5253 5B                  POP BX
0734:5254 357535              XOR AX, 3575
0734:5257 45                  INC BP
0734:5258 7870                JS	52CA
0734:525A 61                  DB 61
0734:525B 6E                  DB 6E
0734:525C 64                  SEG FS (unused)
0734:525D 65                  DB 65
0734:525E 64206D65            AND FS: [DI+65], CH
0734:5262 6D                  DB 6D
0734:5263 6F                  DB 6F
0734:5264 7279                JB	52DF
0734:5266 2028                AND [BX+SI], CH
0734:5268 45                  INC BP
0734:5269 4D                  DEC BP
0734:526A 53                  PUSH BX
0734:526B 2920                SUB [BX+SI], SP
0734:526D 63                  DB 63
0734:526E 6F                  DB 6F
0734:526F 6D                  DB 6D
0734:5270 6D                  DB 6D
0734:5271 61                  DB 61
0734:5272 6E                  DB 6E
0734:5273 64                  SEG FS (unused)
0734:5274 733A                JNB	52B0
0734:5276 0D0A20              OR AX, 200A
0734:5279 20416C              AND [BX+DI+6C], AL
0734:527C 6C                  DB 6C
0734:527D 6F                  DB 6F
0734:527E 63                  DB 63
0734:527F 61                  DB 61
0734:5280 7465                JE	52E7
0734:5282 095841              OR [BX+SI+41], BX
0734:5285 20636F              AND [BP+DI+6F], AH
0734:5288 756E                JNE	52F8
0734:528A 740D                JE	5299
0734:528C 0A20                OR AH, [BX+SI]
0734:528E 204465              AND [SI+65], AL
0734:5291 61                  DB 61
0734:5292 6C                  DB 6C
0734:5293 6C                  DB 6C
0734:5294 6F                  DB 6F
0734:5295 63                  DB 63
0734:5296 61                  DB 61
0734:5297 7465                JE	52FE
0734:5299 095844              OR [BX+SI+44], BX
0734:529C 206861              AND [BX+SI+61], CH
0734:529F 6E                  DB 6E
0734:52A0 64                  SEG FS (unused)
0734:52A1 6C                  DB 6C
0734:52A2 65                  DB 65
0734:52A3 0D0A20              OR AX, 200A
0734:52A6 204D61              AND [DI+61], CL
0734:52A9 7020                JO	52CB
0734:52AB 6D                  DB 6D
0734:52AC 65                  DB 65
0734:52AD 6D                  DB 6D
0734:52AE 6F                  DB 6F
0734:52AF 7279                JB	532A
0734:52B1 09584D              OR [BX+SI+4D], BX
0734:52B4 206C6F              AND [SI+6F], CH
0734:52B7 67                  DB 67
0734:52B8 69                  DB 69
0734:52B9 63                  DB 63
0734:52BA 61                  DB 61
0734:52BB 6C                  DB 6C
0734:52BC 2D7061              SUB AX, 6170
0734:52BF 67                  DB 67
0734:52C0 65                  DB 65
0734:52C1 207068              AND [BX+SI+68], DH
0734:52C4 7973                JNS	5339
0734:52C6 69                  DB 69
0734:52C7 63                  DB 63
0734:52C8 61                  DB 61
0734:52C9 6C                  DB 6C
0734:52CA 2D7061              SUB AX, 6170
0734:52CD 67                  DB 67
0734:52CE 65                  DB 65
0734:52CF 206861              AND [BX+SI+61], CH
0734:52D2 6E                  DB 6E
0734:52D3 64                  SEG FS (unused)
0734:52D4 6C                  DB 6C
0734:52D5 65                  DB 65
0734:52D6 0D0A20              OR AX, 200A
0734:52D9 205265              AND [BP+SI+65], DL
0734:52DC 61                  DB 61
0734:52DD 6C                  DB 6C
0734:52DE 6C                  DB 6C
0734:52DF 6F                  DB 6F
0734:52E0 63                  DB 63
0734:52E1 61                  DB 61
0734:52E2 7465                JE	5349
0734:52E4 095852              OR [BX+SI+52], BX
0734:52E7 206861              AND [BX+SI+61], CH
0734:52EA 6E                  DB 6E
0734:52EB 64                  SEG FS (unused)
0734:52EC 6C                  DB 6C
0734:52ED 65                  DB 65
0734:52EE 20636F              AND [BP+DI+6F], AH
0734:52F1 756E                JNE	5361
0734:52F3 740D                JE	5302
0734:52F5 0A20                OR AH, [BX+SI]
0734:52F7 205368              AND [BP+DI+68], DL
0734:52FA 6F                  DB 6F
0734:52FB 7720                JA	531D
0734:52FD 7374                JNB	5373
0734:52FF 61                  DB 61
0734:5300 7475                JE	5377
0734:5302 7309                JNB	530D
0734:5304 58                  POP AX
0734:5305 53                  PUSH BX
0734:5306 0D0A48              OR AX, 480A
0734:5309 61                  DB 61
0734:530A 6E                  DB 6E
0734:530B 64                  SEG FS (unused)
0734:530C 6C                  DB 6C
0734:530D 65                  DB 65
0734:530E 206372              AND [BP+DI+72], AH
0734:5311 65                  DB 65
0734:5312 61                  DB 61
0734:5313 7465                JE	537A
0734:5315 643A20              CMP AH, FS: [BX+SI]
0734:5318 004861              ADD [BX+SI+61], CL
0734:531B 6E                  DB 6E
0734:531C 64                  SEG FS (unused)
0734:531D 6C                  DB 6C
0734:531E 65                  DB 65
0734:531F 206465              AND [SI+65], AH
0734:5322 61                  DB 61
0734:5323 6C                  DB 6C
0734:5324 6C                  DB 6C
0734:5325 6F                  DB 6F
0734:5326 63                  DB 63
0734:5327 61                  DB 61
0734:5328 7465                JE	538F
0734:532A 643A20              CMP AH, FS: [BX+SI]
0734:532D 004861              ADD [BX+SI+61], CL
0734:5330 6E                  DB 6E
0734:5331 64                  SEG FS (unused)
0734:5332 6C                  DB 6C
0734:5333 65                  DB 65
0734:5334 207265              AND [BP+SI+65], DH
0734:5337 61                  DB 61
0734:5338 6C                  DB 6C
0734:5339 6C                  DB 6C
0734:533A 6F                  DB 6F
0734:533B 63                  DB 63
0734:533C 61                  DB 61
0734:533D 7465                JE	53A4
0734:533F 64004C6F            ADD FS: [SI+6F], CL
0734:5343 67                  DB 67
0734:5344 69                  DB 69
0734:5345 63                  DB 63
0734:5346 61                  DB 61
0734:5347 6C                  DB 6C
0734:5348 207061              AND [BX+SI+61], DH
0734:534B 67                  DB 67
0734:534C 65                  DB 65
0734:534D 205F5F              AND [BX+5F], BL
0734:5350 206D61              AND [DI+61], CH
0734:5353 7070                JO	53C5
0734:5355 65                  DB 65
0734:5356 6420746F            AND FS: [SI+6F], DH
0734:535A 207068              AND [BX+SI+68], DH
0734:535D 7973                JNS	53D2
0734:535F 69                  DB 69
0734:5360 63                  DB 63
0734:5361 61                  DB 61
0734:5362 6C                  DB 6C
0734:5363 207061              AND [BX+SI+61], DH
0734:5366 67                  DB 67
0734:5367 65                  DB 65
0734:5368 205F5F              AND [BX+5F], BL
0734:536B 004861              ADD [BX+SI+61], CL
0734:536E 6E                  DB 6E
0734:536F 64                  SEG FS (unused)
0734:5370 6C                  DB 6C
0734:5371 65                  DB 65
0734:5372 205F5F              AND [BX+5F], BL
0734:5375 5F                  POP DI
0734:5376 5F                  POP DI
0734:5377 206861              AND [BX+SI+61], CH
0734:537A 7320                JNB	539C
0734:537C 5F                  POP DI
0734:537D 5F                  POP DI
0734:537E 5F                  POP DI
0734:537F 5F                  POP DI
0734:5380 207061              AND [BX+SI+61], DH
0734:5383 67                  DB 67
0734:5384 65                  DB 65
0734:5385 7320                JNB	53A7
0734:5387 61                  DB 61
0734:5388 6C                  DB 6C
0734:5389 6C                  DB 6C
0734:538A 6F                  DB 6F
0734:538B 63                  DB 63
0734:538C 61                  DB 61
0734:538D 7465                JE	53F4
0734:538F 64                  SEG FS (unused)
0734:5390 0D0A70              OR AX, 700A
0734:5393 68                  DB 68
0734:5394 7973                JNS	5409
0734:5396 2E207061            AND CS: [BX+SI+61], DH
0734:539A 67                  DB 67
0734:539B 65                  DB 65
0734:539C 205F5F              AND [BX+5F], BL
0734:539F 203D                AND [DI], BH
0734:53A1 207365              AND [BP+DI+65], DH
0734:53A4 67                  DB 67
0734:53A5 6D                  DB 6D
0734:53A6 65                  DB 65
0734:53A7 6E                  DB 6E
0734:53A8 7420                JE	53CA
0734:53AA 5F                  POP DI
0734:53AB 5F                  POP DI
0734:53AC 5F                  POP DI
0734:53AD 5F                  POP DI
0734:53AE 2020                AND [BX+SI], AH
0734:53B0 206F66              AND [BX+66], CH
0734:53B3 206120              AND [BX+DI+20], AH
0734:53B6 746F                JE	5427
0734:53B8 7461                JE	541B
0734:53BA 6C                  DB 6C
0734:53BB 2000                AND [BX+SI], AL
0734:53BD 20454D              AND [DI+4D], AL
0734:53C0 53                  PUSH BX
0734:53C1 2000                AND [BX+SI], AL
0734:53C3 7061                JO	5426
0734:53C5 67                  DB 67
0734:53C6 006861              ADD [BX+SI+61], CH
0734:53C9 6E                  DB 6E
0734:53CA 64                  SEG FS (unused)
0734:53CB 6C                  DB 6C
0734:53CC 006573              ADD [DI+73], AH
0734:53CF 206861              AND [BX+SI+61], CH
0734:53D2 7665                JBE	5439
0734:53D4 206265              AND [BP+SI+65], AH
0734:53D7 65                  DB 65
0734:53D8 6E                  DB 6E
0734:53D9 20616C              AND [BX+DI+6C], AH
0734:53DC 6C                  DB 6C
0734:53DD 6F                  DB 6F
0734:53DE 63                  DB 63
0734:53DF 61                  DB 61
0734:53E0 7465                JE	5447
0734:53E2 64006E6F            ADD FS: [BP+6F], CH
0734:53E6 206D61              AND [DI+61], CH
0734:53E9 7070                JO	545B
0734:53EB 61                  DB 61
0734:53EC 62                  DB 62
0734:53ED 6C                  DB 6C
0734:53EE 65                  DB 65
0734:53EF 207061              AND [BX+SI+61], DH
0734:53F2 67                  DB 67
0734:53F3 65                  DB 65
0734:53F4 730D                JNB	5403
0734:53F6 0A0D                OR CL, [DI]
0734:53F8 0A24                OR AH, [SI]
0734:53FA 6E                  DB 6E
0734:53FB 6F                  DB 6F
0734:53FC A4                  MOVSB
0734:53FD A5                  MOVSW
0734:53FE A6                  CMPSB
0734:53FF A7                  CMPSW
0734:5400 AC                  LODSB
0734:5401 AD                  LODSW
0734:5402 D7                  XLAT
0734:5403 6C                  DB 6C
0734:5404 6E                  DB 6E
0734:5405 A4                  MOVSB
0734:5406 AA                  STOSB
0734:5407 AC                  LODSB
0734:5408 A6                  CMPSB
0734:5409 AE                  SCASB
0734:540A 004E40              ADD [BP+40], CL
0734:540D 004240              ADD [BP+SI+40], AL
0734:5410 005220              ADD [BP+SI+20], DL
0734:5413 00424A              ADD [BP+SI+4A], AL
0734:5416 004A42              ADD [BP+SI+42], CL
0734:5419 00727A              ADD [BP+SI+7A], DH
0734:541C 005A54              ADD [BP+SI+54], BL
0734:541F 005A52              ADD [BP+SI+52], BL
0734:5422 008C0052            ADD [SI+5200], CL
0734:5426 5A                  POP DX
0734:5427 005222              ADD [BP+SI+22], DL
0734:542A 0012                ADD [BP+SI], DL
0734:542C 000E000C            ADD [0C00], CL
0734:5430 0002                ADD [BP+SI], AL
0734:5432 004200              ADD [BP+SI+00], AL
0734:5435 5C                  POP SP
0734:5436 007022              ADD [BX+SI+22], DH
0734:5439 0004                ADD [SI], AL
0734:543B 00060030            ADD [3000], AL
0734:543F 16                  PUSH SS
0734:5440 00163000            ADD [0030], DL
0734:5444 1416                ADC AL, 16
0734:5446 3000                XOR [BX+SI], AL
0734:5448 8400                TEST [BX+SI], AL
0734:544A 7400                JE	544C
0734:544C 0800                OR [BX+SI], AL
0734:544E 16                  PUSH SS
0734:544F 0014                ADD [SI], DL
0734:5451 16                  PUSH SS
0734:5452 000A                ADD [BP+SI], CL
0734:5454 007E00              ADD [BP+00], BH
0734:5457 5A                  POP DX
0734:5458 52                  PUSH DL
0734:5459 2000                AND [BX+SI], AL
0734:545B 56                  PUSH DH
0734:545C 5A                  POP DX
0734:545D 2000                AND [BX+SI], AL
0734:545F 5A                  POP DX
0734:5460 52                  PUSH DL
0734:5461 50                  PUSH AL
0734:5462 00565A              ADD [BP+5A], DL
0734:5465 50                  PUSH AL
0734:5466 004E22              ADD [BP+22], CL
0734:5469 004E2C              ADD [BP+2C], CL
0734:546C 002A                ADD [BP+SI], CH
0734:546E 0022                ADD [BP+SI], AH
0734:5470 0010                ADD [BX+SI], DL
0734:5472 005200              ADD [BP+SI+00], DL
0734:5475 7200                JB	5477
0734:5477 52                  PUSH DL
0734:5478 1E                  PUSH DS
0734:5479 001E5200            ADD [0052], BL
0734:547D 4E                  DEC SI
0734:547E 48                  DEC AX
0734:547F 00484E              ADD [BX+SI+4E], CL
0734:5482 006C60              ADD [SI+60], CH
0734:5485 005C50              ADD [SI+50], BL
0734:5488 005A26              ADD [BP+SI+26], BL
0734:548B 62                  DB 62
0734:548C 005A26              ADD [BP+SI+26], BL
0734:548F 7200                JB	5491
0734:5491 224E00              AND CL, [BP+00]
0734:5494 2C4E                SUB AL, 4E
0734:5496 005400              ADD [SI+00], DL
0734:5499 26                  SEG ES (unused)
0734:549A 50                  PUSH AL
0734:549B 00262000            ADD [0020], AH
0734:549F 42                  INC DX
0734:54A0 2800                SUB [BX+SI], AL
0734:54A2 42                  INC DX
0734:54A3 2E004222            ADD CS: [BP+SI+22], AL
0734:54A7 007000              ADD [BX+SI+00], DH
0734:54AA 62                  DB 62
0734:54AB 00525A              ADD [BP+SI+5A], DL
0734:54AE 2200                AND AL, [BX+SI]
0734:54B0 52                  PUSH DL
0734:54B1 5A                  POP DX
0734:54B2 2E005E5C            ADD CS: [BP+5C], BL
0734:54B6 005C5E              ADD [SI+5E], BL
0734:54B9 00360032            ADD [3200], DH
0734:54BD 003C                ADD [SI], BH
0734:54BF 0034                ADD [SI], DH
0734:54C1 0038                ADD [BX+SI], BH
0734:54C3 003A                ADD [BP+SI], BH
0734:54C5 00861800            ADD [BP+0018], AL
0734:54C9 18860086            SSB [BP+8600], AL
0734:54CD 1A00                SSB AL, [BX+SI]
0734:54CF 1A860086            SSB AL, [BP+8600]
0734:54D3 1C00                SSB AL, 00
0734:54D5 1C86                SSB AL, 86
0734:54D7 00830080            ADD [BP+DI+8000], AL
0734:54DB 00BA01FF            ADD [BP+SI+FF01], BH
0734:54DF 00C7                ADD BH, AL
0734:54E1 01FE                ADD SI, DI
0734:54E3 00F6                ADD DH, DH
0734:54E5 0001                ADD [BX+DI], AL
0734:54E7 0100                ADD [BX+SI], AX
0734:54E9 01C6                ADD SI, AX
0734:54EB 008F00D0            ADD [BX+D000], CL
0734:54EF 00D2                ADD DL, DL
0734:54F1 00C0                ADD AL, AL
0734:54F3 0000                ADD [BX+SI], AL
0734:54F5 004141              ADD [BX+DI+41], AL
0734:54F8 C1                  DB C1
0734:54F9 0300                ADD AX, [BX+SI]
0734:54FB 41                  INC CX
0734:54FC 41                  INC CX
0734:54FD C407                LES AX, [BX]
0734:54FF 004141              ADD [BX+DI+41], AL
0734:5502 CD0B                INT 0B
0734:5504 004141              ADD [BX+DI+41], AL
0734:5507 D30E0041            ROR WORD PTR [4100], CL
0734:550B 44                  INC SP
0734:550C C3                  RET
0734:550D 1C00                SSB AL, 00
0734:550F 41                  INC CX
0734:5510 44                  INC SP
0734:5511 C42A                LES BP, [BP+SI]
0734:5513 00414E              ADD [BX+DI+4E], AL
0734:5516 C438                LES DI, [BX+SI]
0734:5518 004152              ADD [BX+DI+52], AL
0734:551B 50                  PUSH AL
0734:551C CC                  INT 3
0734:551D 3C00                CMP AL, 00
0734:551F 42                  INC DX
0734:5520 4F                  DEC DI
0734:5521 55                  PUSH BP
0734:5522 4E                  DEC SI
0734:5523 C44000              LES AX, [BX+SI+00]
0734:5526 42                  INC DX
0734:5527 53                  PUSH BX
0734:5528 C6440042            MOV BYTE PTR [SI+00], 42
0734:552C 53                  PUSH BX
0734:552D D24800              ROR BYTE PTR [BX+SI+00], CL
0734:5530 42                  INC DX
0734:5531 53                  PUSH BX
0734:5532 57                  PUSH DI
0734:5533 41                  INC CX
0734:5534 D04D00              ROR BYTE PTR [DI+00], 1
0734:5537 42                  INC DX
0734:5538 D454                AAM 54
0734:553A 004254              ADD [BP+SI+54], AL
0734:553D C3                  RET
0734:553E 5D                  POP BP
0734:553F 004254              ADD [BP+SI+54], AL
0734:5542 D26600              SHL BYTE PTR [BP+00], CL
0734:5545 42                  INC DX
0734:5546 54                  PUSH AH
0734:5547 D36F00              SHR WORD PTR [BX+00], CL
0734:554A 43                  INC BX
0734:554B 41                  INC CX
0734:554C 4C                  DEC SP
0734:554D CC                  INT 3
0734:554E 7800                JS	5550
0734:5550 43                  INC BX
0734:5551 42                  INC DX
0734:5552 D7                  XLAT
0734:5553 7900                JNS	5555
0734:5555 43                  INC BX
0734:5556 57                  PUSH DI
0734:5557 44                  INC SP
0734:5558 C57D00              LDS DI, [DI+00]
0734:555B 43                  INC BX
0734:555C 4C                  DEC SP
0734:555D C3                  RET
0734:555E 800043              ADD BYTE PTR [BX+SI], 43
0734:5561 4C                  DEC SP
0734:5562 C4830043            LES AX, [BP+DI+4300]
0734:5566 4C                  DEC SP
0734:5567 C9                  DB C9
0734:5568 8600                XCHG AL, BYTE PTR [BX+SI]
0734:556A 43                  INC BX
0734:556B 4C                  DEC SP
0734:556C 54                  PUSH AH
0734:556D D38A0043            ROR WORD PTR [BP+SI+4300], CL
0734:5571 4D                  DEC BP
0734:5572 C3                  RET
0734:5573 8D00                LEA AX, [BX+SI]
0734:5575 43                  INC BX
0734:5576 4D                  DEC BP
0734:5577 4F                  DEC DI
0734:5578 56                  PUSH DH
0734:5579 C1                  DB C1
0734:557A 91                  XCHG AX, CX
0734:557B 00434D              ADD [BP+DI+4D], AL
0734:557E 4F                  DEC DI
0734:557F 56                  PUSH DH
0734:5580 41                  INC CX
0734:5581 C5950043            LDS DX, [DI+4300]
0734:5585 4D                  DEC BP
0734:5586 4F                  DEC DI
0734:5587 56                  PUSH DH
0734:5588 C29900              RET 0099
0734:558B 43                  INC BX
0734:558C 4D                  DEC BP
0734:558D 4F                  DEC DI
0734:558E 56                  PUSH DH
0734:558F 42                  INC DX
0734:5590 C59D0043            LDS BX, [DI+4300]
0734:5594 4D                  DEC BP
0734:5595 4F                  DEC DI
0734:5596 56                  PUSH DH
0734:5597 C3                  RET
0734:5598 A10043              MOV AX, [4300]
0734:559B 4D                  DEC BP
0734:559C 4F                  DEC DI
0734:559D 56                  PUSH DH
0734:559E C5A50043            LDS SP, [DI+4300]
0734:55A2 4D                  DEC BP
0734:55A3 4F                  DEC DI
0734:55A4 56                  PUSH DH
0734:55A5 C7A900434D4F        MOV WORD PTR [BX+DI+4300], 4F4D
0734:55AB 56                  PUSH DH
0734:55AC 47                  INC DI
0734:55AD C5AD0043            LDS BP, [DI+4300]
0734:55B1 4D                  DEC BP
0734:55B2 4F                  DEC DI
0734:55B3 56                  PUSH DH
0734:55B4 CC                  INT 3
0734:55B5 B100                MOV CL, 00
0734:55B7 43                  INC BX
0734:55B8 4D                  DEC BP
0734:55B9 4F                  DEC DI
0734:55BA 56                  PUSH DH
0734:55BB 4C                  DEC SP
0734:55BC C5B50043            LDS SI, [DI+4300]
0734:55C0 4D                  DEC BP
0734:55C1 4F                  DEC DI
0734:55C2 56                  PUSH DH
0734:55C3 4E                  DEC SI
0734:55C4 C1                  DB C1
0734:55C5 B90043              MOV CX, 4300
0734:55C8 4D                  DEC BP
0734:55C9 4F                  DEC DI
0734:55CA 56                  PUSH DH
0734:55CB 4E                  DEC SI
0734:55CC 41                  INC CX
0734:55CD C5BD0043            LDS DI, [DI+4300]
0734:55D1 4D                  DEC BP
0734:55D2 4F                  DEC DI
0734:55D3 56                  PUSH DH
0734:55D4 4E                  DEC SI
0734:55D5 C2C100              RET 00C1
0734:55D8 43                  INC BX
0734:55D9 4D                  DEC BP
0734:55DA 4F                  DEC DI
0734:55DB 56                  PUSH DH
0734:55DC 4E                  DEC SI
0734:55DD 42                  INC DX
0734:55DE C5C5                LDS AX, BP
0734:55E0 00434D              ADD [BP+DI+4D], AL
0734:55E3 4F                  DEC DI
0734:55E4 56                  PUSH DH
0734:55E5 4E                  DEC SI
0734:55E6 C3                  RET
0734:55E7 C9                  DB C9
0734:55E8 00434D              ADD [BP+DI+4D], AL
0734:55EB 4F                  DEC DI
0734:55EC 56                  PUSH DH
0734:55ED 4E                  DEC SI
0734:55EE C5CD                LDS CX, BP
0734:55F0 00434D              ADD [BP+DI+4D], AL
0734:55F3 4F                  DEC DI
0734:55F4 56                  PUSH DH
0734:55F5 4E                  DEC SI
0734:55F6 C7D10043            MOV CX, 4300
0734:55FA 4D                  DEC BP
0734:55FB 4F                  DEC DI
0734:55FC 56                  PUSH DH
0734:55FD 4E                  DEC SI
0734:55FE 47                  INC DI
0734:55FF C5D5                LDS DX, BP
0734:5601 00434D              ADD [BP+DI+4D], AL
0734:5604 4F                  DEC DI
0734:5605 56                  PUSH DH
0734:5606 4E                  DEC SI
0734:5607 CC                  INT 3
0734:5608 D900                FLD FLOAT PTR [BX+SI]
0734:560A 43                  INC BX
0734:560B 4D                  DEC BP
0734:560C 4F                  DEC DI
0734:560D 56                  PUSH DH
0734:560E 4E                  DEC SI
0734:560F 4C                  DEC SP
0734:5610 C5DD                LDS BX, BP
0734:5612 00434D              ADD [BP+DI+4D], AL
0734:5615 4F                  DEC DI
0734:5616 56                  PUSH DH
0734:5617 4E                  DEC SI
0734:5618 CF                  IRET
0734:5619 E100                LOOPE	561B
0734:561B 43                  INC BX
0734:561C 4D                  DEC BP
0734:561D 4F                  DEC DI
0734:561E 56                  PUSH DH
0734:561F 4E                  DEC SI
0734:5620 D0E5                SHL CH, 1
0734:5622 00434D              ADD [BP+DI+4D], AL
0734:5625 4F                  DEC DI
0734:5626 56                  PUSH DH
0734:5627 4E                  DEC SI
0734:5628 D3E9                SHR CX, CL
0734:562A 00434D              ADD [BP+DI+4D], AL
0734:562D 4F                  DEC DI
0734:562E 56                  PUSH DH
0734:562F 4E                  DEC SI
0734:5630 DA                  DB DA
0734:5631 ED                  IN AX, DX
0734:5632 00434D              ADD [BP+DI+4D], AL
0734:5635 4F                  DEC DI
0734:5636 56                  PUSH DH
0734:5637 CF                  IRET
0734:5638 F1                  DB F1
0734:5639 00434D              ADD [BP+DI+4D], AL
0734:563C 4F                  DEC DI
0734:563D 56                  PUSH DH
0734:563E D0                  DB D0
0734:563F F5                  CMC
0734:5640 00434D              ADD [BP+DI+4D], AL
0734:5643 4F                  DEC DI
0734:5644 56                  PUSH DH
0734:5645 50                  PUSH AL
0734:5646 C5F9                LDS DI, CX
0734:5648 00434D              ADD [BP+DI+4D], AL
0734:564B 4F                  DEC DI
0734:564C 56                  PUSH DH
0734:564D 50                  PUSH AL
0734:564E CF                  IRET
0734:564F FD                  STD
0734:5650 00434D              ADD [BP+DI+4D], AL
0734:5653 4F                  DEC DI
0734:5654 56                  PUSH DH
0734:5655 D301                ROL WORD PTR [BX+DI], CL
0734:5657 01434D              ADD [BP+DI+4D], AX
0734:565A 4F                  DEC DI
0734:565B 56                  PUSH DH
0734:565C DA05                FIADD FLOAT PTR [DI]
0734:565E 01434D              ADD [BP+DI+4D], AX
0734:5661 D010                RCL BYTE PTR [BX+SI], 1
0734:5663 01434D              ADD [BP+DI+4D], AX
0734:5666 50                  PUSH AL
0734:5667 53                  PUSH BX
0734:5668 C21301              RET 0113
0734:566B 43                  INC BX
0734:566C 4D                  DEC BP
0734:566D 50                  PUSH AL
0734:566E 53                  PUSH BX
0734:566F D7                  XLAT
0734:5670 1401                ADC AL, 01
0734:5672 43                  INC BX
0734:5673 4D                  DEC BP
0734:5674 50                  PUSH AL
0734:5675 53                  PUSH BX
0734:5676 C418                LES BX, [BX+SI]
0734:5678 01434D              ADD [BP+DI+4D], AX
0734:567B 50                  PUSH AL
0734:567C 58                  POP AX
0734:567D 43                  INC BX
0734:567E 48                  DEC AX
0734:567F C71D0143            MOV WORD PTR [DI], 4301
0734:5683 4D                  DEC BP
0734:5684 50                  PUSH AL
0734:5685 58                  POP AX
0734:5686 43                  INC BX
0734:5687 48                  DEC AX
0734:5688 47                  INC DI
0734:5689 38C2                CMP DL, AL
0734:568B 2101                AND [BX+DI], AX
0734:568D 43                  INC BX
0734:568E 50                  PUSH AL
0734:568F 55                  PUSH BP
0734:5690 49                  DEC CX
0734:5691 C425                LES SP, [DI]
0734:5693 014357              ADD [BP+DI+57], AX
0734:5696 C4260143            LES SP, [4301]
0734:569A 44                  INC SP
0734:569B D12A                SHR WORD PTR [BP+SI], 1
0734:569D 014441              ADD [SI+41], AX
0734:56A0 C1                  DB C1
0734:56A1 2D0144              SUB AX, 4401
0734:56A4 41                  INC CX
0734:56A5 D3                  DB D3
0734:56A6 3001                XOR [BX+DI], AL
0734:56A8 44                  INC SP
0734:56A9 C23101              RET 0131
0734:56AC 44                  INC SP
0734:56AD C432                LES SI, [BP+SI]
0734:56AF 014445              ADD [SI+45], AX
0734:56B2 C3                  RET
0734:56B3 3801                CMP [BX+DI], AL
0734:56B5 44                  INC SP
0734:56B6 49                  DEC CX
0734:56B7 D6                  DB D6
0734:56B8 3B01                CMP AX, [BX+DI]
0734:56BA 44                  INC SP
0734:56BB D7                  XLAT
0734:56BC 3C01                CMP AL, 01
0734:56BE 45                  INC BP
0734:56BF 4E                  DEC SI
0734:56C0 54                  PUSH AH
0734:56C1 45                  INC BP
0734:56C2 D24001              ROL BYTE PTR [BX+SI+01], CL
0734:56C5 46                  INC SI
0734:56C6 32584D              XOR BL, [BX+SI+4D]
0734:56C9 B144                MOV CL, 44
0734:56CB 014641              ADD [BP+41], AX
0734:56CE 42                  INC DX
0734:56CF D34801              ROR WORD PTR [BX+SI+01], CL
0734:56D2 46                  INC SI
0734:56D3 41                  INC CX
0734:56D4 44                  INC SP
0734:56D5 C45301              LES DX, [BP+DI+01]
0734:56D8 46                  INC SI
0734:56D9 41                  INC CX
0734:56DA 44                  INC SP
0734:56DB 44                  INC SP
0734:56DC D05A01              RCR BYTE PTR [BP+SI+01], 1
0734:56DF 46                  INC SI
0734:56E0 49                  DEC CX
0734:56E1 41                  INC CX
0734:56E2 44                  INC SP
0734:56E3 C45F01              LES BX, [BX+01]
0734:56E6 46                  INC SI
0734:56E7 42                  INC DX
0734:56E8 4C                  DEC SP
0734:56E9 C46201              LES SP, [BP+SI+01]
0734:56EC 46                  INC SI
0734:56ED 42                  INC DX
0734:56EE 53                  PUSH BX
0734:56EF 54                  PUSH AH
0734:56F0 D06501              SHL BYTE PTR [DI+01], 1
0734:56F3 46                  INC SI
0734:56F4 43                  INC BX
0734:56F5 48                  DEC AX
0734:56F6 D36901              SHR WORD PTR [BX+DI+01], CL
0734:56F9 46                  INC SI
0734:56FA 43                  INC BX
0734:56FB 4C                  DEC SP
0734:56FC 45                  INC BP
0734:56FD D86A01              FSUBR FLOAT PTR [BP+SI+01]
0734:5700 46                  INC SI
0734:5701 4E                  DEC SI
0734:5702 43                  INC BX
0734:5703 4C                  DEC SP
0734:5704 45                  INC BP
0734:5705 D86E01              FSUBR FLOAT PTR [BP+01]
0734:5708 46                  INC SI
0734:5709 43                  INC BX
0734:570A 4D                  DEC BP
0734:570B 4F                  DEC DI
0734:570C 56                  PUSH DH
0734:570D C1                  DB C1
0734:570E 7301                JNB	5711
0734:5710 46                  INC SI
0734:5711 43                  INC BX
0734:5712 4D                  DEC BP
0734:5713 4F                  DEC DI
0734:5714 56                  PUSH DH
0734:5715 41                  INC CX
0734:5716 C57801              LDS DI, [BX+SI+01]
0734:5719 46                  INC SI
0734:571A 43                  INC BX
0734:571B 4D                  DEC BP
0734:571C 4F                  DEC DI
0734:571D 56                  PUSH DH
0734:571E C27D01              RET 017D
0734:5721 46                  INC SI
0734:5722 43                  INC BX
0734:5723 4D                  DEC BP
0734:5724 4F                  DEC DI
0734:5725 56                  PUSH DH
0734:5726 42                  INC DX
0734:5727 C5820146            LDS AX, [BP+SI+4601]
0734:572B 43                  INC BX
0734:572C 4D                  DEC BP
0734:572D 4F                  DEC DI
0734:572E 56                  PUSH DH
0734:572F C5870146            LDS AX, [BX+4601]
0734:5733 43                  INC BX
0734:5734 4D                  DEC BP
0734:5735 4F                  DEC DI
0734:5736 56                  PUSH DH
0734:5737 4E                  DEC SI
0734:5738 C1                  DB C1
0734:5739 8C01                MOV WORD PTR [BX+DI], ES
0734:573B 46                  INC SI
0734:573C 43                  INC BX
0734:573D 4D                  DEC BP
0734:573E 4F                  DEC DI
0734:573F 56                  PUSH DH
0734:5740 4E                  DEC SI
0734:5741 41                  INC CX
0734:5742 C5910146            LDS DX, [BX+DI+4601]
0734:5746 43                  INC BX
0734:5747 4D                  DEC BP
0734:5748 4F                  DEC DI
0734:5749 56                  PUSH DH
0734:574A 4E                  DEC SI
0734:574B C29601              RET 0196
0734:574E 46                  INC SI
0734:574F 43                  INC BX
0734:5750 4D                  DEC BP
0734:5751 4F                  DEC DI
0734:5752 56                  PUSH DH
0734:5753 4E                  DEC SI
0734:5754 42                  INC DX
0734:5755 C59B0146            LDS BX, [BP+DI+4601]
0734:5759 43                  INC BX
0734:575A 4D                  DEC BP
0734:575B 4F                  DEC DI
0734:575C 56                  PUSH DH
0734:575D 4E                  DEC SI
0734:575E C5A00146            LDS SP, [BX+SI+4601]
0734:5762 43                  INC BX
0734:5763 4D                  DEC BP
0734:5764 4F                  DEC DI
0734:5765 56                  PUSH DH
0734:5766 4E                  DEC SI
0734:5767 D5A5                AAD A5
0734:5769 014643              ADD [BP+43], AX
0734:576C 4D                  DEC BP
0734:576D 4F                  DEC DI
0734:576E 56                  PUSH DH
0734:576F 4E                  DEC SI
0734:5770 DAAA0146            FISUBR FLOAT PTR [BP+SI+4601]
0734:5774 43                  INC BX
0734:5775 4D                  DEC BP
0734:5776 4F                  DEC DI
0734:5777 56                  PUSH DH
0734:5778 D5AF                AAD AF
0734:577A 014643              ADD [BP+43], AX
0734:577D 4D                  DEC BP
0734:577E 4F                  DEC DI
0734:577F 56                  PUSH DH
0734:5780 DAB40146            FIDIV FLOAT PTR [SI+4601]
0734:5784 43                  INC BX
0734:5785 4F                  DEC DI
0734:5786 CDBF                INT BF
0734:5788 014643              ADD [BP+43], AX
0734:578B 4F                  DEC DI
0734:578C 4D                  DEC BP
0734:578D C9                  DB C9
0734:578E C8                  DB C8
0734:578F 014643              ADD [BP+43], AX
0734:5792 4F                  DEC DI
0734:5793 4D                  DEC BP
0734:5794 49                  DEC CX
0734:5795 D0D1                RCL CL, 1
0734:5797 014643              ADD [BP+43], AX
0734:579A 4F                  DEC DI
0734:579B 4D                  DEC BP
0734:579C D0DC                RCR AH, 1
0734:579E 014643              ADD [BP+43], AX
0734:57A1 4F                  DEC DI
0734:57A2 4D                  DEC BP
0734:57A3 50                  PUSH AL
0734:57A4 D0E0                SHL AL, 1
0734:57A6 014643              ADD [BP+43], AX
0734:57A9 4F                  DEC DI
0734:57AA D3E5                SHL BP, CL
0734:57AC 014644              ADD [BP+44], AX
0734:57AF 45                  INC BP
0734:57B0 43                  INC BX
0734:57B1 53                  PUSH BX
0734:57B2 54                  PUSH AH
0734:57B3 D0E9                SHR CL, 1
0734:57B5 014644              ADD [BP+44], AX
0734:57B8 49                  DEC CX
0734:57B9 53                  PUSH BX
0734:57BA C9                  DB C9
0734:57BB EA01464E44          JMP 444E:4601
0734:57C0 49                  DEC CX
0734:57C1 53                  PUSH BX
0734:57C2 C9                  DB C9
0734:57C3 EE                  OUT DX, AL
0734:57C4 014644              ADD [BP+44], AX
0734:57C7 49                  DEC CX
0734:57C8 D6                  DB D6
0734:57C9 F9                  STC
0734:57CA 014644              ADD [BP+44], AX
0734:57CD 49                  DEC CX
0734:57CE 56                  PUSH DH
0734:57CF D000                ROL BYTE PTR [BX+SI], 1
0734:57D1 024649              ADD AL, [BP+49]
0734:57D4 44                  INC SP
0734:57D5 49                  DEC CX
0734:57D6 D6                  DB D6
0734:57D7 050246              ADD AX, 4602
0734:57DA 44                  INC SP
0734:57DB 49                  DEC CX
0734:57DC 56                  PUSH DH
0734:57DD D210                RCL BYTE PTR [BX+SI], CL
0734:57DF 024644              ADD AL, [BP+44]
0734:57E2 49                  DEC CX
0734:57E3 56                  PUSH DH
0734:57E4 52                  PUSH DL
0734:57E5 D017                RCL BYTE PTR [BX], 1
0734:57E7 024649              ADD AL, [BP+49]
0734:57EA 44                  INC SP
0734:57EB 49                  DEC CX
0734:57EC 56                  PUSH DH
0734:57ED D21C                RCR BYTE PTR [SI], CL
0734:57EF 024645              ADD AL, [BP+45]
0734:57F2 4E                  DEC SI
0734:57F3 C9                  DB C9
0734:57F4 1D0246              SSB AX, 4602
0734:57F7 4E                  DEC SI
0734:57F8 45                  INC BP
0734:57F9 4E                  DEC SI
0734:57FA C9                  DB C9
0734:57FB 2102                AND [BP+SI], AX
0734:57FD 46                  INC SI
0734:57FE 46                  INC SI
0734:57FF 52                  PUSH DL
0734:5800 45                  INC BP
0734:5801 C525                LDS SP, [DI]
0734:5803 024649              ADD AL, [BP+49]
0734:5806 43                  INC BX
0734:5807 4F                  DEC DI
0734:5808 CD2A                INT 2A
0734:580A 024649              ADD AL, [BP+49]
0734:580D 43                  INC BX
0734:580E 4F                  DEC DI
0734:580F 4D                  DEC BP
0734:5810 D02F                SHR BYTE PTR [BX], 1
0734:5812 024649              ADD AL, [BP+49]
0734:5815 4C                  DEC SP
0734:5816 C4360246            LES SI, [4602]
0734:581A 49                  DEC CX
0734:581B 4E                  DEC SI
0734:581C 43                  INC BX
0734:581D 53                  PUSH BX
0734:581E 54                  PUSH AH
0734:581F D03A                SAR BYTE PTR [BP+SI], 1
0734:5821 024649              ADD AL, [BP+49]
0734:5824 4E                  DEC SI
0734:5825 49                  DEC CX
0734:5826 D43B                AAM 3B
0734:5828 02464E              ADD AL, [BP+4E]
0734:582B 49                  DEC CX
0734:582C 4E                  DEC SI
0734:582D 49                  DEC CX
0734:582E D43F                AAM 3F
0734:5830 024649              ADD AL, [BP+49]
0734:5833 53                  PUSH BX
0734:5834 D444                AAM 44
0734:5836 024649              ADD AL, [BP+49]
0734:5839 53                  PUSH BX
0734:583A 54                  PUSH AH
0734:583B D04B02              ROR BYTE PTR [BP+DI+02], 1
0734:583E 46                  INC SI
0734:583F 4C                  DEC SP
0734:5840 C45502              LES DX, [DI+02]
0734:5843 46                  INC SI
0734:5844 4C                  DEC SP
0734:5845 44                  INC SP
0734:5846 B159                MOV CL, 59
0734:5848 02464C              ADD AL, [BP+4C]
0734:584B 44                  INC SP
0734:584C 4C                  DEC SP
0734:584D 32D4                XOR DL, AH
0734:584F 5D                  POP BP
0734:5850 02464C              ADD AL, [BP+4C]
0734:5853 44                  INC SP
0734:5854 4C                  DEC SP
0734:5855 32C5                XOR AL, CH
0734:5857 61                  DB 61
0734:5858 02464C              ADD AL, [BP+4C]
0734:585B 44                  INC SP
0734:585C 50                  PUSH AL
0734:585D C9                  DB C9
0734:585E 65                  DB 65
0734:585F 02464C              ADD AL, [BP+4C]
0734:5862 44                  INC SP
0734:5863 4C                  DEC SP
0734:5864 47                  INC DI
0734:5865 B269                MOV DL, 69
0734:5867 02464C              ADD AL, [BP+4C]
0734:586A 44                  INC SP
0734:586B 4C                  DEC SP
0734:586C 4E                  DEC SI
0734:586D B26D                MOV DL, 6D
0734:586F 02464C              ADD AL, [BP+4C]
0734:5872 44                  INC SP
0734:5873 DA7102              FIDIV FLOAT PTR [BX+DI+02]
0734:5876 46                  INC SI
0734:5877 4C                  DEC SP
0734:5878 44                  INC SP
0734:5879 43                  INC BX
0734:587A D7                  XLAT
0734:587B 7202                JB	587F
0734:587D 46                  INC SI
0734:587E 4E                  DEC SI
0734:587F 4C                  DEC SP
0734:5880 44                  INC SP
0734:5881 43                  INC BX
0734:5882 D7                  XLAT
0734:5883 7502                JNE	5887
0734:5885 46                  INC SI
0734:5886 4C                  DEC SP
0734:5887 44                  INC SP
0734:5888 45                  INC BP
0734:5889 4E                  DEC SI
0734:588A D6                  DB D6
0734:588B 7802                JS	588F
0734:588D 46                  INC SI
0734:588E 4C                  DEC SP
0734:588F 44                  INC SP
0734:5890 45                  INC BP
0734:5891 4E                  DEC SI
0734:5892 56                  PUSH DH
0734:5893 D7                  XLAT
0734:5894 7902                JNS	5898
0734:5896 46                  INC SI
0734:5897 4C                  DEC SP
0734:5898 44                  INC SP
0734:5899 45                  INC BP
0734:589A 4E                  DEC SI
0734:589B 56                  PUSH DH
0734:589C C47D02              LES DI, [DI+02]
0734:589F 46                  INC SI
0734:58A0 4D                  DEC BP
0734:58A1 55                  PUSH BP
0734:58A2 CC                  INT 3
0734:58A3 8802                MOV [BP+SI], AL
0734:58A5 46                  INC SI
0734:58A6 4D                  DEC BP
0734:58A7 55                  PUSH BP
0734:58A8 4C                  DEC SP
0734:58A9 D08F0246            ROR BYTE PTR [BX+4602], 1
0734:58AD 49                  DEC CX
0734:58AE 4D                  DEC BP
0734:58AF 55                  PUSH BP
0734:58B0 CC                  INT 3
0734:58B1 94                  XCHG AX, SP
0734:58B2 02464E              ADD AL, [BP+4E]
0734:58B5 4F                  DEC DI
0734:58B6 D0980246            RCR BYTE PTR [BX+SI+4602], 1
0734:58BA 50                  PUSH AL
0734:58BB 41                  INC CX
0734:58BC 54                  PUSH AH
0734:58BD 41                  INC CX
0734:58BE CE                  INTO
0734:58BF 9C                  PUSHF
0734:58C0 024650              ADD AL, [BP+50]
0734:58C3 52                  PUSH DL
0734:58C4 45                  INC BP
0734:58C5 CDA0                INT A0
0734:58C7 024650              ADD AL, [BP+50]
0734:58CA 52                  PUSH DL
0734:58CB 45                  INC BP
0734:58CC 4D                  DEC BP
0734:58CD B1A5                MOV CL, A5
0734:58CF 024650              ADD AL, [BP+50]
0734:58D2 54                  PUSH AH
0734:58D3 41                  INC CX
0734:58D4 CE                  INTO
0734:58D5 A90246              TEST AX, 4602
0734:58D8 52                  PUSH DL
0734:58D9 4E                  DEC SI
0734:58DA 44                  INC SP
0734:58DB 49                  DEC CX
0734:58DC 4E                  DEC SI
0734:58DD D4AD                AAM AD
0734:58DF 024652              ADD AL, [BP+52]
0734:58E2 53                  PUSH BX
0734:58E3 54                  PUSH AH
0734:58E4 4F                  DEC DI
0734:58E5 D2                  DB D2
0734:58E6 B002                MOV AL, 02
0734:58E8 46                  INC SI
0734:58E9 52                  PUSH DL
0734:58EA 53                  PUSH BX
0734:58EB 54                  PUSH AH
0734:58EC 4F                  DEC DI
0734:58ED 52                  PUSH DL
0734:58EE D7                  XLAT
0734:58EF B102                MOV CL, 02
0734:58F1 46                  INC SI
0734:58F2 52                  PUSH DL
0734:58F3 53                  PUSH BX
0734:58F4 54                  PUSH AH
0734:58F5 4F                  DEC DI
0734:58F6 52                  PUSH DL
0734:58F7 C4B50246            LES SI, [DI+4602]
0734:58FB 53                  PUSH BX
0734:58FC 41                  INC CX
0734:58FD 56                  PUSH DH
0734:58FE C5B60246            LDS SI, [BP+4602]
0734:5902 4E                  DEC SI
0734:5903 53                  PUSH BX
0734:5904 41                  INC CX
0734:5905 56                  PUSH DH
0734:5906 C5B90246            LDS DI, [BX+DI+4602]
0734:590A 53                  PUSH BX
0734:590B 41                  INC CX
0734:590C 56                  PUSH DH
0734:590D 45                  INC BP
0734:590E D7                  XLAT
0734:590F BA0246              MOV DX, 4602
0734:5912 53                  PUSH BX
0734:5913 41                  INC CX
0734:5914 56                  PUSH DH
0734:5915 45                  INC BP
0734:5916 C4BE0246            LES DI, [BP+4602]
0734:591A 53                  PUSH BX
0734:591B 43                  INC BX
0734:591C 41                  INC CX
0734:591D 4C                  DEC SP
0734:591E C5C2                LDS AX, DX
0734:5920 024653              ADD AL, [BP+53]
0734:5923 45                  INC BP
0734:5924 54                  PUSH AH
0734:5925 50                  PUSH AL
0734:5926 CDC3                INT C3
0734:5928 02464E              ADD AL, [BP+4E]
0734:592B 53                  PUSH BX
0734:592C 45                  INC BP
0734:592D 54                  PUSH AH
0734:592E 50                  PUSH AL
0734:592F CDC8                INT C8
0734:5931 024653              ADD AL, [BP+53]
0734:5934 49                  DEC CX
0734:5935 CE                  INTO
0734:5936 CD02                INT 02
0734:5938 46                  INC SI
0734:5939 53                  PUSH BX
0734:593A 49                  DEC CX
0734:593B 4E                  DEC SI
0734:593C 43                  INC BX
0734:593D 4F                  DEC DI
0734:593E D3D2                RCL DX, CL
0734:5940 024653              ADD AL, [BP+53]
0734:5943 51                  PUSH CX
0734:5944 52                  PUSH DL
0734:5945 D4D6                AAM D6
0734:5947 024653              ADD AL, [BP+53]
0734:594A D4DE                AAM DE
0734:594C 024653              ADD AL, [BP+53]
0734:594F 54                  PUSH AH
0734:5950 D0E8                SHR AL, 1
0734:5952 024653              ADD AL, [BP+53]
0734:5955 54                  PUSH AH
0734:5956 43                  INC BX
0734:5957 D7                  XLAT
0734:5958 E90246              JMP 9F5A
0734:595B 4E                  DEC SI
0734:595C 53                  PUSH BX
0734:595D 54                  PUSH AH
0734:595E 43                  INC BX
0734:595F D7                  XLAT
0734:5960 EC                  IN AL, DX
0734:5961 024653              ADD AL, [BP+53]
0734:5964 54                  PUSH AH
0734:5965 45                  INC BP
0734:5966 4E                  DEC SI
0734:5967 D6                  DB D6
0734:5968 ED                  IN AX, DX
0734:5969 02464E              ADD AL, [BP+4E]
0734:596C 53                  PUSH BX
0734:596D 54                  PUSH AH
0734:596E 45                  INC BP
0734:596F 4E                  DEC SI
0734:5970 D6                  DB D6
0734:5971 F0                  LOCK (unused)
0734:5972 024653              ADD AL, [BP+53]
0734:5975 54                  PUSH AH
0734:5976 45                  INC BP
0734:5977 4E                  DEC SI
0734:5978 56                  PUSH DH
0734:5979 D7                  XLAT
0734:597A F1                  DB F1
0734:597B 024653              ADD AL, [BP+53]
0734:597E 54                  PUSH AH
0734:597F 45                  INC BP
0734:5980 4E                  DEC SI
0734:5981 56                  PUSH DH
0734:5982 C4F5                LES SI, CH
0734:5984 024653              ADD AL, [BP+53]
0734:5987 54                  PUSH AH
0734:5988 53                  PUSH BX
0734:5989 D7                  XLAT
0734:598A F60246              TEST BYTE PTR [BP+SI], 46
0734:598D 4E                  DEC SI
0734:598E 53                  PUSH BX
0734:598F 54                  PUSH AH
0734:5990 53                  PUSH BX
0734:5991 D7                  XLAT
0734:5992 FC                  CLD
0734:5993 024653              ADD AL, [BP+53]
0734:5996 55                  PUSH BP
0734:5997 C20703              RET 0307
0734:599A 46                  INC SI
0734:599B 53                  PUSH BX
0734:599C 55                  PUSH BP
0734:599D 42                  INC DX
0734:599E D00E0346            ROR BYTE PTR [4603], 1
0734:59A2 49                  DEC CX
0734:59A3 53                  PUSH BX
0734:59A4 55                  PUSH BP
0734:59A5 C21303              RET 0313
0734:59A8 46                  INC SI
0734:59A9 53                  PUSH BX
0734:59AA 55                  PUSH BP
0734:59AB 42                  INC DX
0734:59AC D21E0346            RCR BYTE PTR [4603], CL
0734:59B0 53                  PUSH BX
0734:59B1 55                  PUSH BP
0734:59B2 42                  INC DX
0734:59B3 52                  PUSH DL
0734:59B4 D025                SHL BYTE PTR [DI], 1
0734:59B6 034649              ADD AX, [BP+49]
0734:59B9 53                  PUSH BX
0734:59BA 55                  PUSH BP
0734:59BB 42                  INC DX
0734:59BC D22A                SHR BYTE PTR [BP+SI], CL
0734:59BE 034654              ADD AX, [BP+54]
0734:59C1 53                  PUSH BX
0734:59C2 D42E                AAM 2E
0734:59C4 034655              ADD AX, [BP+55]
0734:59C7 43                  INC BX
0734:59C8 4F                  DEC DI
0734:59C9 CD37                INT 37
0734:59CB 034655              ADD AX, [BP+55]
0734:59CE 43                  INC BX
0734:59CF 4F                  DEC DI
0734:59D0 4D                  DEC BP
0734:59D1 C9                  DB C9
0734:59D2 40                  INC AX
0734:59D3 034655              ADD AX, [BP+55]
0734:59D6 43                  INC BX
0734:59D7 4F                  DEC DI
0734:59D8 4D                  DEC BP
0734:59D9 49                  DEC CX
0734:59DA D04903              ROR BYTE PTR [BX+DI+03], 1
0734:59DD 46                  INC SI
0734:59DE 55                  PUSH BP
0734:59DF 43                  INC BX
0734:59E0 4F                  DEC DI
0734:59E1 4D                  DEC BP
0734:59E2 D05203              RCL BYTE PTR [BP+SI+03], 1
0734:59E5 46                  INC SI
0734:59E6 55                  PUSH BP
0734:59E7 43                  INC BX
0734:59E8 4F                  DEC DI
0734:59E9 4D                  DEC BP
0734:59EA 50                  PUSH AL
0734:59EB D05703              RCL BYTE PTR [BX+03], 1
0734:59EE 46                  INC SI
0734:59EF 57                  PUSH DI
0734:59F0 41                  INC CX
0734:59F1 49                  DEC CX
0734:59F2 D45A                AAM 5A
0734:59F4 034658              ADD AX, [BP+58]
0734:59F7 41                  INC CX
0734:59F8 CD5E                INT 5E
0734:59FA 034658              ADD AX, [BP+58]
0734:59FD 43                  INC BX
0734:59FE C8                  DB C8
0734:59FF 65                  DB 65
0734:5A00 034658              ADD AX, [BP+58]
0734:5A03 54                  PUSH AH
0734:5A04 52                  PUSH DL
0734:5A05 41                  INC CX
0734:5A06 43                  INC BX
0734:5A07 D469                AAM 69
0734:5A09 034659              ADD AX, [BP+59]
0734:5A0C 4C                  DEC SP
0734:5A0D 32D8                XOR BL, AL
0734:5A0F 6D                  DB 6D
0734:5A10 034659              ADD AX, [BP+59]
0734:5A13 4C                  DEC SP
0734:5A14 325850              XOR BL, [BX+SI+50]
0734:5A17 B171                MOV CL, 71
0734:5A19 03484C              ADD CX, [BX+SI+4C]
0734:5A1C D474                AAM 74
0734:5A1E 034944              ADD CX, [BX+DI+44]
0734:5A21 49                  DEC CX
0734:5A22 D6                  DB D6
0734:5A23 7703                JA	5A28
0734:5A25 49                  DEC CX
0734:5A26 4D                  DEC BP
0734:5A27 55                  PUSH BP
0734:5A28 CC                  INT 3
0734:5A29 8903                MOV [BP+DI], AX
0734:5A2B 49                  DEC CX
0734:5A2C CE                  INTO
0734:5A2D 8E03                MOV ES, WORD PTR [BP+DI]
0734:5A2F 49                  DEC CX
0734:5A30 4E                  DEC SI
0734:5A31 C3                  RET
0734:5A32 94                  XCHG AX, SP
0734:5A33 03494E              ADD CX, [BX+DI+4E]
0734:5A36 53                  PUSH BX
0734:5A37 C29803              RET 0398
0734:5A3A 49                  DEC CX
0734:5A3B 4E                  DEC SI
0734:5A3C 53                  PUSH BX
0734:5A3D D7                  XLAT
0734:5A3E 99                  CWD
0734:5A3F 03494E              ADD CX, [BX+DI+4E]
0734:5A42 53                  PUSH BX
0734:5A43 C49E0349            LES BX, [BP+4903]
0734:5A47 4E                  DEC SI
0734:5A48 D4A3                AAM A3
0734:5A4A 03494E              ADD CX, [BX+DI+4E]
0734:5A4D 54                  PUSH AH
0734:5A4E CF                  IRET
0734:5A4F A6                  CMPSB
0734:5A50 03494E              ADD CX, [BX+DI+4E]
0734:5A53 56                  PUSH DH
0734:5A54 C4AA0349            LES BP, [BP+SI+4903]
0734:5A58 4E                  DEC SI
0734:5A59 56                  PUSH DH
0734:5A5A 4C                  DEC SP
0734:5A5B 50                  PUSH AL
0734:5A5C C7AE03495245        MOV WORD PTR [BP+4903], 4552
0734:5A62 D4AF                AAM AF
0734:5A64 034952              ADD CX, [BX+DI+52]
0734:5A67 45                  INC BP
0734:5A68 54                  PUSH AH
0734:5A69 C4B3034A            LES SI, [BP+DI+4A03]
0734:5A6D C1                  DB C1
0734:5A6E B9034A              MOV CX, 4A03
0734:5A71 41                  INC CX
0734:5A72 C5BF034A            LDS DI, [BX+4A03]
0734:5A76 C2C503              RET 03C5
0734:5A79 4A                  DEC DX
0734:5A7A 42                  INC DX
0734:5A7B C5CB                LDS CX, BX
0734:5A7D 034AC3              ADD CX, [BP+SI-C3]
0734:5A80 D103                ROL WORD PTR [BP+DI], 1
0734:5A82 4A                  DEC DX
0734:5A83 43                  INC BX
0734:5A84 58                  POP AX
0734:5A85 DAD2                FCMOVBE ST, ST(2)
0734:5A87 034A45              ADD CX, [BP+SI+45]
0734:5A8A 43                  INC BX
0734:5A8B 58                  POP AX
0734:5A8C DAD6                FCMOVBE ST, ST(6)
0734:5A8E 034AC5              ADD CX, [BP+SI-C5]
0734:5A91 DC03                FADD DWORD PTR [BP+DI]
0734:5A93 4A                  DEC DX
0734:5A94 C7E2034A            MOV DX, 4A03
0734:5A98 47                  INC DI
0734:5A99 C5E8                LDS BP, AX
0734:5A9B 034ACC              ADD CX, [BP+SI-CC]
0734:5A9E EE                  OUT DX, AL
0734:5A9F 034A4C              ADD CX, [BP+SI+4C]
0734:5AA2 C5F4                LDS SI, SP
0734:5AA4 034A4E              ADD CX, [BP+SI+4E]
0734:5AA7 C1                  DB C1
0734:5AA8 FA                  CLI
0734:5AA9 034A4E              ADD CX, [BP+SI+4E]
0734:5AAC 41                  INC CX
0734:5AAD C500                LDS AX, [BX+SI]
0734:5AAF 044A                ADD AL, 4A
0734:5AB1 4E                  DEC SI
0734:5AB2 C20604              RET 0406
0734:5AB5 4A                  DEC DX
0734:5AB6 4E                  DEC SI
0734:5AB7 42                  INC DX
0734:5AB8 C50C                LDS CX, [SI]
0734:5ABA 044A                ADD AL, 4A
0734:5ABC 4E                  DEC SI
0734:5ABD C3                  RET
0734:5ABE 1204                ADC AL, [SI]
0734:5AC0 4A                  DEC DX
0734:5AC1 4E                  DEC SI
0734:5AC2 C518                LDS BX, [BX+SI]
0734:5AC4 044A                ADD AL, 4A
0734:5AC6 4E                  DEC SI
0734:5AC7 C71E044A4E47        MOV WORD PTR [4A04], 474E
0734:5ACD C524                LDS SP, [SI]
0734:5ACF 044A                ADD AL, 4A
0734:5AD1 4E                  DEC SI
0734:5AD2 CC                  INT 3
0734:5AD3 2A04                SUB AL, [SI]
0734:5AD5 4A                  DEC DX
0734:5AD6 4E                  DEC SI
0734:5AD7 4C                  DEC SP
0734:5AD8 C530                LDS SI, [BX+SI]
0734:5ADA 044A                ADD AL, 4A
0734:5ADC 4E                  DEC SI
0734:5ADD CF                  IRET
0734:5ADE 26                  SEG ES (unused)
0734:5ADF 044A                ADD AL, 4A
0734:5AE1 4E                  DEC SI
0734:5AE2 D03C                SAR BYTE PTR [SI], 1
0734:5AE4 044A                ADD AL, 4A
0734:5AE6 4E                  DEC SI
0734:5AE7 D34204              ROL WORD PTR [BP+SI+04], CL
0734:5AEA 4A                  DEC DX
0734:5AEB 4E                  DEC SI
0734:5AEC DA4804              FIMUL FLOAT PTR [BX+SI+04]
0734:5AEF 4A                  DEC DX
0734:5AF0 CF                  IRET
0734:5AF1 4E                  DEC SI
0734:5AF2 044A                ADD AL, 4A
0734:5AF4 D05404              RCL BYTE PTR [SI+04], 1
0734:5AF7 4A                  DEC DX
0734:5AF8 50                  PUSH AL
0734:5AF9 C55A04              LDS BX, [BP+SI+04]
0734:5AFC 4A                  DEC DX
0734:5AFD 50                  PUSH AL
0734:5AFE CF                  IRET
0734:5AFF 60                  DB 60
0734:5B00 044A                ADD AL, 4A
0734:5B02 D36604              SHL WORD PTR [BP+04], CL
0734:5B05 4A                  DEC DX
0734:5B06 DA6C04              FISUBR FLOAT PTR [SI+04]
0734:5B09 4A                  DEC DX
0734:5B0A 4D                  DEC BP
0734:5B0B D0                  DB D0
0734:5B0C 7704                JA	5B12
0734:5B0E 4C                  DEC SP
0734:5B0F 41                  INC CX
0734:5B10 48                  DEC AX
0734:5B11 C67A044C            MOV BYTE PTR [BP+SI+04], 4C
0734:5B15 41                  INC CX
0734:5B16 D27E04              SAR BYTE PTR [BP+04], CL
0734:5B19 4C                  DEC SP
0734:5B1A 44                  INC SP
0734:5B1B D381044C            ROL WORD PTR [BX+DI+4C04], CL
0734:5B1F 53                  PUSH BX
0734:5B20 D385044C            ROL WORD PTR [DI+4C04], CL
0734:5B24 45                  INC BP
0734:5B25 D388044C            ROR WORD PTR [BX+SI+4C04], CL
0734:5B29 46                  INC SI
0734:5B2A D38C044C            ROR WORD PTR [SI+4C04], CL
0734:5B2E 47                  INC DI
0734:5B2F D390044C            RCL WORD PTR [BX+SI+4C04], CL
0734:5B33 45                  INC BP
0734:5B34 C1                  DB C1
0734:5B35 93                  XCHG AX, BX
0734:5B36 044C                ADD AL, 4C
0734:5B38 45                  INC BP
0734:5B39 41                  INC CX
0734:5B3A 56                  PUSH DH
0734:5B3B C597044C            LDS DX, [BX+4C04]
0734:5B3F 47                  INC DI
0734:5B40 44                  INC SP
0734:5B41 D49B                AAM 9B
0734:5B43 044C                ADD AL, 4C
0734:5B45 49                  DEC CX
0734:5B46 44                  INC SP
0734:5B47 D49F                AAM 9F
0734:5B49 044C                ADD AL, 4C
0734:5B4B 4C                  DEC SP
0734:5B4C 44                  INC SP
0734:5B4D D4A3                AAM A3
0734:5B4F 044C                ADD AL, 4C
0734:5B51 4D                  DEC BP
0734:5B52 53                  PUSH BX
0734:5B53 D7                  XLAT
0734:5B54 A7                  CMPSW
0734:5B55 044C                ADD AL, 4C
0734:5B57 4F                  DEC DI
0734:5B58 43                  INC BX
0734:5B59 CB                  RETF
0734:5B5A A9044C              TEST AX, 4C04
0734:5B5D 4F                  DEC DI
0734:5B5E 44                  INC SP
0734:5B5F 53                  PUSH BX
0734:5B60 C2AC04              RET 04AC
0734:5B63 4C                  DEC SP
0734:5B64 4F                  DEC DI
0734:5B65 44                  INC SP
0734:5B66 53                  PUSH BX
0734:5B67 D7                  XLAT
0734:5B68 AD                  LODSW
0734:5B69 044C                ADD AL, 4C
0734:5B6B 4F                  DEC DI
0734:5B6C 44                  INC SP
0734:5B6D 53                  PUSH BX
0734:5B6E C4B1044C            LES SI, [BX+DI+4C04]
0734:5B72 4F                  DEC DI
0734:5B73 4F                  DEC DI
0734:5B74 D0                  DB D0
0734:5B75 B404                MOV AH, 04
0734:5B77 4C                  DEC SP
0734:5B78 4F                  DEC DI
0734:5B79 4F                  DEC DI
0734:5B7A 50                  PUSH AL
0734:5B7B D7                  XLAT
0734:5B7C B504                MOV CH, 04
0734:5B7E 4C                  DEC SP
0734:5B7F 4F                  DEC DI
0734:5B80 4F                  DEC DI
0734:5B81 50                  PUSH AL
0734:5B82 C4B9044C            LES DI, [BX+DI+4C04]
0734:5B86 4F                  DEC DI
0734:5B87 4F                  DEC DI
0734:5B88 50                  PUSH AL
0734:5B89 DABC044C            FIDIVR FLOAT PTR [SI+4C04]
0734:5B8D 4F                  DEC DI
0734:5B8E 4F                  DEC DI
0734:5B8F 50                  PUSH AL
0734:5B90 C5BF044C            LDS DI, [BX+4C04]
0734:5B94 4F                  DEC DI
0734:5B95 4F                  DEC DI
0734:5B96 50                  PUSH AL
0734:5B97 45                  INC BP
0734:5B98 D7                  XLAT
0734:5B99 C0                  DB C0
0734:5B9A 044C                ADD AL, 4C
0734:5B9C 4F                  DEC DI
0734:5B9D 4F                  DEC DI
0734:5B9E 50                  PUSH AL
0734:5B9F 45                  INC BP
0734:5BA0 C4C4                LES AX, AH
0734:5BA2 044C                ADD AL, 4C
0734:5BA4 4F                  DEC DI
0734:5BA5 4F                  DEC DI
0734:5BA6 50                  PUSH AL
0734:5BA7 5A                  POP DX
0734:5BA8 D7                  XLAT
0734:5BA9 C504                LDS AX, [SI]
0734:5BAB 4C                  DEC SP
0734:5BAC 4F                  DEC DI
0734:5BAD 4F                  DEC DI
0734:5BAE 50                  PUSH AL
0734:5BAF 5A                  POP DX
0734:5BB0 C4C9                LES CX, CL
0734:5BB2 044C                ADD AL, 4C
0734:5BB4 4F                  DEC DI
0734:5BB5 4F                  DEC DI
0734:5BB6 50                  PUSH AL
0734:5BB7 4E                  DEC SI
0734:5BB8 DACC                FCMOVE ST, ST(4)
0734:5BBA 044C                ADD AL, 4C
0734:5BBC 4F                  DEC DI
0734:5BBD 4F                  DEC DI
0734:5BBE 50                  PUSH AL
0734:5BBF 4E                  DEC SI
0734:5BC0 C5CF                LDS CX, DI
0734:5BC2 044C                ADD AL, 4C
0734:5BC4 4F                  DEC DI
0734:5BC5 4F                  DEC DI
0734:5BC6 50                  PUSH AL
0734:5BC7 4E                  DEC SI
0734:5BC8 45                  INC BP
0734:5BC9 D7                  XLAT
0734:5BCA D004                ROL BYTE PTR [SI], 1
0734:5BCC 4C                  DEC SP
0734:5BCD 4F                  DEC DI
0734:5BCE 4F                  DEC DI
0734:5BCF 50                  PUSH AL
0734:5BD0 4E                  DEC SI
0734:5BD1 45                  INC BP
0734:5BD2 C4D4                LES DX, AH
0734:5BD4 044C                ADD AL, 4C
0734:5BD6 4F                  DEC DI
0734:5BD7 4F                  DEC DI
0734:5BD8 50                  PUSH AL
0734:5BD9 4E                  DEC SI
0734:5BDA 5A                  POP DX
0734:5BDB D7                  XLAT
0734:5BDC D504                AAD 04
0734:5BDE 4C                  DEC SP
0734:5BDF 4F                  DEC DI
0734:5BE0 4F                  DEC DI
0734:5BE1 50                  PUSH AL
0734:5BE2 4E                  DEC SI
0734:5BE3 5A                  POP DX
0734:5BE4 C4D9                LES BX, CL
0734:5BE6 044C                ADD AL, 4C
0734:5BE8 53                  PUSH BX
0734:5BE9 CC                  INT 3
0734:5BEA DD04                FLD DWORD PTR [SI]
0734:5BEC 4C                  DEC SP
0734:5BED 54                  PUSH AH
0734:5BEE D2E1                SHL CL, CL
0734:5BF0 044D                ADD AL, 4D
0734:5BF2 4F                  DEC DI
0734:5BF3 D6                  DB D6
0734:5BF4 06                  PUSH ES
0734:5BF5 054D4F              ADD AX, 4F4D
0734:5BF8 56                  PUSH DH
0734:5BF9 53                  PUSH BX
0734:5BFA C20905              RET 0509
0734:5BFD 4D                  DEC BP
0734:5BFE 4F                  DEC DI
0734:5BFF 56                  PUSH DH
0734:5C00 53                  PUSH BX
0734:5C01 D7                  XLAT
0734:5C02 0A05                OR AL, [DI]
0734:5C04 4D                  DEC BP
0734:5C05 4F                  DEC DI
0734:5C06 56                  PUSH DH
0734:5C07 53                  PUSH BX
0734:5C08 C40E054D            LES CX, [4D05]
0734:5C0C 4F                  DEC DI
0734:5C0D 56                  PUSH DH
0734:5C0E 53                  PUSH BX
0734:5C0F D815                FCOM FLOAT PTR [DI]
0734:5C11 054D4F              ADD AX, 4F4D
0734:5C14 56                  PUSH DH
0734:5C15 5A                  POP DX
0734:5C16 D81C                FCOMP FLOAT PTR [SI]
0734:5C18 054D55              ADD AX, 554D
0734:5C1B CC                  INT 3
0734:5C1C 1F                  POP DS
0734:5C1D 054E45              ADD AX, 454E
0734:5C20 C723054E            MOV WORD PTR [BP+DI], 4E05
0734:5C24 4F                  DEC DI
0734:5C25 D026054E            SHL BYTE PTR [4E05], 1
0734:5C29 4F                  DEC DI
0734:5C2A D42A                AAM 2A
0734:5C2C 054FD2              ADD AX, D24F
0734:5C2F 3805                CMP [DI], AL
0734:5C31 4F                  DEC DI
0734:5C32 52                  PUSH DL
0734:5C33 C739054F            MOV WORD PTR [BX+DI], 4F05
0734:5C37 55                  PUSH BP
0734:5C38 D43E                AAM 3E
0734:5C3A 054F55              ADD AX, 554F
0734:5C3D 54                  PUSH AH
0734:5C3E 53                  PUSH BX
0734:5C3F C24205              RET 0542
0734:5C42 4F                  DEC DI
0734:5C43 55                  PUSH BP
0734:5C44 54                  PUSH AH
0734:5C45 53                  PUSH BX
0734:5C46 D7                  XLAT
0734:5C47 43                  INC BX
0734:5C48 054F55              ADD AX, 554F
0734:5C4B 54                  PUSH AH
0734:5C4C 53                  PUSH BX
0734:5C4D C44805              LES CX, [BX+SI+05]
0734:5C50 50                  PUSH AL
0734:5C51 4F                  DEC DI
0734:5C52 D05905              RCR BYTE PTR [BX+DI+05], 1
0734:5C55 50                  PUSH AL
0734:5C56 4F                  DEC DI
0734:5C57 50                  PUSH AL
0734:5C58 C1                  DB C1
0734:5C59 5A                  POP DX
0734:5C5A 05504F              ADD AX, 4F50
0734:5C5D 50                  PUSH AL
0734:5C5E 41                  INC CX
0734:5C5F C45F05              LES BX, [BX+05]
0734:5C62 50                  PUSH AL
0734:5C63 4F                  DEC DI
0734:5C64 50                  PUSH AL
0734:5C65 C6600550            MOV BYTE PTR [BX+SI+05], 50
0734:5C69 4F                  DEC DI
0734:5C6A 50                  PUSH AL
0734:5C6B 46                  INC SI
0734:5C6C C46405              LES SP, [SI+05]
0734:5C6F 50                  PUSH AL
0734:5C70 55                  PUSH BP
0734:5C71 53                  PUSH BX
0734:5C72 C8                  DB C8
0734:5C73 7D05                JNL	5C7A
0734:5C75 50                  PUSH AL
0734:5C76 55                  PUSH BP
0734:5C77 53                  PUSH BX
0734:5C78 48                  DEC AX
0734:5C79 C1                  DB C1
0734:5C7A 7E05                JLE	5C81
0734:5C7C 50                  PUSH AL
0734:5C7D 55                  PUSH BP
0734:5C7E 53                  PUSH BX
0734:5C7F 48                  DEC AX
0734:5C80 41                  INC CX
0734:5C81 C4830550            LES AX, [BP+DI+5005]
0734:5C85 55                  PUSH BP
0734:5C86 53                  PUSH BX
0734:5C87 48                  DEC AX
0734:5C88 C684055055          MOV BYTE PTR [SI+5005], 55
0734:5C8D 53                  PUSH BX
0734:5C8E 48                  DEC AX
0734:5C8F 46                  INC SI
0734:5C90 C4880552            LES CX, [BX+SI+5205]
0734:5C94 43                  INC BX
0734:5C95 CC                  INT 3
0734:5C96 90                  XCHG AX, AX
0734:5C97 055243              ADD AX, 4352
0734:5C9A D2980552            RCR BYTE PTR [BX+SI+5205], CL
0734:5C9E 4F                  DEC DI
0734:5C9F CC                  INT 3
0734:5CA0 A00552              MOV AL, [5205]
0734:5CA3 4F                  DEC DI
0734:5CA4 D2A80552            SHR BYTE PTR [BX+SI+5205], CL
0734:5CA8 44                  INC SP
0734:5CA9 4D                  DEC BP
0734:5CAA 53                  PUSH BX
0734:5CAB D2AC0552            SHR BYTE PTR [SI+5205], CL
0734:5CAF 45                  INC BP
0734:5CB0 D0AE0552            SHR BYTE PTR [BP+5205], 1
0734:5CB4 45                  INC BP
0734:5CB5 50                  PUSH AL
0734:5CB6 C5B00552            LDS SI, [BX+SI+5205]
0734:5CBA 45                  INC BP
0734:5CBB 50                  PUSH AL
0734:5CBC 4E                  DEC SI
0734:5CBD C5B20552            LDS SI, [BP+SI+5205]
0734:5CC1 45                  INC BP
0734:5CC2 D4B7                AAM B7
0734:5CC4 055245              ADD AX, 4552
0734:5CC7 54                  PUSH AH
0734:5CC8 C6B8055245          MOV BYTE PTR [BX+SI+5205], 45
0734:5CCD 54                  PUSH AH
0734:5CCE 46                  INC SI
0734:5CCF C4BE0552            LES DI, [BP+5205]
0734:5CD3 53                  PUSH BX
0734:5CD4 CDC2                INT C2
0734:5CD6 055341              ADD AX, 4153
0734:5CD9 48                  DEC AX
0734:5CDA C6C505              MOV CH, 05
0734:5CDD 53                  PUSH BX
0734:5CDE 41                  INC CX
0734:5CDF CC                  INT 3
0734:5CE0 CD05                INT 05
0734:5CE2 53                  PUSH BX
0734:5CE3 41                  INC CX
0734:5CE4 D2D5                RCL CH, CL
0734:5CE6 055345              ADD AX, 4553
0734:5CE9 C7E20545            MOV DX, 4505
0734:5CED D3E4                SHL SP, CL
0734:5CEF 0543D3              ADD AX, D343
0734:5CF2 E605                OUT 05, AL
0734:5CF4 53                  PUSH BX
0734:5CF5 D3E8                SHR AX, CL
0734:5CF7 0544D3              ADD AX, D344
0734:5CFA EA0546D3EC          JMP ECD3:4605
0734:5CFF 0547D3              ADD AX, D347
0734:5D02 EE                  OUT DX, AL
0734:5D03 055348              ADD AX, 4853
0734:5D06 CC                  INT 3
0734:5D07 F60553              TEST BYTE PTR [DI], 53
0734:5D0A 48                  DEC AX
0734:5D0B D2FE                SAR DH, CL
0734:5D0D 055342              ADD AX, 4253
0734:5D10 C20C06              RET 060C
0734:5D13 53                  PUSH BX
0734:5D14 43                  INC BX
0734:5D15 41                  INC CX
0734:5D16 53                  PUSH BX
0734:5D17 C20F06              RET 060F
0734:5D1A 53                  PUSH BX
0734:5D1B 43                  INC BX
0734:5D1C 41                  INC CX
0734:5D1D 53                  PUSH BX
0734:5D1E D7                  XLAT
0734:5D1F 10065343            ADC [4353], AL
0734:5D23 41                  INC CX
0734:5D24 53                  PUSH BX
0734:5D25 C414                LES DX, [SI]
0734:5D27 06                  PUSH ES
0734:5D28 53                  PUSH BX
0734:5D29 45                  INC BP
0734:5D2A 54                  PUSH AH
0734:5D2B C1                  DB C1
0734:5D2C 18065345            SSB [4553], AL
0734:5D30 54                  PUSH AH
0734:5D31 41                  INC CX
0734:5D32 C51C                LDS BX, [SI]
0734:5D34 06                  PUSH ES
0734:5D35 53                  PUSH BX
0734:5D36 45                  INC BP
0734:5D37 54                  PUSH AH
0734:5D38 C22006              RET 0620
0734:5D3B 53                  PUSH BX
0734:5D3C 45                  INC BP
0734:5D3D 54                  PUSH AH
0734:5D3E 42                  INC DX
0734:5D3F C524                LDS SP, [SI]
0734:5D41 06                  PUSH ES
0734:5D42 53                  PUSH BX
0734:5D43 45                  INC BP
0734:5D44 54                  PUSH AH
0734:5D45 C3                  RET
0734:5D46 28065345            SUB [4553], AL
0734:5D4A 54                  PUSH AH
0734:5D4B C52C                LDS BP, [SI]
0734:5D4D 06                  PUSH ES
0734:5D4E 53                  PUSH BX
0734:5D4F 45                  INC BP
0734:5D50 54                  PUSH AH
0734:5D51 C7300653            MOV WORD PTR [BX+SI], 5306
0734:5D55 45                  INC BP
0734:5D56 54                  PUSH AH
0734:5D57 47                  INC DI
0734:5D58 C534                LDS SI, [SI]
0734:5D5A 06                  PUSH ES
0734:5D5B 53                  PUSH BX
0734:5D5C 45                  INC BP
0734:5D5D 54                  PUSH AH
0734:5D5E CC                  INT 3
0734:5D5F 38065345            CMP [4553], AL
0734:5D63 54                  PUSH AH
0734:5D64 4C                  DEC SP
0734:5D65 C53C                LDS DI, [SI]
0734:5D67 06                  PUSH ES
0734:5D68 53                  PUSH BX
0734:5D69 45                  INC BP
0734:5D6A 54                  PUSH AH
0734:5D6B 4E                  DEC SI
0734:5D6C C1                  DB C1
0734:5D6D 40                  INC AX
0734:5D6E 06                  PUSH ES
0734:5D6F 53                  PUSH BX
0734:5D70 45                  INC BP
0734:5D71 54                  PUSH AH
0734:5D72 4E                  DEC SI
0734:5D73 41                  INC CX
0734:5D74 C54406              LDS AX, [SI+06]
0734:5D77 53                  PUSH BX
0734:5D78 45                  INC BP
0734:5D79 54                  PUSH AH
0734:5D7A 4E                  DEC SI
0734:5D7B C24806              RET 0648
0734:5D7E 53                  PUSH BX
0734:5D7F 45                  INC BP
0734:5D80 54                  PUSH AH
0734:5D81 4E                  DEC SI
0734:5D82 42                  INC DX
0734:5D83 C54C06              LDS CX, [SI+06]
0734:5D86 53                  PUSH BX
0734:5D87 45                  INC BP
0734:5D88 54                  PUSH AH
0734:5D89 4E                  DEC SI
0734:5D8A C3                  RET
0734:5D8B 50                  PUSH AL
0734:5D8C 06                  PUSH ES
0734:5D8D 53                  PUSH BX
0734:5D8E 45                  INC BP
0734:5D8F 54                  PUSH AH
0734:5D90 4E                  DEC SI
0734:5D91 C55406              LDS DX, [SI+06]
0734:5D94 53                  PUSH BX
0734:5D95 45                  INC BP
0734:5D96 54                  PUSH AH
0734:5D97 4E                  DEC SI
0734:5D98 C758065345          MOV WORD PTR [BX+SI+06], 4553
0734:5D9D 54                  PUSH AH
0734:5D9E 4E                  DEC SI
0734:5D9F 47                  INC DI
0734:5DA0 C55C06              LDS BX, [SI+06]
0734:5DA3 53                  PUSH BX
0734:5DA4 45                  INC BP
0734:5DA5 54                  PUSH AH
0734:5DA6 4E                  DEC SI
0734:5DA7 CC                  INT 3
0734:5DA8 60                  DB 60
0734:5DA9 06                  PUSH ES
0734:5DAA 53                  PUSH BX
0734:5DAB 45                  INC BP
0734:5DAC 54                  PUSH AH
0734:5DAD 4E                  DEC SI
0734:5DAE 4C                  DEC SP
0734:5DAF C56406              LDS SP, [SI+06]
0734:5DB2 53                  PUSH BX
0734:5DB3 45                  INC BP
0734:5DB4 54                  PUSH AH
0734:5DB5 4E                  DEC SI
0734:5DB6 CF                  IRET
0734:5DB7 68                  DB 68
0734:5DB8 06                  PUSH ES
0734:5DB9 53                  PUSH BX
0734:5DBA 45                  INC BP
0734:5DBB 54                  PUSH AH
0734:5DBC 4E                  DEC SI
0734:5DBD D06C06              SHR BYTE PTR [SI+06], 1
0734:5DC0 53                  PUSH BX
0734:5DC1 45                  INC BP
0734:5DC2 54                  PUSH AH
0734:5DC3 4E                  DEC SI
0734:5DC4 D3                  DB D3
0734:5DC5 7006                JO	5DCD
0734:5DC7 53                  PUSH BX
0734:5DC8 45                  INC BP
0734:5DC9 54                  PUSH AH
0734:5DCA 4E                  DEC SI
0734:5DCB DA7406              FIDIV FLOAT PTR [SI+06]
0734:5DCE 53                  PUSH BX
0734:5DCF 45                  INC BP
0734:5DD0 54                  PUSH AH
0734:5DD1 CF                  IRET
0734:5DD2 7806                JS	5DDA
0734:5DD4 53                  PUSH BX
0734:5DD5 45                  INC BP
0734:5DD6 54                  PUSH AH
0734:5DD7 D07C06              SAR BYTE PTR [SI+06], 1
0734:5DDA 53                  PUSH BX
0734:5DDB 45                  INC BP
0734:5DDC 54                  PUSH AH
0734:5DDD 50                  PUSH AL
0734:5DDE C5800653            LDS AX, [BX+SI+5306]
0734:5DE2 45                  INC BP
0734:5DE3 54                  PUSH AH
0734:5DE4 50                  PUSH AL
0734:5DE5 CF                  IRET
0734:5DE6 84065345            TEST [4553], AL
0734:5DEA 54                  PUSH AH
0734:5DEB D3880653            ROR WORD PTR [BX+SI+5306], CL
0734:5DEF 45                  INC BP
0734:5DF0 54                  PUSH AH
0734:5DF1 DA8C0653            FIMUL FLOAT PTR [SI+5306]
0734:5DF5 47                  INC DI
0734:5DF6 44                  INC SP
0734:5DF7 D490                AAM 90
0734:5DF9 06                  PUSH ES
0734:5DFA 53                  PUSH BX
0734:5DFB 49                  DEC CX
0734:5DFC 44                  INC SP
0734:5DFD D494                AAM 94
0734:5DFF 06                  PUSH ES
0734:5E00 53                  PUSH BX
0734:5E01 48                  DEC AX
0734:5E02 4C                  DEC SP
0734:5E03 C49B0653            LES BX, [BP+DI+5306]
0734:5E07 48                  DEC AX
0734:5E08 52                  PUSH DL
0734:5E09 C4A20653            LES SP, [BP+SI+5306]
0734:5E0D 4C                  DEC SP
0734:5E0E 44                  INC SP
0734:5E0F D4A6                AAM A6
0734:5E11 06                  PUSH ES
0734:5E12 53                  PUSH BX
0734:5E13 4D                  DEC BP
0734:5E14 53                  PUSH BX
0734:5E15 D7                  XLAT
0734:5E16 AA                  STOSB
0734:5E17 06                  PUSH ES
0734:5E18 53                  PUSH BX
0734:5E19 54                  PUSH AH
0734:5E1A C3                  RET
0734:5E1B AD                  LODSW
0734:5E1C 06                  PUSH ES
0734:5E1D 53                  PUSH BX
0734:5E1E 54                  PUSH AH
0734:5E1F C4B00653            LES SI, [BX+SI+5306]
0734:5E23 54                  PUSH AH
0734:5E24 C9                  DB C9
0734:5E25 B306                MOV BL, 06
0734:5E27 53                  PUSH BX
0734:5E28 54                  PUSH AH
0734:5E29 4F                  DEC DI
0734:5E2A 53                  PUSH BX
0734:5E2B C2B606              RET 06B6
0734:5E2E 53                  PUSH BX
0734:5E2F 54                  PUSH AH
0734:5E30 4F                  DEC DI
0734:5E31 53                  PUSH BX
0734:5E32 D7                  XLAT
0734:5E33 B706                MOV BH, 06
0734:5E35 53                  PUSH BX
0734:5E36 54                  PUSH AH
0734:5E37 4F                  DEC DI
0734:5E38 53                  PUSH BX
0734:5E39 C4BB0653            LES DI, [BP+DI+5306]
0734:5E3D 54                  PUSH AH
0734:5E3E D2BF0653            SAR BYTE PTR [BX+5306], CL
0734:5E42 55                  PUSH BP
0734:5E43 C2CD06              RET 06CD
0734:5E46 54                  PUSH AH
0734:5E47 45                  INC BP
0734:5E48 53                  PUSH BX
0734:5E49 D4D6                AAM D6
0734:5E4B 06                  PUSH ES
0734:5E4C 56                  PUSH DH
0734:5E4D 45                  INC BP
0734:5E4E 52                  PUSH DL
0734:5E4F D2DA                RCR DL, CL
0734:5E51 06                  PUSH ES
0734:5E52 56                  PUSH DH
0734:5E53 45                  INC BP
0734:5E54 52                  PUSH DL
0734:5E55 D7                  XLAT
0734:5E56 DE065741            FIADD WORD PTR [4157]
0734:5E5A 49                  DEC CX
0734:5E5B D4E1                AAM E1
0734:5E5D 06                  PUSH ES
0734:5E5E 57                  PUSH DI
0734:5E5F 42                  INC DX
0734:5E60 49                  DEC CX
0734:5E61 4E                  DEC SI
0734:5E62 56                  PUSH DH
0734:5E63 C4E5                LES SP, CH
0734:5E65 06                  PUSH ES
0734:5E66 57                  PUSH DI
0734:5E67 52                  PUSH DL
0734:5E68 4D                  DEC BP
0734:5E69 53                  PUSH BX
0734:5E6A D2E9                SHR CL, CL
0734:5E6C 06                  PUSH ES
0734:5E6D 58                  POP AX
0734:5E6E 41                  INC CX
0734:5E6F 44                  INC SP
0734:5E70 C4EE                LES BP, DH
0734:5E72 06                  PUSH ES
0734:5E73 58                  POP AX
0734:5E74 43                  INC BX
0734:5E75 48                  DEC AX
0734:5E76 C7F90658            MOV CX, 5806
0734:5E7A 4C                  DEC SP
0734:5E7B 41                  INC CX
0734:5E7C D4FC                AAM FC
0734:5E7E 06                  PUSH ES
0734:5E7F 58                  POP AX
0734:5E80 4C                  DEC SP
0734:5E81 41                  INC CX
0734:5E82 54                  PUSH AH
0734:5E83 C2FF06              RET 06FF
0734:5E86 58                  POP AX
0734:5E87 4F                  DEC DI
0734:5E88 D2161619            RCL BYTE PTR [1916], CL
0734:5E8C 190D                SSB [DI], CX
0734:5E8E 0DBCBC              OR AX, BCBC
0734:5E91 16                  PUSH SS
0734:5E92 16                  PUSH SS
0734:5E93 1919                SSB [BX+DI], BX
0734:5E95 0D0DBE              OR AX, BE0D
0734:5E98 02161619            ADD DL, [1916]
0734:5E9C 190D                SSB [DI], CX
0734:5E9E 0DC0C0              OR AX, C0C0
0734:5EA1 16                  PUSH SS
0734:5EA2 16                  PUSH SS
0734:5EA3 1919                SSB [BX+DI], BX
0734:5EA5 0D0DC2              OR AX, C20D
0734:5EA8 C21616              RET 1616
0734:5EAB 1919                SSB [BX+DI], BX
0734:5EAD 0D0D0A              OR AX, 0A0D
0734:5EB0 0C16                OR AL, 16
0734:5EB2 16                  PUSH SS
0734:5EB3 1919                SSB [BX+DI], BX
0734:5EB5 0D0D0A              OR AX, 0A0D
0734:5EB8 0C16                OR AL, 16
0734:5EBA 16                  PUSH SS
0734:5EBB 1919                SSB [BX+DI], BX
0734:5EBD 0D0D0A              OR AX, 0A0D
0734:5EC0 0C16                OR AL, 16
0734:5EC2 16                  PUSH SS
0734:5EC3 1919                SSB [BX+DI], BX
0734:5EC5 0D0D0A              OR AX, 0A0D
0734:5EC8 0C37                OR AL, 37
0734:5ECA 37                  AAA
0734:5ECB 37                  AAA
0734:5ECC 37                  AAA
0734:5ECD 37                  AAA
0734:5ECE 37                  AAA
0734:5ECF 37                  AAA
0734:5ED0 37                  AAA
0734:5ED1 37                  AAA
0734:5ED2 37                  AAA
0734:5ED3 37                  AAA
0734:5ED4 37                  AAA
0734:5ED5 37                  AAA
0734:5ED6 37                  AAA
0734:5ED7 37                  AAA
0734:5ED8 37                  AAA
0734:5ED9 37                  AAA
0734:5EDA 37                  AAA
0734:5EDB 37                  AAA
0734:5EDC 37                  AAA
0734:5EDD 37                  AAA
0734:5EDE 37                  AAA
0734:5EDF 37                  AAA
0734:5EE0 37                  AAA
0734:5EE1 37                  AAA
0734:5EE2 37                  AAA
0734:5EE3 37                  AAA
0734:5EE4 37                  AAA
0734:5EE5 37                  AAA
0734:5EE6 37                  AAA
0734:5EE7 37                  AAA
0734:5EE8 37                  AAA
0734:5EE9 0C0C                OR AL, 0C
0734:5EEB 1F                  POP DS
0734:5EEC 1C0A                SSB AL, 0A
0734:5EEE 0A0A                OR CL, [BP+SI]
0734:5EF0 0A9B619E            OR BL, [BP+DI+9E61]
0734:5EF4 59                  POP CX
0734:5EF5 0C0C                OR AL, 0C
0734:5EF7 0C0C                OR AL, 0C
0734:5EF9 7373                JNB	5F6E
0734:5EFB 7373                JNB	5F70
0734:5EFD 7373                JNB	5F72
0734:5EFF 7373                JNB	5F74
0734:5F01 7373                JNB	5F76
0734:5F03 7373                JNB	5F78
0734:5F05 7373                JNB	5F7A
0734:5F07 7373                JNB	5F7C
0734:5F09 0404                ADD AL, 04
0734:5F0B 0004                ADD [SI], AL
0734:5F0D 16                  PUSH SS
0734:5F0E 16                  PUSH SS
0734:5F0F 1919                SSB [BX+DI], BX
0734:5F11 16                  PUSH SS
0734:5F12 16                  PUSH SS
0734:5F13 1919                SSB [BX+DI], BX
0734:5F15 791F                JNS	5F36
0734:5F17 7C04                JL	5F1D
0734:5F19 0CB6                OR AL, B6
0734:5F1B B6B6                MOV DH, B6
0734:5F1D B6B6                MOV DH, B6
0734:5F1F B6B6                MOV DH, B6
0734:5F21 0C0C                OR AL, 0C
0734:5F23 2F                  DAS
0734:5F24 0C0C                OR AL, 0C
0734:5F26 0C0C                OR AL, 0C
0734:5F28 0C7F                OR AL, 7F
0734:5F2A 7F82                JG	5EAE
0734:5F2C 82                  DB 82
0734:5F2D 0C0C                OR AL, 0C
0734:5F2F 0C0C                OR AL, 0C
0734:5F31 0D0D0C              OR AX, 0C0D
0734:5F34 0C0C                OR AL, 0C
0734:5F36 0C0C                OR AL, 0C
0734:5F38 0C85                OR AL, 85
0734:5F3A 85858585            TEST [DI+8585], AX
0734:5F3E 85858588            TEST [DI+8885], AX
0734:5F42 88888888            MOV [BX+SI+8888], CL
0734:5F46 88888804            MOV [BX+SI+0488], CL
0734:5F4A 04AA                ADD AL, AA
0734:5F4C 0C1F                OR AL, 1F
0734:5F4E 1F                  POP DS
0734:5F4F 0404                ADD AL, 04
0734:5F51 390C                CMP [SI], CX
0734:5F53 AA                  STOSB
0734:5F54 0C6F                OR AL, 6F
0734:5F56 710C                JNO	5F64
0734:5F58 0C04                OR AL, 04
0734:5F5A 0404                ADD AL, 04
0734:5F5C 0471                ADD AL, 71
0734:5F5E 7100                JNO	5F60
0734:5F60 0C06                OR AL, 06
0734:5F62 06                  PUSH ES
0734:5F63 06                  PUSH ES
0734:5F64 06                  PUSH ES
0734:5F65 06                  PUSH ES
0734:5F66 06                  PUSH ES
0734:5F67 06                  PUSH ES
0734:5F68 06                  PUSH ES
0734:5F69 7373                JNB	5FDE
0734:5F6B 7373                JNB	5FE0
0734:5F6D 69                  DB 69
0734:5F6E 69                  DB 69
0734:5F6F 93                  XCHG AX, BX
0734:5F70 93                  XCHG AX, BX
0734:5F71 2D2D2F              SUB AX, 2F2D
0734:5F74 736C                JNB	5FE2
0734:5F76 6C                  DB 6C
0734:5F77 96                  XCHG AX, SI
0734:5F78 96                  XCHG AX, SI
0734:5F79 0A00                OR AL, [BX+SI]
0734:5F7B 0A0A                OR CL, [BP+SI]
0734:5F7D 0C0C                OR AL, 0C
0734:5F7F 0404                ADD AL, 04
0734:5F81 0C0C                OR AL, 0C
0734:5F83 0C0C                OR AL, 0C
0734:5F85 0C0C                OR AL, 0C
0734:5F87 0404                ADD AL, 04
0734:5F89 1010                ADC [BX+SI], DL
0734:5F8B 1010                ADC [BX+SI], DL
0734:5F8D 1010                ADC [BX+SI], DL
0734:5F8F 1010                ADC [BX+SI], DL
0734:5F91 1313                ADC DX, [BP+DI]
0734:5F93 1313                ADC DX, [BP+DI]
0734:5F95 1313                ADC DX, [BP+DI]
0734:5F97 1313                ADC DX, [BP+DI]
0734:5F99 A1A1A1              MOV AX, [A1A1]
0734:5F9C A1A1A1              MOV AX, [A1A1]
0734:5F9F 00A1A4A4            ADD [BX+DI+A4A4], AH
0734:5FA3 A4                  MOVSB
0734:5FA4 A4                  MOVSB
0734:5FA5 A4                  MOVSB
0734:5FA6 A4                  MOVSB
0734:5FA7 00A4A7A7            ADD [SI+A7A7], AH
0734:5FAB A7                  CMPSW
0734:5FAC A7                  CMPSW
0734:5FAD A7                  CMPSW
0734:5FAE A7                  CMPSW
0734:5FAF 00A71000            ADD [BX+0010], AH
0734:5FB3 353535              XOR AX, 3535
0734:5FB6 353535              XOR AX, 3535
0734:5FB9 353575              XOR AX, 7535
0734:5FBC 317531              XOR [DI+31], SI
0734:5FBF 7500                JNE	5FC1
0734:5FC1 7577                JNE	603A
0734:5FC3 7777                JA	603C
0734:5FC5 7777                JA	603E
0734:5FC7 0000                ADD [BX+SI], AL
0734:5FC9 55                  PUSH BP
0734:5FCA 55                  PUSH BP
0734:5FCB 55                  PUSH BP
0734:5FCC 55                  PUSH BP
0734:5FCD 7500                JNE	5FCF
0734:5FCF 7755                JA	6026
0734:5FD1 3C3C                CMP AL, 3C
0734:5FD3 3C3C                CMP AL, 3C
0734:5FD5 3C3C                CMP AL, 3C
0734:5FD7 3C3C                CMP AL, 3C
0734:5FD9 40                  INC AX
0734:5FDA 40                  INC AX
0734:5FDB 52                  PUSH DL
0734:5FDC 52                  PUSH DL
0734:5FDD 40                  INC AX
0734:5FDE 40                  INC AX
0734:5FDF 40                  INC AX
0734:5FE0 40                  INC AX
0734:5FE1 3C00                CMP AL, 00
0734:5FE3 3C3C                CMP AL, 3C
0734:5FE5 55                  PUSH BP
0734:5FE6 4C                  DEC SP
0734:5FE7 55                  PUSH BP
0734:5FE8 4C                  DEC SP
0734:5FE9 50                  PUSH AL
0734:5FEA 52                  PUSH DL
0734:5FEB 0800                OR [BX+SI], AL
0734:5FED 0808                OR [BX+SI], CL
0734:5FEF 0808                OR [BX+SI], CL
0734:5FF1 4A                  DEC DX
0734:5FF2 4A                  DEC DX
0734:5FF3 4A                  DEC DX
0734:5FF4 4A                  DEC DX
0734:5FF5 4A                  DEC DX
0734:5FF6 4A                  DEC DX
0734:5FF7 4A                  DEC DX
0734:5FF8 4A                  DEC DX
0734:5FF9 40                  INC AX
0734:5FFA 40                  INC AX
0734:5FFB 40                  INC AX
0734:5FFC 40                  INC AX
0734:5FFD 0008                ADD [BX+SI], CL
0734:5FFF 0000                ADD [BX+SI], AL
0734:6001 4A                  DEC DX
0734:6002 004A4A              ADD [BP+SI+4A], CL
0734:6005 004E00              ADD [BP+00], CL
0734:6008 4E                  DEC SI
0734:6009 40                  INC AX
0734:600A 40                  INC AX
0734:600B 40                  INC AX
0734:600C 40                  INC AX
0734:600D 085252              OR [BP+SI+52], DL
0734:6010 003E3E3E            ADD [3E3E], BH
0734:6014 3E                  SEG DS (unused)
0734:6015 3E                  SEG DS (unused)
0734:6016 3E                  SEG DS (unused)
0734:6017 3E                  SEG DS (unused)
0734:6018 3E                  SEG DS (unused)
0734:6019 43                  INC BX
0734:601A 43                  INC BX
0734:601B 0000                ADD [BX+SI], AL
0734:601D 43                  INC BX
0734:601E 43                  INC BX
0734:601F 43                  INC BX
0734:6020 43                  INC BX
0734:6021 3E003E3E55          ADD DS: [553E], BH
0734:6026 00554C              ADD [DI+4C], DL
0734:6029 50                  PUSH AL
0734:602A 005050              ADD [BX+SI+50], DL
0734:602D 52                  PUSH DL
0734:602E 52                  PUSH DL
0734:602F 0000                ADD [BX+SI], AL
0734:6031 4C                  DEC SP
0734:6032 4C                  DEC SP
0734:6033 4C                  DEC SP
0734:6034 4C                  DEC SP
0734:6035 4C                  DEC SP
0734:6036 4C                  DEC SP
0734:6037 4C                  DEC SP
0734:6038 4C                  DEC SP
0734:6039 46                  INC SI
0734:603A 46                  INC SI
0734:603B 0008                ADD [BX+SI], CL
0734:603D 46                  INC SI
0734:603E 46                  INC SI
0734:603F 46                  INC SI
0734:6040 46                  INC SI
0734:6041 4C                  DEC SP
0734:6042 004C4C              ADD [SI+4C], CL
0734:6045 4E                  DEC SI
0734:6046 334E33              XOR CX, [BP+33]
0734:6049 0000                ADD [BX+SI], AL
0734:604B 0000                ADD [BX+SI], AL
0734:604D 085252              OR [BP+SI+52], DL
0734:6050 000C                ADD [SI], CL
0734:6052 0C0C                OR AL, 0C
0734:6054 0C0C                OR AL, 0C
0734:6056 0C0C                OR AL, 0C
0734:6058 000C                ADD [SI], CL
0734:605A 0C0C                OR AL, 0C
0734:605C 0C0C                OR AL, 0C
0734:605E 0C0C                OR AL, 0C
0734:6060 0C0C                OR AL, 0C
0734:6062 0C0C                OR AL, 0C
0734:6064 0C0C                OR AL, 0C
0734:6066 0C0C                OR AL, 0C
0734:6068 0C00                OR AL, 00
0734:606A 0404                ADD AL, 04
0734:606C 2222                AND AH, [BP+SI]
0734:606E 0C0C                OR AL, 0C
0734:6070 0CC8                OR AL, C8
0734:6072 CE                  INTO
0734:6073 CB                  RETF
0734:6074 D1D4                RCL SP, 1
0734:6076 D7                  XLAT
0734:6077 0C0C                OR AL, 0C
0734:6079 2222                AND AH, [BP+SI]
0734:607B 2222                AND AH, [BP+SI]
0734:607D 2222                AND AH, [BP+SI]
0734:607F 2222                AND AH, [BP+SI]
0734:6081 2222                AND AH, [BP+SI]
0734:6083 2222                AND AH, [BP+SI]
0734:6085 2222                AND AH, [BP+SI]
0734:6087 2222                AND AH, [BP+SI]
0734:6089 0000                ADD [BX+SI], AL
0734:608B 0C00                OR AL, 00
0734:608D 002D                ADD [DI], CH
0734:608F 2D2D2D              SUB AX, 2D2D
0734:6092 2D2D2D              SUB AX, 2D2D
0734:6095 2D2D2D              SUB AX, 2D2D
0734:6098 2D2D2D              SUB AX, 2D2D
0734:609B 2D2D2D              SUB AX, 2D2D
0734:609E AC                  LODSB
0734:609F AC                  LODSB
0734:60A0 AC                  LODSB
0734:60A1 AC                  LODSB
0734:60A2 AC                  LODSB
0734:60A3 AC                  LODSB
0734:60A4 AC                  LODSB
0734:60A5 AC                  LODSB
0734:60A6 AC                  LODSB
0734:60A7 AC                  LODSB
0734:60A8 AC                  LODSB
0734:60A9 AC                  LODSB
0734:60AA AC                  LODSB
0734:60AB AC                  LODSB
0734:60AC AC                  LODSB
0734:60AD AC                  LODSB
0734:60AE C4C4                LES AX, AH
0734:60B0 0C27                OR AL, 27
0734:60B2 AE                  SCASB
0734:60B3 B2C6                MOV DL, C6
0734:60B5 C60C27              MOV BYTE PTR [SI], 27
0734:60B8 AE                  SCASB
0734:60B9 B222                MOV DL, 22
0734:60BB 16                  PUSH SS
0734:60BC 16                  PUSH SS
0734:60BD 1F                  POP DS
0734:60BE 27                  BAA
0734:60BF 1F                  POP DS
0734:60C0 1F                  POP DS
0734:60C1 8B8F0427            MOV CX, [BX+2704]
0734:60C5 2222                AND AH, [BP+SI]
0734:60C7 8B8F1616            MOV CX, [BX+1616]
0734:60CB 0425                ADD AL, 25
0734:60CD 252525              AND AX, 2525
0734:60D0 252525              AND AX, 2525
0734:60D3 253535              AND AX, 3535
0734:60D6 2A2A                SUB CH, [BP+SI]
0734:60D8 2A2A                SUB CH, [BP+SI]
0734:60DA 3399100C            XOR BX, [BX+DI+0C10]
0734:60DE 0C0C                OR AL, 0C
0734:60E0 0C0C                OR AL, 0C
0734:60E2 0C0C                OR AL, 0C
0734:60E4 0C0C                OR AL, 0C
0734:60E6 0C0C                OR AL, 0C
0734:60E8 0C57                OR AL, 57
0734:60EA 1B00                SSB AX, [BX+SI]
0734:60EC 1B00                SSB AX, [BX+SI]
0734:60EE 1B00                SSB AX, [BX+SI]
0734:60F0 1B00                SSB AX, [BX+SI]
0734:60F2 1B00                SSB AX, [BX+SI]
0734:60F4 1B00                SSB AX, [BX+SI]
0734:60F6 7B07                JNP	60FF
0734:60F8 5C                  POP SP
0734:60F9 07                  POP ES
0734:60FA 3907                CMP [BX], AX
0734:60FC 3907                CMP [BX], AX
0734:60FE 3907                CMP [BX], AX
0734:6100 3907                CMP [BX], AX
0734:6102 3907                CMP [BX], AX
0734:6104 3907                CMP [BX], AX
0734:6106 7B07                JNP	610F
0734:6108 E001                LOOPNE	610B
0734:610A 16                  PUSH SS
0734:610B 00160016            ADD [1600], DL
0734:610F 00160016            ADD [1600], DL
0734:6113 0016007B            ADD [7B00], DL
0734:6117 07                  POP ES
0734:6118 5C                  POP SP
0734:6119 07                  POP ES
0734:611A 1A08                SSB CL, [BX+SI]
0734:611C 1A08                SSB CL, [BX+SI]
0734:611E 1A08                SSB CL, [BX+SI]
0734:6120 1A08                SSB CL, [BX+SI]
0734:6122 1A08                SSB CL, [BX+SI]
0734:6124 1A08                SSB CL, [BX+SI]
0734:6126 7B07                JNP	612F
0734:6128 5C                  POP SP
0734:6129 07                  POP ES
0734:612A 2000                AND [BX+SI], AL
0734:612C 2000                AND [BX+SI], AL
0734:612E 2000                AND [BX+SI], AL
0734:6130 2000                AND [BX+SI], AL
0734:6132 2000                AND [BX+SI], AL
0734:6134 2000                AND [BX+SI], AL
0734:6136 0100                ADD [BX+SI], AX
0734:6138 AA                  STOSB
0734:6139 014D09              ADD [DI+09], CX
0734:613C 4D                  DEC BP
0734:613D 094D09              OR [DI+09], CX
0734:6140 4D                  DEC BP
0734:6141 094D09              OR [DI+09], CX
0734:6144 4D                  DEC BP
0734:6145 0901                OR [BX+DI], AX
0734:6147 01AF0192            ADD [BX+9201], BP
0734:614B 09920992            OR [BP+SI+9209], DX
0734:614F 09920992            OR [BP+SI+9209], DX
0734:6153 09920901            OR [BP+SI+0109], DX
0734:6157 0202                ADD AL, [BP+SI]
0734:6159 006B01              ADD [BP+DI+01], CH
0734:615C 6B                  DB 6B
0734:615D 016B01              ADD [BP+DI+01], BP
0734:6160 6B                  DB 6B
0734:6161 016B01              ADD [BP+DI+01], BP
0734:6164 6B                  DB 6B
0734:6165 0101                ADD [BX+DI], AX
0734:6167 0311                ADD DX, [BX+DI]
0734:6169 003B                ADD [BP+DI], BH
0734:616B 053B05              ADD AX, 053B
0734:616E 3B05                CMP AX, [DI]
0734:6170 3B05                CMP AX, [DI]
0734:6172 3B05                CMP AX, [DI]
0734:6174 3B05                CMP AX, [DI]
0734:6176 3B05                CMP AX, [DI]
0734:6178 3B05                CMP AX, [DI]
0734:617A BC01BC              MOV SP, BC01
0734:617D 01BC01BC            ADD [SI+BC01], DI
0734:6181 01BC01BC            ADD [SI+BC01], DI
0734:6185 01BC01BC            ADD [SI+BC01], DI
0734:6189 017B07              ADD [BP+DI+07], DI
0734:618C 7B07                JNP	6195
0734:618E 7B07                JNP	6197
0734:6190 7B07                JNP	6199
0734:6192 7B07                JNP	619B
0734:6194 7B07                JNP	619D
0734:6196 7B07                JNP	619F
0734:6198 7B07                JNP	61A1
0734:619A 5C                  POP SP
0734:619B 07                  POP ES
0734:619C 5C                  POP SP
0734:619D 07                  POP ES
0734:619E 5C                  POP SP
0734:619F 07                  POP ES
0734:61A0 5C                  POP SP
0734:61A1 07                  POP ES
0734:61A2 5C                  POP SP
0734:61A3 07                  POP ES
0734:61A4 5C                  POP SP
0734:61A5 07                  POP ES
0734:61A6 5C                  POP SP
0734:61A7 07                  POP ES
0734:61A8 5C                  POP SP
0734:61A9 07                  POP ES
0734:61AA 81176117            ADC WORD PTR [BX], 1761
0734:61AE 2B10                SUB DX, [BX+SI]
0734:61B0 252001              AND AX, 0120
0734:61B3 3401                XOR AL, 01
0734:61B5 351030              XOR AX, 3010
0734:61B8 2030                AND [BX+SI], DH
0734:61BA 7B17                JNP	61D3
0734:61BC 3115                XOR [DI], DX
0734:61BE 7B17                JNP	61D7
0734:61C0 3115                XOR [DI], DX
0734:61C2 40                  INC AX
0734:61C3 154615              ADC AX, 1546
0734:61C6 47                  INC DI
0734:61C7 17                  POP SS
0734:61C8 4E                  DEC SI
0734:61C9 17                  POP SS
0734:61CA FB                  STI
0734:61CB 05E705              ADD AX, 05E7
0734:61CE 81057C05            ADD WORD PTR [DI], 057C
0734:61D2 1106F605            ADC [05F6], AX
0734:61D6 8505                TEST [DI], AX
0734:61D8 7805                JS	61DF
0734:61DA 0D06F1              OR AX, F106
0734:61DD 050306              ADD AX, 0603
0734:61E0 0806A805            OR [05A8], AL
0734:61E4 A305AC              MOV [AC05], AX
0734:61E7 059F05              ADD AX, 059F
0734:61EA 0001                ADD [BX+DI], AL
0734:61EC 0001                ADD [BX+DI], AL
0734:61EE 0000                ADD [BX+SI], AL
0734:61F0 0801                OR [BX+DI], AL
0734:61F2 52                  PUSH DL
0734:61F3 095209              OR [BP+SI+09], DX
0734:61F6 7F09                JG	6201
0734:61F8 7F09                JG	6203
0734:61FA FD                  STD
0734:61FB 06                  PUSH ES
0734:61FC FD                  STD
0734:61FD 06                  PUSH ES
0734:61FE FD                  STD
0734:61FF 06                  PUSH ES
0734:6200 FD                  STD
0734:6201 06                  PUSH ES
0734:6202 FD                  STD
0734:6203 06                  PUSH ES
0734:6204 3E                  SEG DS (unused)
0734:6205 06                  PUSH ES
0734:6206 FD                  STD
0734:6207 06                  PUSH ES
0734:6208 F8                  CLC
0734:6209 022F                ADD CH, [BX]
0734:620B 07                  POP ES
0734:620C 7F09                JG	6217
0734:620E 7F09                JG	6219
0734:6210 7F09                JG	621B
0734:6212 7F09                JG	621D
0734:6214 7F09                JG	621F
0734:6216 7F09                JG	6221
0734:6218 7F09                JG	6223
0734:621A 5C                  POP SP
0734:621B 00A00156            ADD [BX+SI+5601], AH
0734:621F 006409              ADD [SI+09], AH
0734:6222 90                  XCHG AX, AX
0734:6223 07                  POP ES
0734:6224 6E                  DB 6E
0734:6225 07                  POP ES
0734:6226 E307                JCXZ	622F
0734:6228 1A06FD06            SSB AL, [06FD]
0734:622C FD                  STD
0734:622D 06                  PUSH ES
0734:622E FD                  STD
0734:622F 06                  PUSH ES
0734:6230 FD                  STD
0734:6231 06                  PUSH ES
0734:6232 0207                ADD AL, [BX]
0734:6234 0907                OR [BX], AX
0734:6236 7001                JO	6239
0734:6238 7701                JA	623B
0734:623A 52                  PUSH DL
0734:623B 095209              OR [BP+SI+09], DX
0734:623E 3309                XOR CX, [BX+DI]
0734:6240 3A09                CMP CL, [BX+DI]
0734:6242 68                  DB 68
0734:6243 06                  PUSH ES
0734:6244 6F                  DB 6F
0734:6245 06                  PUSH ES
0734:6246 1F                  POP DS
0734:6247 082608FD            OR [FD08], AH
0734:624B 06                  PUSH ES
0734:624C FD                  STD
0734:624D 06                  PUSH ES
0734:624E FD                  STD
0734:624F 06                  PUSH ES
0734:6250 FD                  STD
0734:6251 06                  PUSH ES
0734:6252 FD                  STD
0734:6253 06                  PUSH ES
0734:6254 FD                  STD
0734:6255 06                  PUSH ES
0734:6256 FD                  STD
0734:6257 06                  PUSH ES
0734:6258 FD                  STD
0734:6259 06                  PUSH ES
0734:625A FD                  STD
0734:625B 06                  PUSH ES
0734:625C FD                  STD
0734:625D 06                  PUSH ES
0734:625E FD                  STD
0734:625F 06                  PUSH ES
0734:6260 FD                  STD
0734:6261 06                  PUSH ES
0734:6262 FD                  STD
0734:6263 06                  PUSH ES
0734:6264 FD                  STD
0734:6265 06                  PUSH ES
0734:6266 FD                  STD
0734:6267 06                  PUSH ES
0734:6268 FD                  STD
0734:6269 06                  PUSH ES
0734:626A 2001                AND [BX+DI], AL
0734:626C 2001                AND [BX+DI], AL
0734:626E CC                  INT 3
0734:626F 07                  POP ES
0734:6270 CC                  INT 3
0734:6271 07                  POP ES
0734:6272 2F                  DAS
0734:6273 06                  PUSH ES
0734:6274 250600              AND AX, 0006
0734:6277 0300                ADD AX, [BX+SI]
0734:6279 03CA                ADD CX, DX
0734:627B 114316              ADC [BP+DI+16], AX
0734:627E D107                ROL WORD PTR [BX], 1
0734:6280 D107                ROL WORD PTR [BX], 1
0734:6282 52                  PUSH DL
0734:6283 055205              ADD AX, 0552
0734:6286 57                  PUSH DI
0734:6287 056B05              ADD AX, 056B
0734:628A 1001                ADC [BX+DI], AL
0734:628C 1001                ADC [BX+DI], AL
0734:628E 1801                SSB [BX+DI], AL
0734:6290 1801                SSB [BX+DI], AL
0734:6292 0C00                OR AL, 00
0734:6294 07                  POP ES
0734:6295 0000                ADD [BX+SI], AL
0734:6297 008B0948            ADD [BP+DI+4809], CL
0734:629B 015801              ADD [BX+SI+01], BX
0734:629E 68                  DB 68
0734:629F 017801              ADD [BX+SI+01], DI
0734:62A2 8801                MOV [BX+DI], AL
0734:62A4 98                  CBW
0734:62A5 01A801B8            ADD [BX+SI+B801], BP
0734:62A9 01E1                ADD CX, SP
0734:62AB 06                  PUSH ES
0734:62AC AF                  SCASW
0734:62AD 06                  PUSH ES
0734:62AE 83068E0537          ADD WORD PTR [058E], +37
0734:62B3 053705              ADD AX, 0537
0734:62B6 42                  INC DX
0734:62B7 07                  POP ES
0734:62B8 42                  INC DX
0734:62B9 07                  POP ES
0734:62BA 56                  PUSH DH
0734:62BB 0015                ADD [DI], DL
0734:62BD 06                  PUSH ES
0734:62BE 150615              ADC AX, 1506
0734:62C1 06                  PUSH ES
0734:62C2 37                  AAA
0734:62C3 053705              ADD AX, 0537
0734:62C6 42                  INC DX
0734:62C7 07                  POP ES
0734:62C8 42                  INC DX
0734:62C9 07                  POP ES
0734:62CA 0800                OR [BX+SI], AL
0734:62CC 0000                ADD [BX+SI], AL
0734:62CE 0200                ADD AL, [BX+SI]
0734:62D0 06                  PUSH ES
0734:62D1 0026057C            ADD [7C05], AH
0734:62D5 0028                ADD [BX+SI], CH
0734:62D7 0128                ADD [BX+SI], BP
0734:62D9 016700              ADD [BX+00], SP
0734:62DC 2409                AND AL, 09
0734:62DE 7100                JNO	62E0
0734:62E0 2E096C00            OR CS: [SI+00], BP
0734:62E4 2909                SUB [BX+DI], CX
0734:62E6 E002                LOOPNE	62EA
0734:62E8 3001                XOR [BX+DI], AL
0734:62EA 1B00                SSB AX, [BX+SI]
0734:62EC 3907                CMP [BX], AX
0734:62EE 16                  PUSH SS
0734:62EF 001A                ADD [BP+SI], BL
0734:62F1 0820                OR [BX+SI], AH
0734:62F3 004D09              ADD [DI+09], CL
0734:62F6 92                  XCHG AX, DX
0734:62F7 096B01              OR [BP+DI+01], BP
0734:62FA 1B00                SSB AX, [BX+SI]
0734:62FC 3907                CMP [BX], AX
0734:62FE 16                  PUSH SS
0734:62FF 001A                ADD [BP+SI], BL
0734:6301 0820                OR [BX+SI], AH
0734:6303 004D09              ADD [DI+09], CL
0734:6306 92                  XCHG AX, DX
0734:6307 096B01              OR [BP+DI+01], BP
0734:630A A907AE              TEST AX, AE07
0734:630D 07                  POP ES
0734:630E 9F                  LAHF
0734:630F 07                  POP ES
0734:6310 A4                  MOVSB
0734:6311 07                  POP ES
0734:6312 1008                ADC [BX+SI], CL
0734:6314 150800              ADC AX, 0008
0734:6317 00EE                ADD DH, CH
0734:6319 07                  POP ES
0734:631A A907AE              TEST AX, AE07
0734:631D 07                  POP ES
0734:631E 9F                  LAHF
0734:631F 07                  POP ES
0734:6320 A4                  MOVSB
0734:6321 07                  POP ES
0734:6322 1008                ADC [BX+SI], CL
0734:6324 150800              ADC AX, 0008
0734:6327 00EE                ADD DH, CH
0734:6329 07                  POP ES
0734:632A A917AE              TEST AX, AE17
0734:632D 17                  POP SS
0734:632E 9F                  LAHF
0734:632F 17                  POP SS
0734:6330 A4                  MOVSB
0734:6331 17                  POP SS
0734:6332 1018                ADC [BX+SI], BL
0734:6334 151800              ADC AX, 0018
0734:6337 00EE                ADD DH, CH
0734:6339 17                  POP SS
0734:633A 52                  PUSH DL
0734:633B 0900                OR [BX+SI], AX
0734:633D 0034                ADD [SI], DH
0734:633F 07                  POP ES
0734:6340 2A07                SUB AL, [BX]
0734:6342 250731              AND AX, 3107
0734:6345 05C101              ADD AX, 01C1
0734:6348 2B05                SUB AX, [DI]
0734:634A 3B05                CMP AX, [DI]
0734:634C BC0156              MOV SP, 5601
0734:634F 005600              ADD [BP+00], DL
0734:6352 150615              ADC AX, 1506
0734:6355 06                  PUSH ES
0734:6356 7B07                JNP	635F
0734:6358 0000                ADD [BX+SI], AL
0734:635A 1829                SSB [BX+DI], CH
0734:635C 48                  DEC AX
0734:635D 295626              SUB [BP+26], DX
0734:6360 F8                  CLC
0734:6361 26                  SEG ES (unused)
0734:6362 58                  POP AX
0734:6363 295E29              SUB [BP+29], BX
0734:6366 0000                ADD [BX+SI], AL
0734:6368 0000                ADD [BX+SI], AL
0734:636A 0029                ADD [BX+DI], CH
0734:636C 06                  PUSH ES
0734:636D 294A26              SUB [BP+SI+26], CX
0734:6370 50                  PUSH AL
0734:6371 26                  SEG ES (unused)
0734:6372 1E                  PUSH DS
0734:6373 2900                SUB [BX+SI], AX
0734:6375 005C26              ADD [SI+26], BL
0734:6378 63                  DB 63
0734:6379 45                  INC BP
0734:637A DE01                FIADD WORD PTR [BX+DI]
0734:637C AB                  STOSW
0734:637D 038F02A4            ADD CX, [BX+A402]
0734:6381 02A004B4            ADD AH, [BX+SI+B404]
0734:6385 04D1                ADD AL, D1
0734:6387 02E5                ADD AH, CH
0734:6389 02DE                ADD BL, DH
0734:638B 01AB038F            ADD [BP+DI+8F03], BP
0734:638F 02A402A0            ADD AH, [SI+A002]
0734:6393 04B4                ADD AL, B4
0734:6395 04D1                ADD AL, D1
0734:6397 02E5                ADD AH, CH
0734:6399 024A03              ADD CL, [BP+SI+03]
0734:639C 0000                ADD [BX+SI], AL
0734:639E 54                  PUSH AH
0734:639F 0459                ADD AL, 59
0734:63A1 0491                ADD AL, 91
0734:63A3 03890376            ADD CX, [BX+DI+7603]
0734:63A7 0466                ADD AL, 66
0734:63A9 044A                ADD AL, 4A
0734:63AB 0307                ADD AX, [BX]
0734:63AD 050803              ADD AX, 0308
0734:63B0 0000                ADD [BX+SI], AL
0734:63B2 1003                ADC [BP+DI], AL
0734:63B4 C8                  DB C8
0734:63B5 01D0                ADD AX, DX
0734:63B7 01D8                ADD AX, BX
0734:63B9 01EB                ADD BX, BP
0734:63BB 01B80310            ADD [BX+SI+1003], DI
0734:63BF 0317                ADD DX, [BX]
0734:63C1 03AD04C3            ADD BP, [DI+C304]
0734:63C5 04DE                ADD AL, DE
0734:63C7 02F4                ADD DH, AH
0734:63C9 0225                ADD AH, [DI]
0734:63CB 62                  DB 62
0734:63CC 26                  SEG ES (unused)
0734:63CD 62                  DB 62
0734:63CE 2D627F              SUB AX, 7F62
0734:63D1 62                  DB 62
0734:63D2 0000                ADD [BX+SI], AL
0734:63D4 1803                SSB [BP+DI], AL
0734:63D6 0000                ADD [BX+SI], AL
0734:63D8 0000                ADD [BX+SI], AL
0734:63DA 1F                  POP DS
0734:63DB 0300                ADD AX, [BX+SI]
0734:63DD 003D                ADD [DI], BH
0734:63DF 034303              ADD AX, [BP+DI+03]
0734:63E2 0000                ADD [BX+SI], AL
0734:63E4 4A                  DEC DX
0734:63E5 0300                ADD AX, [BX+SI]
0734:63E7 005904              ADD [BX+DI+04], BL
0734:63EA 51                  PUSH CX
0734:63EB 62                  DB 62
0734:63EC 64                  SEG FS (unused)
0734:63ED 62                  DB 62
0734:63EE 5A                  POP DX
0734:63EF 62                  DB 62
0734:63F0 6D                  DB 6D
0734:63F1 62                  DB 62
0734:63F2 2003                AND [BP+DI], AL
0734:63F4 D86495              FSUB FLOAT PTR [SI-95]
0734:63F7 62                  DB 62
0734:63F8 0000                ADD [BX+SI], AL
0734:63FA DE01                FIADD WORD PTR [BX+DI]
0734:63FC AB                  STOSW
0734:63FD 038F02A4            ADD CX, [BX+A402]
0734:6401 02A004B4            ADD AH, [BX+SI+B404]
0734:6405 04D1                ADD AL, D1
0734:6407 02E5                ADD AH, CH
0734:6409 02DE                ADD BL, DH
0734:640B 01AB0300            ADD [BP+DI+0003], BP
0734:640F 0000                ADD [BX+SI], AL
0734:6411 00B404A0            ADD [SI+A004], DH
0734:6415 04E5                ADD AL, E5
0734:6417 02D1                ADD DL, CL
0734:6419 024A03              ADD CL, [BP+SI+03]
0734:641C 0000                ADD [BX+SI], AL
0734:641E 54                  PUSH AH
0734:641F 0459                ADD AL, 59
0734:6421 04EC                ADD AL, EC
0734:6423 0300                ADD AX, [BX+SI]
0734:6425 000D                ADD [DI], CL
0734:6427 0498                ADD AL, 98
0734:6429 0409                ADD AL, 09
0734:642B 0300                ADD AX, [BX+SI]
0734:642D 005404              ADD [SI+04], DL
0734:6430 59                  POP CX
0734:6431 04D1                ADD AL, D1
0734:6433 34E9                XOR AL, E9
0734:6435 3400                XOR AL, 00
0734:6437 0000                ADD [BX+SI], AL
0734:6439 00EB                ADD BL, CH
0734:643B 01B80310            ADD [BX+SI+1003], DI
0734:643F 0317                ADD DX, [BX]
0734:6441 03AD04C3            ADD BP, [DI+C304]
0734:6445 04DE                ADD AL, DE
0734:6447 02F4                ADD DH, AH
0734:6449 02E4                ADD AH, AH
0734:644B 01B10300            ADD [BX+DI+0003], SI
0734:644F 0028                ADD [BX+SI], CH
0734:6451 03BB04A6            ADD DI, [BP+DI+A604]
0734:6455 04EC                ADD AL, EC
0734:6457 02D7                ADD DL, BH
0734:6459 021F                ADD BL, [BX]
0734:645B 0300                ADD AX, [BX+SI]
0734:645D 003D                ADD [DI], BH
0734:645F 034303              ADD AX, [BP+DI+03]
0734:6462 F2                  REPNE (unused)
0734:6463 011F                ADD [BX], BX
0734:6465 03F8                ADD DI, AX
0734:6467 014303              ADD [BP+DI+03], AX
0734:646A 0000                ADD [BX+SI], AL
0734:646C 0000                ADD [BX+SI], AL
0734:646E 0000                ADD [BX+SI], AL
0734:6470 0000                ADD [BX+SI], AL
0734:6472 3003                XOR [BP+DI], AL
0734:6474 E064                LOOPNE	64DA
0734:6476 9C                  PUSHF
0734:6477 62                  DB 62
0734:6478 0000                ADD [BX+SI], AL
0734:647A 4F                  DEC DI
0734:647B 035503              ADD DX, [DI+03]
0734:647E 5D                  POP BP
0734:647F 036503              ADD SP, [DI+03]
0734:6482 6C                  DB 6C
0734:6483 037403              ADD SI, [SI+03]
0734:6486 7C03                JL	648B
0734:6488 0000                ADD [BX+SI], AL
0734:648A D101                ROL WORD PTR [BX+DI], 1
0734:648C 16                  PUSH SS
0734:648D 05DC03              ADD AX, 03DC
0734:6490 C503                LDS AX, [BP+DI]
0734:6492 0D05D4              OR AX, D405
0734:6495 33B90225            XOR DI, [BX+DI+2502]
0734:6499 03CD                ADD CX, BP
0734:649B 031D                ADD BX, [DI]
0734:649D 054D04              ADD AX, 044D
0734:64A0 44                  INC SP
0734:64A1 34E3                XOR AL, E3
0734:64A3 0325                ADD SP, [DI]
0734:64A5 043E                ADD AL, 3E
0734:64A7 34B3                XOR AL, B3
0734:64A9 3200                XOR AL, [BX+SI]
0734:64AB 0038                ADD [BX+SI], BH
0734:64AD 014001              ADD [BX+SI+01], AX
0734:64B0 2026F326            AND [26F3], AH
0734:64B4 7620                JBE	64D6
0734:64B6 5D                  POP BP
0734:64B7 45                  INC BP
0734:64B8 6A                  DB 6A
0734:64B9 49                  DEC CX
0734:64BA FD                  STD
0734:64BB 26                  SEG ES (unused)
0734:64BC FD                  STD
0734:64BD 26                  SEG ES (unused)
0734:64BE FD                  STD
0734:64BF 26                  SEG ES (unused)
0734:64C0 FD                  STD
0734:64C1 26                  SEG ES (unused)
0734:64C2 FD                  STD
0734:64C3 26                  SEG ES (unused)
0734:64C4 FD                  STD
0734:64C5 26                  SEG ES (unused)
0734:64C6 7259                JB	6521
0734:64C8 B357                MOV BL, 57
0734:64CA 3F                  AAS
0734:64CB 61                  DB 61
0734:64CC 1F                  POP DS
0734:64CD 61                  DB 61
0734:64CE 90                  XCHG AX, AX
0734:64CF 60                  DB 60
0734:64D0 886064              MOV [BX+SI+64], AH
0734:64D3 61                  DB 61
0734:64D4 37                  AAA
0734:64D5 61                  DB 61
0734:64D6 97                  XCHG AX, DI
0734:64D7 60                  DB 60
0734:64D8 81605D612F          AND WORD PTR [BX+SI+5D], 2F61
0734:64DD 61                  DB 61
0734:64DE 4D                  DEC BP
0734:64DF 61                  DB 61
0734:64E0 55                  PUSH BP
0734:64E1 61                  DB 61
0734:64E2 BC60B4              MOV SP, B460
0734:64E5 60                  DB 60
0734:64E6 C3                  RET
0734:64E7 60                  DB 60
0734:64E8 AD                  LODSW
0734:64E9 60                  DB 60
0734:64EA 0000                ADD [BX+SI], AL
0734:64EC 0000                ADD [BX+SI], AL
0734:64EE 0000                ADD [BX+SI], AL
0734:64F0 0000                ADD [BX+SI], AL
0734:64F2 0000                ADD [BX+SI], AL
0734:64F4 FB                  STI
0734:64F5 35E735              XOR AX, 35E7
0734:64F8 81357C35            XOR [DI], 357C
0734:64FC 1136F635            ADC [35F6], SI
0734:6500 8535                TEST [DI], SI
0734:6502 7835                JS	6539
0734:6504 0D36F1              OR AX, F136
0734:6507 350336              XOR AX, 3603
0734:650A 0836A835            OR [35A8], DH
0734:650E A335AC              MOV [AC35], AX
0734:6511 359F35              XOR AX, 359F
0734:6514 DA38                FIDIVR FLOAT PTR [BX+SI]
0734:6516 BE3841              MOV SI, 4138
0734:6519 383A                CMP [BP+SI], BH
0734:651B 38FA                CMP DL, BH
0734:651D 38D3                CMP BL, DL
0734:651F 384738              CMP [BX+38], AL
0734:6522 3438                XOR AL, 38
0734:6524 F4                  HLT
0734:6525 38CC                CMP AH, CL
0734:6527 38E6                CMP DH, AH
0734:6529 38ED                CMP CH, CH
0734:652B 386738              CMP [BX+38], AH
0734:652E 60                  DB 60
0734:652F 386D38              CMP [DI+38], CH
0734:6532 5A                  POP DX
0734:6533 387B37              CMP [BP+DI+37], BH
0734:6536 5C                  POP SP
0734:6537 37                  AAA
0734:6538 99                  CWD
0734:6539 51                  PUSH CX
0734:653A 43                  INC BX
0734:653B 300C                XOR [SI], CL
0734:653D 390C                CMP [SI], CX
0734:653F 397B37              CMP [BP+DI+37], DI
0734:6542 5C                  POP SP
0734:6543 37                  AAA
0734:6544 DE5751              FICOM WORD PTR [BX+51]
0734:6547 3012                XOR [BP+SI], DL
0734:6549 3912                CMP [BP+SI], DX
0734:654B 3931                CMP [BX+DI], SI
0734:654D 358541              XOR AX, 4185
0734:6550 85412A              TEST [BX+DI+2A], AX
0734:6553 26                  SEG ES (unused)
0734:6554 4C                  DEC SP
0734:6555 3034                XOR [SI], DH
0734:6557 3639361E37          CMP ES: [371E], SI
0734:655C 1E                  PUSH DS
0734:655D 37                  AAA
0734:655E E80247              CALL AC60
0734:6561 3032                XOR [BP+SI], DH
0734:6563 3037                XOR [BX], DH
0734:6565 3017                XOR [BX], DL
0734:6567 37                  AAA
0734:6568 17                  POP SS
0734:6569 37                  AAA
0734:656A 7949                JNS	65B5
0734:656C 7949                JNS	65B7
0734:656E F0                  LOCK (unused)
0734:656F 023C                ADD BH, [SI]
0734:6571 40                  INC AX
0734:6572 3C40                CMP AL, 40
0734:6574 3C40                CMP AL, 40
0734:6576 3C40                CMP AL, 40
0734:6578 3C40                CMP AL, 40
0734:657A 3C40                CMP AL, 40
0734:657C 3C40                CMP AL, 40
0734:657E 3C40                CMP AL, 40
0734:6580 3B05                CMP AX, [DI]
0734:6582 BC0143              MOV SP, 4301
0734:6585 305130              XOR [BX+DI+30], DL
0734:6588 4C                  DEC SP
0734:6589 304730              XOR [BX+30], AL
0734:658C 8E515C              MOV CS, WORD PTR [BX+DI+5C]
0734:658F 07                  POP ES
0734:6590 FD                  STD
0734:6591 06                  PUSH ES
0734:6592 BF03FF              MOV DI, FF03
0734:6595 01D8                ADD AX, BX
0734:6597 01CB                ADD BX, CX
0734:6599 0401                ADD AL, 01
0734:659B 05F134              ADD AX, 34F1
0734:659E 0203                ADD AL, [BP+DI]
0734:65A0 C9                  DB C9
0734:65A1 020C                ADD CL, [SI]
0734:65A3 0235                ADD DH, [DI]
0734:65A5 0335                ADD SI, [DI]
0734:65A7 24AB                AND AL, AB
0734:65A9 02980401            ADD BL, [BX+SI+0104]
0734:65AD 0203                ADD AL, [BP+DI]
0734:65AF 0400                ADD AL, 00
0734:65B1 0005                ADD [DI], AL
0734:65B3 00060700            ADD [0007], AL
0734:65B7 0000                ADD [BX+SI], AL
0734:65B9 0000                ADD [BX+SI], AL
0734:65BB 0000                ADD [BX+SI], AL
0734:65BD 0000                ADD [BX+SI], AL
0734:65BF 0000                ADD [BX+SI], AL
0734:65C1 0000                ADD [BX+SI], AL
0734:65C3 0000                ADD [BX+SI], AL
0734:65C5 0000                ADD [BX+SI], AL
0734:65C7 0000                ADD [BX+SI], AL
0734:65C9 0000                ADD [BX+SI], AL
0734:65CB 0008                ADD [BX+SI], CL
0734:65CD 090A                OR [BP+SI], CX
0734:65CF 0B0C                OR CX, [SI]
0734:65D1 000D                ADD [DI], CL
0734:65D3 0000                ADD [BX+SI], AL
0734:65D5 0000                ADD [BX+SI], AL
0734:65D7 0000                ADD [BX+SI], AL
0734:65D9 0000                ADD [BX+SI], AL
0734:65DB 000E000F            ADD [0F00], CL
0734:65DF 0000                ADD [BX+SI], AL
0734:65E1 0000                ADD [BX+SI], AL
0734:65E3 0000                ADD [BX+SI], AL
0734:65E5 0000                ADD [BX+SI], AL
0734:65E7 0000                ADD [BX+SI], AL
0734:65E9 0000                ADD [BX+SI], AL
0734:65EB 0010                ADD [BX+SI], DL
0734:65ED 1112                ADC [BP+SI], DX
0734:65EF 1314                ADC DX, [SI]
0734:65F1 151617              ADC AX, 1716
0734:65F4 1819                SSB [BX+DI], BL
0734:65F6 1A1B                SSB BL, [BP+DI]
0734:65F8 1C1D                SSB AL, 1D
0734:65FA 1E                  PUSH DS
0734:65FB 1F                  POP DS
0734:65FC 0000                ADD [BX+SI], AL
0734:65FE 0000                ADD [BX+SI], AL
0734:6600 0000                ADD [BX+SI], AL
0734:6602 0000                ADD [BX+SI], AL
0734:6604 0000                ADD [BX+SI], AL
0734:6606 0000                ADD [BX+SI], AL
0734:6608 0000                ADD [BX+SI], AL
0734:660A 0000                ADD [BX+SI], AL
0734:660C 0000                ADD [BX+SI], AL
0734:660E 0000                ADD [BX+SI], AL
0734:6610 0000                ADD [BX+SI], AL
0734:6612 0000                ADD [BX+SI], AL
0734:6614 0000                ADD [BX+SI], AL
0734:6616 0000                ADD [BX+SI], AL
0734:6618 0000                ADD [BX+SI], AL
0734:661A 2021                AND [BX+DI], AH
0734:661C 0000                ADD [BX+SI], AL
0734:661E 0000                ADD [BX+SI], AL
0734:6620 0000                ADD [BX+SI], AL
0734:6622 0022                ADD [BP+SI], AH
0734:6624 0000                ADD [BX+SI], AL
0734:6626 0000                ADD [BX+SI], AL
0734:6628 0000                ADD [BX+SI], AL
0734:662A 2324                AND SP, [SI]
0734:662C 252627              AND AX, 2726
0734:662F 2829                SUB [BX+DI], CH
0734:6631 2A2B                SUB CH, [BP+DI]
0734:6633 2C2D                SUB AL, 2D
0734:6635 2E                  SEG CS (unused)
0734:6636 2F                  DAS
0734:6637 3031                XOR [BX+DI], DH
0734:6639 3233                XOR DH, [BP+DI]
0734:663B 3435                XOR AL, 35
0734:663D 26                  SEG ES (unused)
0734:663E 37                  AAA
0734:663F 3839                CMP [BX+DI], BH
0734:6641 3A3B                CMP BH, [BP+DI]
0734:6643 3C3D                CMP AL, 3D
0734:6645 3E                  SEG DS (unused)
0734:6646 3F                  AAS
0734:6647 40                  INC AX
0734:6648 41                  INC CX
0734:6649 42                  INC DX
0734:664A 43                  INC BX
0734:664B 44                  INC SP
0734:664C 45                  INC BP
0734:664D 46                  INC SI
0734:664E 47                  INC DI
0734:664F 48                  DEC AX
0734:6650 49                  DEC CX
0734:6651 4A                  DEC DX
0734:6652 0000                ADD [BX+SI], AL
0734:6654 4B                  DEC BX
0734:6655 4C                  DEC SP
0734:6656 4D                  DEC BP
0734:6657 4E                  DEC SI
0734:6658 4F                  DEC DI
0734:6659 50                  PUSH AL
0734:665A 005152              ADD [BX+DI+52], DL
0734:665D 53                  PUSH BX
0734:665E 54                  PUSH AH
0734:665F 55                  PUSH BP
0734:6660 56                  PUSH DH
0734:6661 57                  PUSH DI
0734:6662 58                  POP AX
0734:6663 59                  POP CX
0734:6664 0000                ADD [BX+SI], AL
0734:6666 5A                  POP DX
0734:6667 5B                  POP BX
0734:6668 5C                  POP SP
0734:6669 5D                  POP BP
0734:666A 5E                  POP SI
0734:666B 5F                  POP DI
0734:666C 60                  DB 60
0734:666D 61                  DB 61
0734:666E 0000                ADD [BX+SI], AL
0734:6670 0000                ADD [BX+SI], AL
0734:6672 006263              ADD [BP+SI+63], AH
0734:6675 64                  SEG FS (unused)
0734:6676 65                  DB 65
0734:6677 66                  DB 66
0734:6678 67                  DB 67
0734:6679 68                  DB 68
0734:667A 69                  DB 69
0734:667B 6A                  DB 6A
0734:667C 0000                ADD [BX+SI], AL
0734:667E 0000                ADD [BX+SI], AL
0734:6680 0000                ADD [BX+SI], AL
0734:6682 0000                ADD [BX+SI], AL
0734:6684 0000                ADD [BX+SI], AL
0734:6686 0000                ADD [BX+SI], AL
0734:6688 0000                ADD [BX+SI], AL
0734:668A 0000                ADD [BX+SI], AL
0734:668C 0000                ADD [BX+SI], AL
0734:668E 0000                ADD [BX+SI], AL
0734:6690 0000                ADD [BX+SI], AL
0734:6692 0000                ADD [BX+SI], AL
0734:6694 0000                ADD [BX+SI], AL
0734:6696 0000                ADD [BX+SI], AL
0734:6698 0000                ADD [BX+SI], AL
0734:669A 0000                ADD [BX+SI], AL
0734:669C 0000                ADD [BX+SI], AL
0734:669E 0000                ADD [BX+SI], AL
0734:66A0 0000                ADD [BX+SI], AL
0734:66A2 0000                ADD [BX+SI], AL
0734:66A4 0000                ADD [BX+SI], AL
0734:66A6 0000                ADD [BX+SI], AL
0734:66A8 0000                ADD [BX+SI], AL
0734:66AA 0000                ADD [BX+SI], AL
0734:66AC 6B                  DB 6B
0734:66AD 6C                  DB 6C
0734:66AE 0000                ADD [BX+SI], AL
0734:66B0 0000                ADD [BX+SI], AL
0734:66B2 0000                ADD [BX+SI], AL
0734:66B4 0000                ADD [BX+SI], AL
0734:66B6 0000                ADD [BX+SI], AL
0734:66B8 6D                  DB 6D
0734:66B9 6E                  DB 6E
0734:66BA 6F                  DB 6F
0734:66BB 7000                JO	66BD
0734:66BD 7100                JNO	66BF
0734:66BF 0000                ADD [BX+SI], AL
0734:66C1 0000                ADD [BX+SI], AL
0734:66C3 007200              ADD [BP+SI+00], DH
0734:66C6 0000                ADD [BX+SI], AL
0734:66C8 0000                ADD [BX+SI], AL
0734:66CA 0000                ADD [BX+SI], AL
0734:66CC 7300                JNB	66CE
0734:66CE 0000                ADD [BX+SI], AL
0734:66D0 0000                ADD [BX+SI], AL
0734:66D2 0000                ADD [BX+SI], AL
0734:66D4 7400                JE	66D6
0734:66D6 0000                ADD [BX+SI], AL
0734:66D8 0000                ADD [BX+SI], AL
0734:66DA 0000                ADD [BX+SI], AL
0734:66DC 7576                JNE	6754
0734:66DE 0000                ADD [BX+SI], AL
0734:66E0 7778                JA	675A
0734:66E2 0000                ADD [BX+SI], AL
0734:66E4 007900              ADD [BX+DI+00], BH
0734:66E7 0000                ADD [BX+SI], AL
0734:66E9 0000                ADD [BX+SI], AL
0734:66EB 007A7B              ADD [BP+SI+7B], BH
0734:66EE 7C7D                JL	676D
0734:66F0 7E00                JLE	66F2
0734:66F2 0000                ADD [BX+SI], AL
0734:66F4 007F00              ADD [BX+00], BH
0734:66F7 0000                ADD [BX+SI], AL
0734:66F9 0000                ADD [BX+SI], AL
0734:66FB 00800000            ADD [BX+SI+0000], AL
0734:66FF 0000                ADD [BX+SI], AL
0734:6701 0000                ADD [BX+SI], AL
0734:6703 0022                ADD [BP+SI], AH
0734:6705 0321                ADD SP, [BX+DI]
0734:6707 0320                ADD SP, [BX+SI]
0734:6709 0323                ADD SP, [BP+DI]
0734:670B 035D01              ADD BX, [DI+01]
0734:670E 9E                  SAHF
0734:670F 0124                ADD [SI], SP
0734:6711 035F01              ADD BX, [BX+01]
0734:6714 5E                  POP SI
0734:6715 0130                ADD [BX+SI], SI
0734:6717 039F0105            ADD BX, [BX+0501]
0734:671B 02C2                ADD AL, DL
0734:671D 02FC                ADD BH, AH
0734:671F 022E0382            ADD CH, [8203]
0734:6723 0306042D            ADD AX, [2D04]
0734:6727 045F                ADD AL, 5F
0734:6729 046E                ADD AL, 6E
0734:672B 0491                ADD AL, 91
0734:672D 0491                ADD AL, 91
0734:672F 0498                ADD AL, 98
0734:6731 00A70099            ADD [BX+9900], AH
0734:6735 005C01              ADD [SI+01], BL
0734:6738 9C                  PUSHF
0734:6739 019E015E            ADD [BP+5E01], BX
0734:673D 016D00              ADD [DI+00], BP
0734:6740 CF                  IRET
0734:6741 00AD00A5            ADD [DI+A500], CH
0734:6745 006F00              ADD [BX+00], CH
0734:6748 61                  DB 61
0734:6749 009D0060            ADD [DI+6000], BL
0734:674D 009C00CB            ADD [SI+CB00], BL
0734:6751 00CA                ADD DL, CL
0734:6753 00AF00AB            ADD [BX+AB00], CH
0734:6757 006100              ADD [BX+DI+00], AH
0734:675A 7E01                JLE	675D
0734:675C A5                  MOVSW
0734:675D 01A203FD            ADD [BP+SI+FD03], SP
0734:6761 031D                ADD BX, [DI]
0734:6763 0488                ADD AL, 88
0734:6765 044C                ADD AL, 4C
0734:6767 057105              ADD AX, 0571
0734:676A 7606                JBE	6772
0734:676C 1007                ADC [BX], AL
0734:676E 55                  PUSH BP
0734:676F 07                  POP ES
0734:6770 67                  DB 67
0734:6771 07                  POP ES
0734:6772 7407                JE	677B
0734:6774 8807                MOV [BX], AL
0734:6776 97                  XCHG AX, DI
0734:6777 07                  POP ES
0734:6778 D7                  XLAT
0734:6779 07                  POP ES
0734:677A D7                  XLAT
0734:677B 07                  POP ES
0734:677C 2D0841              SUB AX, 4108
0734:677F 09E3                OR BX, SP
0734:6781 00E2                ADD DL, AH
0734:6783 00E1                ADD CL, AH
0734:6785 00E1                ADD CL, AH
0734:6787 00E0                ADD AL, AH
0734:6789 00E0                ADD AL, AH
0734:678B 0094058A            ADD [SI+8A05], DL
0734:678F 06                  PUSH ES
0734:6790 A7                  CMPSW
0734:6791 06                  PUSH ES
0734:6792 B706                MOV BH, 06
0734:6794 D806EA06            FADD FLOAT PTR [06EA]
0734:6798 0A01                OR AL, [BX+DI]
0734:679A 0201                ADD AL, [BX+DI]
0734:679C 1000                ADC [BX+SI], AL
0734:679E 1100                ADC [BX+SI], AX
0734:67A0 0801                OR [BX+DI], AL
0734:67A2 0001                ADD [BX+DI], AL
0734:67A4 0000                ADD [BX+SI], AL
0734:67A6 0100                ADD [BX+SI], AX
0734:67A8 0C01                OR AL, 01
0734:67AA 0401                ADD AL, 01
0734:67AC 2000                AND [BX+SI], AL
0734:67AE 2100                AND [BX+SI], AX
0734:67B0 9B                  WAIT (unused)
0734:67B1 02EF                ADD CH, BH
0734:67B3 029302EE            ADD DL, [BP+DI+EE02]
0734:67B7 028B02ED            ADD CL, [BP+DI+ED02]
0734:67BB 02900291            ADD DL, [BX+SI+9102]
0734:67BF 02E1                ADD AH, CL
0734:67C1 0231                ADD DH, [BX+DI]
0734:67C3 01E0                ADD AX, SP
0734:67C5 0230                ADD DH, [BX+SI]
0734:67C7 012B                ADD [BP+DI], BP
0734:67C9 012A                ADD [BP+SI], BP
0734:67CB 0109                ADD [BX+DI], CX
0734:67CD 0101                ADD [BX+DI], AX
0734:67CF 0108                ADD [BX+SI], CX
0734:67D1 0009                ADD [BX+DI], CL
0734:67D3 000B                ADD [BP+DI], CL
0734:67D5 0103                ADD [BP+DI], AX
0734:67D7 0118                ADD [BX+SI], BX
0734:67D9 0019                ADD [BX+DI], BL
0734:67DB 000D                ADD [DI], CL
0734:67DD 0105                ADD [DI], AX
0734:67DF 0128                ADD [BX+SI], BP
0734:67E1 0029                ADD [BX+DI], CH
0734:67E3 00A002A1            ADD [BX+SI+A102], AH
0734:67E7 02860087            ADD AL, [BP+8700]
0734:67EB 000E0106            ADD [0601], CL
0734:67EF 0130                ADD [BX+SI], SI
0734:67F1 0031                ADD [BX+DI], DH
0734:67F3 0000                ADD [BX+SI], AL
0734:67F5 0104                ADD [SI], AX
0734:67F7 07                  POP ES
0734:67F8 0A0D                OR CL, [DI]
0734:67FA 1013                ADC [BP+DI], DL
0734:67FC 16                  PUSH SS
0734:67FD 191B                SSB [BP+DI], BX
0734:67FF 1E                  PUSH DS
0734:6800 2123                AND [BP+DI], SP
0734:6802 252729              AND AX, 2927
0734:6805 2B2D                SUB BP, [DI]
0734:6807 3032                XOR [BP+SI], DH
0734:6809 3437                XOR AL, 37
0734:680B 3A3E4042            CMP BH, [4240]
0734:680F 44                  INC SP
0734:6810 46                  INC SI
0734:6811 49                  DEC CX
0734:6812 4B                  DEC BX
0734:6813 4D                  DEC BP
0734:6814 51                  PUSH CX
0734:6815 55                  PUSH BP
0734:6816 59                  POP CX
0734:6817 5D                  POP BP
0734:6818 60                  DB 60
0734:6819 63                  DB 63
0734:681A 65                  DB 65
0734:681B 67                  DB 67
0734:681C 69                  DB 69
0734:681D 6B                  DB 6B
0734:681E 6D                  DB 6D
0734:681F 7073                JO	6894
0734:6821 7679                JBE	689C
0734:6823 7C7F                JL	68A4
0734:6825 83878A8D8F          ADD WORD PTR [BX+8D8A], -71
0734:682A 92                  XCHG AX, DX
0734:682B 95                  XCHG AX, BP
0734:682C 98                  CBW
0734:682D 9B                  WAIT (unused)
0734:682E 9E                  SAHF
0734:682F A0A2A6              MOV AL, [A6A2]
0734:6832 AA                  STOSB
0734:6833 AD                  LODSW
0734:6834 B0B2                MOV AL, B2
0734:6836 B4B6                MOV AH, B6
0734:6838 B8BABC              MOV AX, BCBA
0734:683B BFC2C5              MOV DI, C5C2
0734:683E C8                  DB C8
0734:683F CB                  RETF
0734:6840 E0DB                LOOPNE	681D
0734:6842 E1DB                LOOPE	681F
0734:6844 E4DB                IN AL, DB
0734:6846 2401                AND AL, 01
0734:6848 260101              ADD ES: [BX+DI], AX
0734:684B 0102                ADD [BP+SI], AX
0734:684D 0404                ADD AL, 04
0734:684F 0B00                OR AX, [BX+SI]
0734:6851 0D000F              OR AX, 0F00
0734:6854 000E000F            ADD [0F00], CL
0734:6858 0D0E0D              OR AX, 0D0E
0734:685B 0F                  DB 0F
0734:685C 0B0E0B61            OR CX, [610B]
0734:6860 0D1005              OR AX, 0510
0734:6863 0104                ADD [SI], AX
0734:6865 0104                ADD [SI], AX
0734:6867 0404                ADD AL, 04
0734:6869 0101                ADD [BX+DI], AX
0734:686B 0101                ADD [BX+DI], AX
0734:686D 0101                ADD [BX+DI], AX
0734:686F 2010                AND [BX+SI], DL
0734:6871 1008                ADC [BX+SI], CL
0734:6873 0808                OR [BX+SI], CL
0734:6875 0808                OR [BX+SI], CL
0734:6877 0810                OR [BX+SI], DL
0734:6879 1008                ADC [BX+SI], CL
0734:687B FF10                CALL WORD PTR [BX+SI]
0734:687D 1004                ADC [SI], AL
0734:687F 0408                ADD AL, 08
0734:6881 0808                OR [BX+SI], CL
0734:6883 0808                OR [BX+SI], CL
0734:6885 0808                OR [BX+SI], CL
0734:6887 0A01                OR AL, [BX+DI]
0734:6889 1E                  PUSH DS
0734:688A 191B                SSB [BP+DI], BX
0734:688C 181C                SSB [SI], BL
0734:688E 1D1A42              SSB AX, 421A
0734:6891 59                  POP CX
0734:6892 57                  PUSH DI
0734:6893 4F                  DEC DI
0734:6894 57                  PUSH DI
0734:6895 4F                  DEC DI
0734:6896 44                  INC SP
0734:6897 57                  PUSH DI
0734:6898 51                  PUSH CX
0734:6899 57                  PUSH DI
0734:689A 46                  INC SI
0734:689B 4C                  DEC SP
0734:689C 44                  INC SP
0734:689D 4F                  DEC DI
0734:689E 54                  PUSH AH
0734:689F 42                  INC DX
0734:68A0 53                  PUSH BX
0734:68A1 48                  DEC AX
0734:68A2 4C                  DEC SP
0734:68A3 4F                  DEC DI
0734:68A4 4E                  DEC SI
0734:68A5 45                  INC BP
0734:68A6 46                  INC SI
0734:68A7 41                  INC CX
0734:68A8 050607              ADD AX, 0706
0734:68AB 08FF                OR BH, BH
0734:68AD 0C53                OR AL, 53
0734:68AF 035903              ADD BX, [BX+DI+03]
0734:68B2 5C                  POP SP
0734:68B3 03D7                ADD DX, DI
0734:68B5 08B908B9            OR [BX+DI+B908], BH
0734:68B9 08B908DD            OR [BX+DI+DD08], BH
0734:68BD 08BE08CD            OR [BP+CD08], BH
0734:68C1 08E8                OR AL, CH
0734:68C3 086009              OR [BX+SI+09], AH
0734:68C6 60                  DB 60
0734:68C7 096009              OR [BX+SI+09], SP
0734:68CA 60                  DB 60
0734:68CB 096009              OR [BX+SI+09], SP
0734:68CE 60                  DB 60
0734:68CF 096909              OR [BX+DI+09], BP
0734:68D2 8809                MOV [BX+DI], CL
0734:68D4 DD                  DB DD
0734:68D5 0932                OR [BP+SI], SI
0734:68D7 0A360A41            OR DH, [410A]
0734:68DB 0A5D0A              OR BL, [DI+0A]
0734:68DE 61                  DB 61
0734:68DF 0A8A0A9C            OR CL, [BP+SI+9C0A]
0734:68E3 0AAA0A3D            OR CH, [BP+SI+3D0A]
0734:68E7 0AC8                OR CL, AL
0734:68E9 0AEE                OR CH, DH
0734:68EB 0AF5                OR DH, CH
0734:68ED 0AFC                OR BH, AH
0734:68EF 0AFC                OR BH, AH
0734:68F1 0AFC                OR BH, AH
0734:68F3 0AFC                OR BH, AH
0734:68F5 0AFC                OR BH, AH
0734:68F7 0AFC                OR BH, AH
0734:68F9 0AFC                OR BH, AH
0734:68FB 0AFC                OR BH, AH
0734:68FD 0AFC                OR BH, AH
0734:68FF 0A2E4845            OR CH, [4548]
0734:6903 58                  POP AX
0734:6904 082E4558            OR [5845], CH
0734:6908 45                  INC BP
0734:6909 042E                ADD AL, 2E
0734:690B 43                  INC BX
0734:690C 4F                  DEC DI
0734:690D 4D                  DEC BP
0734:690E 024572              ADD AL, [DI+72]
0734:6911 726F                JB	6982
0734:6913 7220                JB	6935
0734:6915 69                  DB 69
0734:6916 6E                  DB 6E
0734:6917 207365              AND [BP+DI+65], DH
0734:691A 7175                JNO	6991
0734:691C 65                  DB 65
0734:691D 6E                  DB 6E
0734:691E 63                  DB 63
0734:691F 65                  DB 65
0734:6920 206F66              AND [BX+66], CH
0734:6923 206361              AND [BP+DI+61], AH
0734:6926 6C                  DB 6C
0734:6927 6C                  DB 6C
0734:6928 7320                JNB	694A
0734:692A 746F                JE	699B
0734:692C 206861              AND [BX+SI+61], CH
0734:692F 63                  DB 63
0734:6930 6B                  DB 6B
0734:6931 2E                  SEG CS (unused)
0734:6932 0D0A24              OR AX, 240A
0734:6935 2003                AND [BP+DI], AL
0734:6937 2103                AND [BP+DI], AX
0734:6939 2403                AND AL, 03
0734:693B 0402                ADD AL, 02
0734:693D 06                  PUSH ES
0734:693E 020A                ADD CL, [BP+SI]
0734:6940 09060502            OR [0205], AX
0734:6944 0104                ADD [SI], AX
0734:6946 08414C              OR [BX+DI+4C], AL
0734:6949 43                  INC BX
0734:694A 4C                  DEC SP
0734:694B 44                  INC SP
0734:694C 4C                  DEC SP
0734:694D 42                  INC DX
0734:694E 4C                  DEC SP
0734:694F 41                  INC CX
0734:6950 48                  DEC AX
0734:6951 43                  INC BX
0734:6952 48                  DEC AX
0734:6953 44                  INC SP
0734:6954 48                  DEC AX
0734:6955 42                  INC DX
0734:6956 48                  DEC AX
0734:6957 41                  INC CX
0734:6958 58                  POP AX
0734:6959 43                  INC BX
0734:695A 58                  POP AX
0734:695B 44                  INC SP
0734:695C 58                  POP AX
0734:695D 42                  INC DX
0734:695E 58                  POP AX
0734:695F 53                  PUSH BX
0734:6960 50                  PUSH AL
0734:6961 42                  INC DX
0734:6962 50                  PUSH AL
0734:6963 53                  PUSH BX
0734:6964 49                  DEC CX
0734:6965 44                  INC SP
0734:6966 49                  DEC CX
0734:6967 45                  INC BP
0734:6968 53                  PUSH BX
0734:6969 43                  INC BX
0734:696A 53                  PUSH BX
0734:696B 53                  PUSH BX
0734:696C 53                  PUSH BX
0734:696D 44                  INC SP
0734:696E 53                  PUSH BX
0734:696F 46                  INC SI
0734:6970 53                  PUSH BX
0734:6971 47                  INC DI
0734:6972 53                  PUSH BX
0734:6973 53                  PUSH BX
0734:6974 54                  PUSH AH
0734:6975 4D                  DEC BP
0734:6976 4D                  DEC BP
0734:6977 43                  INC BX
0734:6978 52                  PUSH DL
0734:6979 44                  INC SP
0734:697A 52                  PUSH DL
0734:697B 54                  PUSH AH
0734:697C 52                  PUSH DL
0734:697D 26                  SEG ES (unused)
0734:697E 55                  PUSH BP
0734:697F 2A5528              SUB DL, [DI+28]
0734:6982 55                  PUSH BP
0734:6983 2455                AND AL, 55
0734:6985 26                  SEG ES (unused)
0734:6986 26                  SEG ES (unused)
0734:6987 26                  SEG ES (unused)
0734:6988 26                  SEG ES (unused)
0734:6989 26                  SEG ES (unused)
0734:698A 65                  DB 65
0734:698B 9B                  WAIT (unused)
0734:698C F0                  LOCK (unused)
0734:698D F2                  REPNE (unused)
0734:698E F3                  REPE (unused)
0734:698F 64096206            OR FS: [BP+SI+06], SP
0734:6993 C507                LDS AX, [BX]
0734:6995 BF0700              MOV DI, 0007
0734:6998 FE29                JMP FAR [BX+DI]
0734:699A 02268127            ADD AH, [2781]
0734:699E 8E27                MOV ES, WORD PTR [BX]
0734:69A0 97                  XCHG AX, DI
0734:69A1 27                  BAA
0734:69A2 AA                  STOSB
0734:69A3 27                  BAA
0734:69A4 DD27                FRSTOR DWORD PTR [BX]
0734:69A6 E227                LOOP	69CF
0734:69A8 E627                OUT 27, AL
0734:69AA EA27F62707          JMP 0727:F627
0734:69AF 282D                SUB [DI], CH
0734:69B1 281A                SUB [BP+SI], BL
0734:69B3 283F                SUB [BX], BH
0734:69B5 286328              SUB [BP+DI+28], AH
0734:69B8 69                  DB 69
0734:69B9 289C28AC            SUB [SI+AC28], BL
0734:69BD 28C0                SUB AL, AL
0734:69BF 28DF                SUB BH, BL
0734:69C1 28EA                SUB DL, CH
0734:69C3 2804                SUB [SI], AL
0734:69C5 2922                SUB [BP+SI], SP
0734:69C7 2934                SUB [SI], SI
0734:69C9 293A                SUB [BP+SI], DI
0734:69CB 294429              SUB [SI+29], AX
0734:69CE 3100                XOR [BX+SI], AX
0734:69D0 3300                XOR AX, [BX+SI]
0734:69D2 44                  INC SP
0734:69D3 58                  POP AX
0734:69D4 43                  INC BX
0734:69D5 4C                  DEC SP
0734:69D6 53                  PUSH BX
0734:69D7 54                  PUSH AH
0734:69D8 43                  INC BX
0734:69D9 53                  PUSH BX
0734:69DA 44                  INC SP
0734:69DB 53                  PUSH BX
0734:69DC 45                  INC BP
0734:69DD 53                  PUSH BX
0734:69DE 46                  INC SI
0734:69DF 53                  PUSH BX
0734:69E0 47                  INC DI
0734:69E1 53                  PUSH BX
0734:69E2 53                  PUSH BX
0734:69E3 53                  PUSH BX
0734:69E4 4D                  DEC BP
0734:69E5 29F1                SUB CX, SI
0734:69E7 22FD                AND BH, CH
0734:69E9 2204                AND AL, [SI]
0734:69EB 231F                AND BX, [BX]
0734:69ED 2328                AND BP, [BX+SI]
0734:69EF 234357              AND AX, [BP+DI+57]
0734:69F2 53                  PUSH BX
0734:69F3 57                  PUSH DI
0734:69F4 54                  PUSH AH
0734:69F5 57                  PUSH DI
0734:69F6 4F                  DEC DI
0734:69F7 50                  PUSH AL
0734:69F8 43                  INC BX
0734:69F9 3D4950              CMP AX, 5049
0734:69FC 3D4450              CMP AX, 5044
0734:69FF 3D656D              CMP AX, 6D65
0734:6A02 7074                JO	6A78
0734:6A04 794E                JNS	6A54
0734:6A06 61                  DB 61
0734:6A07 4E                  DEC SI
0734:6A08 1054FF              ADC [SI-FF], DL
0734:6A0B F73F                IDIV WORD PTR [BX]
0734:6A0D 62                  DB 62
0734:6A0E FFF7                PUSH DI
0734:6A10 3F                  AAS
0734:6A11 16                  PUSH SS
0734:6A12 FF12                CALL WORD PTR [BP+SI]
0734:6A14 B4FF                MOV AH, FF
0734:6A16 F4                  HLT
0734:6A17 AB                  STOSW
0734:6A18 9B                  WAIT (unused)
0734:6A19 05F1F4              ADD AX, F4F1
0734:6A1C AD                  LODSW
0734:6A1D FA                  CLI
0734:6A1E F4                  HLT
0734:6A1F 04C4                ADD AL, C4
0734:6A21 055DFF              ADD AX, FF5D
0734:6A24 F4                  HLT
0734:6A25 AB                  STOSW
0734:6A26 0301                ADD AX, [BX+DI]
0734:6A28 31F4                XOR SP, SI
0734:6A2A AD                  LODSW
0734:6A2B 62                  DB 62
0734:6A2C F4                  HLT
0734:6A2D 0004                ADD [SI], AL
0734:6A2F 009DFFF4            ADD [DI+F4FF], BL
0734:6A33 AC                  LODSB
0734:6A34 330A                XOR CX, [BP+SI]
0734:6A36 B1F4                MOV CL, F4
0734:6A38 AE                  SCASB
0734:6A39 92                  XCHG AX, DX
0734:6A3A F4                  HLT
0734:6A3B 09840A1D            OR [SI+1D0A], AX
0734:6A3F FFEF                JMP DI
0734:6A41 1D6AFF              SSB AX, FF6A
0734:6A44 EE                  OUT DX, AL
0734:6A45 1D1FFF              SSB AX, FF1F
0734:6A48 F0                  LOCK (unused)
0734:6A49 83D8FF              SSB AX, -01
0734:6A4C F0                  LOCK (unused)
0734:6A4D 8424                TEST [SI], AH
0734:6A4F FF                  DB FF
0734:6A50 F9                  STC
0734:6A51 F1                  DB F1
0734:6A52 8769FF              XCHG DI, WORD PTR [BX+DI-FF]
0734:6A55 F0                  LOCK (unused)
0734:6A56 7C6E                JL	6AC6
0734:6A58 F0                  LOCK (unused)
0734:6A59 B0FB                MOV AL, FB
0734:6A5B FFF4                PUSH SP
0734:6A5D F0                  LOCK (unused)
0734:6A5E 838EF4F0B1DF        OR WORD PTR [BP+F0F4], DFB1
0734:6A64 FFF4                PUSH SP
0734:6A66 F0                  LOCK (unused)
0734:6A67 812EF4F0B193        SUB WORD PTR [F0F4], 93B1
0734:6A6D FFF4                PUSH SP
0734:6A6F F0                  LOCK (unused)
0734:6A70 7ECE                JLE	6A40
0734:6A72 F4                  HLT
0734:6A73 F0                  LOCK (unused)
0734:6A74 B147                MOV CL, 47
0734:6A76 FF44EC              INC WORD PTR [SI-EC]
0734:6A79 B2E0                MOV DL, E0
0734:6A7B B312                MOV BL, 12
0734:6A7D 2DC5FF              SUB AX, FFC5
0734:6A80 F8                  CLC
0734:6A81 F9                  STC
0734:6A82 2D20FF              SUB AX, FF20
0734:6A85 49                  DEC CX
0734:6A86 A0FF4A              MOV AL, [4AFF]
0734:6A89 D0FF                SAR BH, 1
0734:6A8B 4A                  DEC DX
0734:6A8C 38FF                CMP BH, BH
0734:6A8E EF                  OUT DX, AX
0734:6A8F 4D                  DEC BP
0734:6A90 C8                  DB C8
0734:6A91 FF48BC              DEC WORD PTR [BX+SI-BC]
0734:6A94 FFF3                PUSH BX
0734:6A96 61                  DB 61
0734:6A97 1CFF                SSB AL, FF
0734:6A99 F3                  REPE (unused)
0734:6A9A 5F                  POP DI
0734:6A9B EC                  IN AL, DX
0734:6A9C FFF3                PUSH BX
0734:6A9E 5F                  POP DI
0734:6A9F A0FFF3              MOV AL, [F3FF]
0734:6AA2 60                  DB 60
0734:6AA3 D0FF                SAR BH, 1
0734:6AA5 F3                  REPE (unused)
0734:6AA6 5F                  POP DI
0734:6AA7 A0FFF3              MOV AL, [F3FF]
0734:6AAA 60                  DB 60
0734:6AAB 38FF                CMP BH, BH
0734:6AAD F3                  REPE (unused)
0734:6AAE 63                  DB 63
0734:6AAF 7CFF                JL	6AB0
0734:6AB1 F3                  REPE (unused)
0734:6AB2 62                  DB 62
0734:6AB3 E4FF                IN AL, FF
0734:6AB5 F3                  REPE (unused)
0734:6AB6 62                  DB 62
0734:6AB7 98                  CBW
0734:6AB8 FFF3                PUSH BX
0734:6ABA 63                  DB 63
0734:6ABB 30FF                XOR BH, BH
0734:6ABD F3                  REPE (unused)
0734:6ABE 60                  DB 60
0734:6ABF D0FF                SAR BH, 1
0734:6AC1 F3                  REPE (unused)
0734:6AC2 5F                  POP DI
0734:6AC3 A0FFF3              MOV AL, [F3FF]
0734:6AC6 5F                  POP DI
0734:6AC7 EC                  IN AL, DX
0734:6AC8 FFF3                PUSH BX
0734:6ACA 61                  DB 61
0734:6ACB 1CFF                SSB AL, FF
0734:6ACD F3                  REPE (unused)
0734:6ACE 5F                  POP DI
0734:6ACF EC                  IN AL, DX
0734:6AD0 FFF3                PUSH BX
0734:6AD2 60                  DB 60
0734:6AD3 84FF                TEST BH, BH
0734:6AD5 F3                  REPE (unused)
0734:6AD6 63                  DB 63
0734:6AD7 30FF                XOR BH, BH
0734:6AD9 F3                  REPE (unused)
0734:6ADA 62                  DB 62
0734:6ADB 98                  CBW
0734:6ADC FFF3                PUSH BX
0734:6ADE 62                  DB 62
0734:6ADF E4FF                IN AL, FF
0734:6AE1 F3                  REPE (unused)
0734:6AE2 63                  DB 63
0734:6AE3 7CFF                JL	6AE4
0734:6AE5 F3                  REPE (unused)
0734:6AE6 5F                  POP DI
0734:6AE7 54                  PUSH AH
0734:6AE8 FFF3                PUSH BX
0734:6AEA 62                  DB 62
0734:6AEB 4C                  DEC SP
0734:6AEC FFF3                PUSH BX
0734:6AEE 61                  DB 61
0734:6AEF B4FF                MOV AH, FF
0734:6AF1 F3                  REPE (unused)
0734:6AF2 60                  DB 60
0734:6AF3 84FF                TEST BH, BH
0734:6AF5 F3                  REPE (unused)
0734:6AF6 5F                  POP DI
0734:6AF7 08FF                OR BH, BH
0734:6AF9 F3                  REPE (unused)
0734:6AFA 62                  DB 62
0734:6AFB 00FF                ADD BH, BH
0734:6AFD F3                  REPE (unused)
0734:6AFE 62                  DB 62
0734:6AFF 00FF                ADD BH, BH
0734:6B01 F3                  REPE (unused)
0734:6B02 62                  DB 62
0734:6B03 4C                  DEC SP
0734:6B04 FFF3                PUSH BX
0734:6B06 61                  DB 61
0734:6B07 68                  DB 68
0734:6B08 FFF3                PUSH BX
0734:6B0A 60                  DB 60
0734:6B0B 38FF                CMP BH, BH
0734:6B0D AD                  LODSW
0734:6B0E 17                  POP SS
0734:6B0F 11D1                ADC CX, DX
0734:6B11 AF                  SCASW
0734:6B12 7610                JBE	6B24
0734:6B14 A4                  MOVSB
0734:6B15 113D                ADC [DI], DI
0734:6B17 FF31                PUSH WORD PTR [BX+DI]
0734:6B19 48                  DEC AX
0734:6B1A FF                  DB FF
0734:6B1B F8                  CLC
0734:6B1C F9                  STC
0734:6B1D 3194FFF4            XOR [SI+F4FF], DX
0734:6B21 F1                  DB F1
0734:6B22 8044FFF2            ADD BYTE PTR [SI-FF], F2
0734:6B26 B4DB                MOV AH, DB
0734:6B28 FFF2                PUSH DX
0734:6B2A 7C18                JL	6B44
0734:6B2C FF                  DB FF
0734:6B2D F8                  CLC
0734:6B2E F9                  STC
0734:6B2F 2D6CFF              SUB AX, FF6C
0734:6B32 0B94FF0D            OR DX, [SI+0DFF]
0734:6B36 F4                  HLT
0734:6B37 FF                  DB FF
0734:6B38 FE                  DB FE
0734:6B39 FC                  CLD
0734:6B3A 1571F4              ADC AX, F471
0734:6B3D B73C                MOV BH, 3C
0734:6B3F FF                  DB FF
0734:6B40 BB18FF              MOV BX, FF18
0734:6B43 FD                  STD
0734:6B44 EE                  OUT DX, AL
0734:6B45 3B72FF              CMP SI, [BP+SI-FF]
0734:6B48 40                  INC AX
0734:6B49 6C                  DB 6C
0734:6B4A F0                  LOCK (unused)
0734:6B4B FF406C              INC [BX+SI+6C]
0734:6B4E E1FF                LOOPE	6B4F
0734:6B50 98                  CBW
0734:6B51 13994440            ADC BX, [BX+DI+4044]
0734:6B55 35C041              XOR AX, 41C0
0734:6B58 66                  DB 66
0734:6B59 C0                  DB C0
0734:6B5A FF41FF              INC [BX+DI-FF]
0734:6B5D C0                  DB C0
0734:6B5E 41                  INC CX
0734:6B5F E8C1FF              CALL 6B20
0734:6B62 98                  CBW
0734:6B63 B099                MOV AL, 99
0734:6B65 E1FF                LOOPE	6B66
0734:6B67 A3AEFF              MOV [FFAE], AX
0734:6B6A A86E                TEST AL, 6E
0734:6B6C FF406C              INC [BX+SI+6C]
0734:6B6F E0FF                LOOPNE	6B70
0734:6B71 FA                  CLI
0734:6B72 41                  INC CX
0734:6B73 04E2                ADD AL, E2
0734:6B75 FFF3                PUSH BX
0734:6B77 41                  INC CX
0734:6B78 19D0                SSB AX, DX
0734:6B7A FFF3                PUSH BX
0734:6B7C 41                  INC CX
0734:6B7D 19C0                SSB AX, AX
0734:6B7F FFF3                PUSH BX
0734:6B81 40                  INC AX
0734:6B82 CDC0                INT C0
0734:6B84 FFF3                PUSH BX
0734:6B86 40                  INC AX
0734:6B87 CDD0                INT D0
0734:6B89 FFF3                PUSH BX
0734:6B8B 40                  INC AX
0734:6B8C CDC8                INT C8
0734:6B8E FFF3                PUSH BX
0734:6B90 40                  INC AX
0734:6B91 CDD0                INT D0
0734:6B93 FFF3                PUSH BX
0734:6B95 40                  INC AX
0734:6B96 CDC0                INT C0
0734:6B98 FFF3                PUSH BX
0734:6B9A 41                  INC CX
0734:6B9B 19C0                SSB AX, AX
0734:6B9D FFF3                PUSH BX
0734:6B9F 41                  INC CX
0734:6BA0 19D0                SSB AX, DX
0734:6BA2 FFF3                PUSH BX
0734:6BA4 41                  INC CX
0734:6BA5 19C8                SSB AX, CX
0734:6BA7 FFF3                PUSH BX
0734:6BA9 41                  INC CX
0734:6BAA 19D8                SSB AX, BX
0734:6BAC FFF3                PUSH BX
0734:6BAE 41                  INC CX
0734:6BAF 19C8                SSB AX, CX
0734:6BB1 FFF3                PUSH BX
0734:6BB3 40                  INC AX
0734:6BB4 CDD8                INT D8
0734:6BB6 FFF3                PUSH BX
0734:6BB8 40                  INC AX
0734:6BB9 CDC8                INT C8
0734:6BBB FF9CD39E            CALL FAR [SI+9ED3]
0734:6BBF 0440                ADD AL, 40
0734:6BC1 3CD0                CMP AL, D0
0734:6BC3 40                  INC AX
0734:6BC4 20D1                AND CL, DL
0734:6BC6 FFF3                PUSH BX
0734:6BC8 41                  INC CX
0734:6BC9 20F0                AND AL, DH
0734:6BCB F3                  REPE (unused)
0734:6BCC 41                  INC CX
0734:6BCD 04F1                ADD AL, F1
0734:6BCF FFF3                PUSH BX
0734:6BD1 42                  INC DX
0734:6BD2 50                  PUSH AL
0734:6BD3 F0                  LOCK (unused)
0734:6BD4 F3                  REPE (unused)
0734:6BD5 42                  INC DX
0734:6BD6 34F1                XOR AL, F1
0734:6BD8 FF9F33A0            CALL FAR [BX+A033]
0734:6BDC 64                  SEG FS (unused)
0734:6BDD 40                  INC AX
0734:6BDE 3CD8                CMP AL, D8
0734:6BE0 40                  INC AX
0734:6BE1 20D9                AND CL, BL
0734:6BE3 FF41E8              INC [BX+DI-E8]
0734:6BE6 D9FF                FCOS
0734:6BE8 F0                  LOCK (unused)
0734:6BE9 40                  INC AX
0734:6BEA 6C                  DB 6C
0734:6BEB FF                  DB FF
0734:6BEC FF406C              INC [BX+SI+6C]
0734:6BEF F6FF                IDIV BH
0734:6BF1 FA                  CLI
0734:6BF2 41                  INC CX
0734:6BF3 04E1                ADD AL, E1
0734:6BF5 FFA653A7            JMP WORD PTR [BP+A753]
0734:6BF9 844035              TEST [BX+SI+35], AL
0734:6BFC F0                  LOCK (unused)
0734:6BFD 41                  INC CX
0734:6BFE 66                  DB 66
0734:6BFF F8                  CLC
0734:6C00 FF41FF              INC [BX+DI-FF]
0734:6C03 F8                  CLC
0734:6C04 41                  INC CX
0734:6C05 E8F9FF              CALL 6BFE
0734:6C08 A6                  CMPSB
0734:6C09 F0                  LOCK (unused)
0734:6C0A A821                TEST AL, 21
0734:6C0C FFA8B3A9            JMP FAR [BX+SI+A9B3]
0734:6C10 E440                IN AL, 40
0734:6C12 35F841              XOR AX, 41F8
0734:6C15 66                  DB 66
0734:6C16 F0                  LOCK (unused)
0734:6C17 FF41FF              INC FAR [BX+DI-FF]
0734:6C1A F0                  LOCK (unused)
0734:6C1B 41                  INC CX
0734:6C1C E8F1FF              CALL 6C0D
0734:6C1F A950AA              TEST AX, AA50
0734:6C22 81FFFA41            CMP DI, 41FA
0734:6C26 04E0                ADD AL, E0
0734:6C28 FF41B7              INC WORD PTR [BX+DI-B7]
0734:6C2B C0                  DB C0
0734:6C2C FF9D709E            CALL FAR [DI+9E70]
0734:6C30 A1FF9F              MOV AX, [9FFF]
0734:6C33 D0A101FF            SHL BYTE PTR [BX+DI+FF01], 1
0734:6C37 98                  CBW
0734:6C38 FC                  CLD
0734:6C39 9A2DA603FF          CALL FF03:A62D
0734:6C3E 40                  INC AX
0734:6C3F 6C                  DB 6C
0734:6C40 F7FF                IDIV DI
0734:6C42 FA                  CLI
0734:6C43 41                  INC CX
0734:6C44 04E3                ADD AL, E3
0734:6C46 FF9DBC9E            CALL FAR [DI+9EBC]
0734:6C4A ED                  IN AX, DX
0734:6C4B FFA01CA1            JMP WORD PTR [BX+SI+A11C]
0734:6C4F 4D                  DEC BP
0734:6C50 AA                  STOSB
0734:6C51 C3                  RET
0734:6C52 FF985F99            CALL FAR [BX+SI+995F]
0734:6C56 90                  XCHG AX, AX
0734:6C57 A4                  MOVSB
0734:6C58 DE4087              FIADD WORD PTR [BX+SI-87]
0734:6C5B C0                  DB C0
0734:6C5C FF406C              INC WORD PTR [BX+SI+6C]
0734:6C5F E8FF40              CALL AD5E
0734:6C62 6C                  DB 6C
0734:6C63 E9FF40              JMP AD62
0734:6C66 6C                  DB 6C
0734:6C67 EAFF406CEB          JMP EB6C:40FF
0734:6C6C FF406C              INC WORD PTR [BX+SI+6C]
0734:6C6F EC                  IN AL, DX
0734:6C70 FF406C              INC WORD PTR [BX+SI+6C]
0734:6C73 ED                  IN AX, DX
0734:6C74 FF406C              INC WORD PTR [BX+SI+6C]
0734:6C77 EE                  OUT DX, AL
0734:6C78 FF                  DB FF
0734:6C79 FA                  CLI
0734:6C7A A4                  MOVSB
0734:6C7B 45                  INC BP
0734:6C7C FFA1E9FF            JMP WORD PTR [BX+DI+FFE9]
0734:6C80 F8                  CLC
0734:6C81 F9                  STC
0734:6C82 A1E9FF              MOV AX, [FFE9]
0734:6C85 9A739BA440          CALL 40A4:9B73
0734:6C8A 35C841              XOR AX, 41C8
0734:6C8D 66                  DB 66
0734:6C8E C8                  DB C8
0734:6C8F FF41FF              INC WORD PTR [BX+DI-FF]
0734:6C92 C8                  DB C8
0734:6C93 41                  INC CX
0734:6C94 E8C9FF              CALL 6C5D
0734:6C97 9B                  WAIT (unused)
0734:6C98 109C41FF            ADC [SI+FF41], BL
0734:6C9C 40                  INC AX
0734:6C9D 6C                  DB 6C
0734:6C9E D0FF                SAR BH, 1
0734:6CA0 40                  INC AX
0734:6CA1 6C                  DB 6C
0734:6CA2 F3                  REPE (unused)
0734:6CA3 FF406C              INC WORD PTR [BX+SI+6C]
0734:6CA6 F8                  CLC
0734:6CA7 FFF0                PUSH AX
0734:6CA9 40                  INC AX
0734:6CAA 6C                  DB 6C
0734:6CAB F5                  CMC
0734:6CAC FF406C              INC WORD PTR [BX+SI+6C]
0734:6CAF F2                  REPNE (unused)
0734:6CB0 FF406C              INC WORD PTR [BX+SI+6C]
0734:6CB3 FC                  CLD
0734:6CB4 FFA319FF            JMP WORD PTR [BP+DI+FF19]
0734:6CB8 F8                  CLC
0734:6CB9 F9                  STC
0734:6CBA A319FF              MOV [FF19], AX
0734:6CBD FA                  CLI
0734:6CBE A7                  CMPSW
0734:6CBF D9FF                FCOS
0734:6CC1 F8                  CLC
0734:6CC2 F9                  STC
0734:6CC3 A7                  CMPSW
0734:6CC4 D9FF                FCOS
0734:6CC6 40                  INC AX
0734:6CC7 6C                  DB 6C
0734:6CC8 FD                  STD
0734:6CC9 FF                  DB FF
0734:6CCA FA                  CLI
0734:6CCB EF                  OUT DX, AX
0734:6CCC 41                  INC CX
0734:6CCD 04E4                ADD AL, E4
0734:6CCF FFF0                PUSH AX
0734:6CD1 40                  INC AX
0734:6CD2 6C                  DB 6C
0734:6CD3 FE                  DB FE
0734:6CD4 FFF0                PUSH AX
0734:6CD6 40                  INC AX
0734:6CD7 6C                  DB 6C
0734:6CD8 FB                  STI
0734:6CD9 FF406C              INC WORD PTR [BX+SI+6C]
0734:6CDC FA                  CLI
0734:6CDD FF9D1F9E            CALL FAR [DI+9E1F]
0734:6CE1 50                  PUSH AL
0734:6CE2 41                  INC CX
0734:6CE3 B7D0                MOV BH, D0
0734:6CE5 FF9F7FA0            CALL FAR [BX+A07F]
0734:6CE9 B0A9                MOV AL, A9
0734:6CEB 9E                  SAHF
0734:6CEC 41                  INC CX
0734:6CED B7D8                MOV BH, D8
0734:6CEF FF                  DB FF
0734:6CF0 FA                  CLI
0734:6CF1 A905FF              TEST AX, FF05
0734:6CF4 FA                  CLI
0734:6CF5 A6                  CMPSB
0734:6CF6 A9FFF8              TEST AX, F8FF
0734:6CF9 F9                  STC
0734:6CFA A6                  CMPSB
0734:6CFB A9FFFA              TEST AX, FAFF
0734:6CFE 42                  INC DX
0734:6CFF 52                  PUSH DL
0734:6D00 E0AA                LOOPNE	6CAC
0734:6D02 35FFA1              XOR AX, A1FF
0734:6D05 93                  XCHG AX, BX
0734:6D06 A2C440              MOV [40C4], AL
0734:6D09 35E041              XOR AX, 41E0
0734:6D0C 66                  DB 66
0734:6D0D E8FF41              CALL AF0C
0734:6D10 FFE8                JMP AX
0734:6D12 41                  INC CX
0734:6D13 E8E9FF              CALL 6CFC
0734:6D16 A230A3              MOV [A330], AL
0734:6D19 61                  DB 61
0734:6D1A FFA3F3A5            JMP WORD PTR [BP+DI+A5F3]
0734:6D1E 2440                AND AL, 40
0734:6D20 35E841              XOR AX, 41E8
0734:6D23 66                  DB 66
0734:6D24 E0FF                LOOPNE	6D25
0734:6D26 41                  INC CX
0734:6D27 FFE0                JMP AX
0734:6D29 41                  INC CX
0734:6D2A E8E1FF              CALL 6D0B
0734:6D2D A4                  MOVSB
0734:6D2E 90                  XCHG AX, AX
0734:6D2F A5                  MOVSW
0734:6D30 C1                  DB C1
0734:6D31 FF406C              INC WORD PTR [BX+SI+6C]
0734:6D34 E4FF                IN AL, FF
0734:6D36 F0                  LOCK (unused)
0734:6D37 41                  INC CX
0734:6D38 B8E0F0              MOV AX, F0E0
0734:6D3B 41                  INC CX
0734:6D3C 9C                  PUSHF
0734:6D3D E1FF                LOOPE	6D3E
0734:6D3F F3                  REPE (unused)
0734:6D40 41                  INC CX
0734:6D41 20E8                AND AL, CH
0734:6D43 F3                  REPE (unused)
0734:6D44 41                  INC CX
0734:6D45 04E9                ADD AL, E9
0734:6D47 FFF3                PUSH BX
0734:6D49 42                  INC DX
0734:6D4A 50                  PUSH AL
0734:6D4B E8F342              CALL B03E
0734:6D4E 34E9                XOR AL, E9
0734:6D50 FFF0                PUSH AX
0734:6D52 41                  INC CX
0734:6D53 B8E8F0              MOV AX, F0E8
0734:6D56 41                  INC CX
0734:6D57 9C                  PUSHF
0734:6D58 E9FFF0              JMP 5E57
0734:6D5B 40                  INC AX
0734:6D5C B8E9FF              MOV AX, FFE9
0734:6D5F 2E                  SEG CS (unused)
0734:6D60 04FF                ADD AL, FF
0734:6D62 40                  INC AX
0734:6D63 6C                  DB 6C
0734:6D64 E5FF                IN AX, FF
0734:6D66 40                  INC AX
0734:6D67 88C8                MOV AL, CL
0734:6D69 40                  INC AX
0734:6D6A 6C                  DB 6C
0734:6D6B C9                  DB C9
0734:6D6C FF406C              INC [BX+SI+6C]
0734:6D6F F4                  HLT
0734:6D70 FF406C              INC [BX+SI+6C]
0734:6D73 F1                  DB F1
0734:6D74 FF406C              INC [BX+SI+6C]
0734:6D77 F9                  STC
0734:6D78 FF4870              DEC WORD PTR [BX+SI+70]
0734:6D7B FF                  DB FF
0734:6D7C BB64FF              MOV BX, FF64
0734:6D7F BACCF0              MOV DX, F0CC
0734:6D82 7FFC                JG	6D80
0734:6D84 EE                  OUT DX, AL
0734:6D85 1F                  POP DS
0734:6D86 E3EE                JCXZ	6D76
0734:6D88 1F                  POP DS
0734:6D89 E4EE                IN AL, EE
0734:6D8B 1F                  POP DS
0734:6D8C 4D                  DEC BP
0734:6D8D EE                  OUT DX, AL
0734:6D8E 1F                  POP DS
0734:6D8F 4E                  DEC SI
0734:6D90 FF43D3              INC WORD PTR [BP+DI-D3]
0734:6D93 46                  INC SI
0734:6D94 34FF                XOR AL, FF
0734:6D96 1311                ADC DX, [BX+DI]
0734:6D98 F4                  HLT
0734:6D99 B6F0                MOV DH, F0
0734:6D9B FFEE                JMP SI
0734:6D9D 2010                AND [BX+SI], DL
0734:6D9F FF                  DB FF
0734:6DA0 F8                  CLC
0734:6DA1 F9                  STC
0734:6DA2 EE                  OUT DX, AL
0734:6DA3 205CFF              AND [SI-FF], BL
0734:6DA6 3CB5                CMP AL, B5
0734:6DA8 3D02FF              CMP AX, FF02
0734:6DAB 3D28FF              CMP AX, FF28
0734:6DAE F1                  DB F1
0734:6DAF 4E                  DEC SI
0734:6DB0 60                  DB 60
0734:6DB1 FFF1                PUSH CX
0734:6DB3 BDD1FF              MOV BP, FFD1
0734:6DB6 F8                  CLC
0734:6DB7 F9                  STC
0734:6DB8 3D74FF              CMP AX, FF74
0734:6DBB 237BF0              AND DI, [BP+DI-F0]
0734:6DBE 7420                JE	6DE0
0734:6DC0 FF22                JMP WORD PTR [BP+SI]
0734:6DC2 4B                  DEC BX
0734:6DC3 F0                  LOCK (unused)
0734:6DC4 72F0                JB	6DB6
0734:6DC6 FF21                JMP WORD PTR [BX+DI]
0734:6DC8 FFF0                PUSH AX
0734:6DCA 72A4                JB	6D70
0734:6DCC FF23                JMP WORD PTR [BP+DI]
0734:6DCE 2F                  DAS
0734:6DCF F0                  LOCK (unused)
0734:6DD0 73D4                JNB	6DA6
0734:6DD2 FF21                JMP WORD PTR [BX+DI]
0734:6DD4 FFF0                PUSH AX
0734:6DD6 72A4                JB	6D7C
0734:6DD8 FF                  DB FF
0734:6DD9 F8                  CLC
0734:6DDA F9                  STC
0734:6DDB 43                  INC BX
0734:6DDC 8BFF                MOV DI, DI
0734:6DDE 2297F073            AND DL, [BX+73F0]
0734:6DE2 3CFF                CMP AL, FF
0734:6DE4 25DBF0              AND AX, F0DB
0734:6DE7 7680                JBE	6D69
0734:6DE9 FF25                JMP WORD PTR [DI]
0734:6DEB 43                  INC BX
0734:6DEC F0                  LOCK (unused)
0734:6DED 75E8                JNE	6DD7
0734:6DEF FF24                JMP WORD PTR [SI]
0734:6DF1 F7F0                DIV AX
0734:6DF3 759C                JNE	6D91
0734:6DF5 FF25                JMP WORD PTR [DI]
0734:6DF7 8FF0                POP AX
0734:6DF9 7634                JBE	6E2F
0734:6DFB FF23                JMP WORD PTR [BP+DI]
0734:6DFD 2F                  DAS
0734:6DFE F0                  LOCK (unused)
0734:6DFF 73D4                JNB	6DD5
0734:6E01 FF21                JMP WORD PTR [BX+DI]
0734:6E03 FFF0                PUSH AX
0734:6E05 72A4                JB	6DAB
0734:6E07 FF22                JMP WORD PTR [BP+SI]
0734:6E09 4B                  DEC BX
0734:6E0A F0                  LOCK (unused)
0734:6E0B 72F0                JB	6DFD
0734:6E0D FF23                JMP WORD PTR [BP+DI]
0734:6E0F 7BF0                JNP	6E01
0734:6E11 7420                JE	6E33
0734:6E13 FF22                JMP WORD PTR [BP+SI]
0734:6E15 4B                  DEC BX
0734:6E16 F0                  LOCK (unused)
0734:6E17 72F0                JB	6E09
0734:6E19 FF22                JMP WORD PTR [BP+SI]
0734:6E1B E3F0                JCXZ	6E0D
0734:6E1D 7388                JNB	6DA7
0734:6E1F FF25                JMP WORD PTR [DI]
0734:6E21 8FF0                POP AX
0734:6E23 7634                JBE	6E59
0734:6E25 FF24                JMP WORD PTR [SI]
0734:6E27 F7F0                DIV AX
0734:6E29 759C                JNE	6DC7
0734:6E2B FF25                JMP WORD PTR [DI]
0734:6E2D 43                  INC BX
0734:6E2E F0                  LOCK (unused)
0734:6E2F 75E8                JNE	6E19
0734:6E31 FF25                JMP WORD PTR [DI]
0734:6E33 DBF0                FCOMI ST(0)
0734:6E35 7680                JBE	6DB7
0734:6E37 FF21                JMP WORD PTR [BX+DI]
0734:6E39 B3F0                MOV BL, F0
0734:6E3B 7258                JB	6E95
0734:6E3D FF24                JMP WORD PTR [SI]
0734:6E3F AB                  STOSW
0734:6E40 F0                  LOCK (unused)
0734:6E41 7550                JNE	6E93
0734:6E43 FF24                JMP WORD PTR [SI]
0734:6E45 13F0                ADC SI, AX
0734:6E47 74B8                JE	6E01
0734:6E49 FF22                JMP WORD PTR [BP+SI]
0734:6E4B E3F0                JCXZ	6E3D
0734:6E4D 7388                JNB	6DD7
0734:6E4F FF21                JMP WORD PTR [BX+DI]
0734:6E51 67                  DB 67
0734:6E52 F0                  LOCK (unused)
0734:6E53 720C                JB	6E61
0734:6E55 FF24                JMP WORD PTR [SI]
0734:6E57 5F                  POP DI
0734:6E58 F0                  LOCK (unused)
0734:6E59 7504                JNE	6E5F
0734:6E5B FF24                JMP WORD PTR [SI]
0734:6E5D 5F                  POP DI
0734:6E5E F0                  LOCK (unused)
0734:6E5F 7504                JNE	6E65
0734:6E61 FF24                JMP WORD PTR [SI]
0734:6E63 AB                  STOSW
0734:6E64 F0                  LOCK (unused)
0734:6E65 7550                JNE	6EB7
0734:6E67 FF23                JMP WORD PTR [BP+DI]
0734:6E69 C7F0746C            MOV AX, 6C74
0734:6E6D FF22                JMP WORD PTR [BP+SI]
0734:6E6F 97                  XCHG AX, DI
0734:6E70 F0                  LOCK (unused)
0734:6E71 733C                JNB	6EAF
0734:6E73 FF45EB              INC WORD PTR [DI-EB]
0734:6E76 45                  INC BP
0734:6E77 38B378B3            CMP [BP+DI+B378], DH
0734:6E7B AA                  STOSB
0734:6E7C 45                  INC BP
0734:6E7D 85FF                TEST DI, DI
0734:6E7F 2F                  DAS
0734:6E80 34FF                XOR AL, FF
0734:6E82 EF                  OUT DX, AX
0734:6E83 4C                  DEC SP
0734:6E84 A0FF3A              MOV AL, [3AFF]
0734:6E87 83FFF0              CMP DI, -10
0734:6E8A 80DFFF              SSB BH, FF
0734:6E8D 3A37                CMP DH, [BX]
0734:6E8F FFF0                PUSH AX
0734:6E91 8177FFF081          XOR WORD PTR [BX-FF], 81F0
0734:6E96 C3                  RET
0734:6E97 FF29                JMP FAR [BX+DI]
0734:6E99 E3FF                JCXZ	6E9A
0734:6E9B EE                  OUT DX, AL
0734:6E9C 3BACFFEF            CMP BP, [SI+EFFF]
0734:6EA0 BC55FF              MOV SP, FF55
0734:6EA3 EF                  OUT DX, AX
0734:6EA4 BCA1FF              MOV SP, FFA1
0734:6EA7 EF                  OUT DX, AX
0734:6EA8 BEC1FF              MOV SI, FFC1
0734:6EAB EF                  OUT DX, AX
0734:6EAC BD91FF              MOV BP, FF91
0734:6EAF F5                  CMC
0734:6EB0 F0                  LOCK (unused)
0734:6EB1 3310                XOR DX, [BX+SI]
0734:6EB3 FF                  DB FF
0734:6EB4 F8                  CLC
0734:6EB5 F9                  STC
0734:6EB6 335CFF              XOR BX, [SI-FF]
0734:6EB9 43                  INC BX
0734:6EBA 3F                  AAS
0734:6EBB FF                  DB FF
0734:6EBC F8                  CLC
0734:6EBD F9                  STC
0734:6EBE 43                  INC BX
0734:6EBF 3F                  AAS
0734:6EC0 FF42F3              INC [BP+SI-F3]
0734:6EC3 FF42F3              INC [BP+SI-F3]
0734:6EC6 FF                  DB FF
0734:6EC7 F8                  CLC
0734:6EC8 F9                  STC
0734:6EC9 42                  INC DX
0734:6ECA F3                  REPE (unused)
0734:6ECB FF                  DB FF
0734:6ECC F8                  CLC
0734:6ECD F9                  STC
0734:6ECE 42                  INC DX
0734:6ECF F3                  REPE (unused)
0734:6ED0 FF42A7              INC [BP+SI-A7]
0734:6ED3 FF42A7              INC [BP+SI-A7]
0734:6ED6 FF                  DB FF
0734:6ED7 F8                  CLC
0734:6ED8 F9                  STC
0734:6ED9 42                  INC DX
0734:6EDA A7                  CMPSW
0734:6EDB FF                  DB FF
0734:6EDC F8                  CLC
0734:6EDD F9                  STC
0734:6EDE 42                  INC DX
0734:6EDF A7                  CMPSW
0734:6EE0 FFEF                JMP DI
0734:6EE2 4C                  DEC SP
0734:6EE3 EC                  IN AL, DX
0734:6EE4 FFEF                JMP DI
0734:6EE6 BF0DFF              MOV DI, FF0D
0734:6EE9 2F                  DAS
0734:6EEA AC                  LODSB
0734:6EEB 304528              XOR [DI+28], AL
0734:6EEE 64                  SEG FS (unused)
0734:6EEF 28FD                SUB CH, BH
0734:6EF1 29BA2A53            SUB [BP+SI+532A], DI
0734:6EF5 346E                XOR AL, 6E
0734:6EF7 26                  SEG ES (unused)
0734:6EF8 CF                  IRET
0734:6EF9 C0                  DB C0
0734:6EFA 62                  DB 62
0734:6EFB F0                  LOCK (unused)
0734:6EFC 55                  PUSH BP
0734:6EFD C6F056              MOV AL, 56
0734:6F00 5F                  POP DI
0734:6F01 F0                  LOCK (unused)
0734:6F02 56                  PUSH DH
0734:6F03 14F0                ADC AL, F0
0734:6F05 56                  PUSH DH
0734:6F06 AD                  LODSW
0734:6F07 F0                  LOCK (unused)
0734:6F08 56                  PUSH DH
0734:6F09 FA                  CLI
0734:6F0A F0                  LOCK (unused)
0734:6F0B 57                  PUSH DI
0734:6F0C 93                  XCHG AX, BX
0734:6F0D FF30                PUSH WORD PTR [BX+SI]
0734:6F0F B0FF                MOV AL, FF
0734:6F11 F8                  CLC
0734:6F12 F9                  STC
0734:6F13 30FC                XOR AH, BH
0734:6F15 FFF0                PUSH AX
0734:6F17 8498F084            TEST [BX+SI+84F0], BL
0734:6F1B E5FF                IN AX, FF
0734:6F1D F0                  LOCK (unused)
0734:6F1E 82                  DB 82
0734:6F1F 38F0                CMP AL, DH
0734:6F21 82                  DB 82
0734:6F22 85FF                TEST DI, DI
0734:6F24 BA80FF              MOV DX, FF80
0734:6F27 F4                  HLT
0734:6F28 BA34FF              MOV DX, FF34
0734:6F2B 2AC0                SUB AL, AL
0734:6F2D FFF4                PUSH SP
0734:6F2F B9E8FF              MOV CX, FFE8
0734:6F32 F4                  HLT
0734:6F33 AB                  STOSW
0734:6F34 4F                  DEC DI
0734:6F35 0391F4AD            ADD DX, [BX+DI+ADF4]
0734:6F39 AE                  SCASB
0734:6F3A F4                  HLT
0734:6F3B 026402              ADD AH, [SI+02]
0734:6F3E FD                  STD
0734:6F3F FF                  DB FF
0734:6F40 FB                  STI
0734:6F41 44                  INC SP
0734:6F42 7A46                JP	6F8A
0734:6F44 DB                  DB DB
0734:6F45 FFEE                JMP SI
0734:6F47 20A8FFF8            AND [BX+SI+F8FF], CH
0734:6F4B F9                  STC
0734:6F4C EE                  OUT DX, AL
0734:6F4D 20F4                AND AH, DH
0734:6F4F FFC2                INC DX
0734:6F51 F4                  HLT
0734:6F52 1A31                SSB DH, [BX+DI]
0734:6F54 097702              OR [BX+02], SI
0734:6F57 54                  PUSH AH
0734:6F58 07                  POP ES
0734:6F59 16                  PUSH SS
0734:6F5A F0                  LOCK (unused)
0734:6F5B 7C10                JL	6F6D
0734:6F5D F0                  LOCK (unused)
0734:6F5E 7E71                JLE	6FD1
0734:6F60 FF                  DB FF
0734:6F61 F8                  CLC
0734:6F62 F9                  STC
0734:6F63 EE                  OUT DX, AL
0734:6F64 1CCC                SSB AL, CC
0734:6F66 FF                  DB FF
0734:6F67 F8                  CLC
0734:6F68 F9                  STC
0734:6F69 2E                  SEG CS (unused)
0734:6F6A 9C                  PUSHF
0734:6F6B FF17                CALL WORD PTR [BX]
0734:6F6D D1                  DB D1
0734:6F6E B410                MOV AH, 10
0734:6F70 EE                  OUT DX, AL
0734:6F71 1F                  POP DS
0734:6F72 AE                  SCASB
0734:6F73 EE                  OUT DX, AL
0734:6F74 1F                  POP DS
0734:6F75 150469              ADC AX, 6904
0734:6F78 06                  PUSH ES
0734:6F79 CA092B              RETF 2B09
0734:6F7C 0208                ADD CL, [BX+SI]
0734:6F7E F0                  LOCK (unused)
0734:6F7F 7BC4                JNP	6F45
0734:6F81 F0                  LOCK (unused)
0734:6F82 7E25                JLE	6FA9
0734:6F84 FF                  DB FF
0734:6F85 F8                  CLC
0734:6F86 F9                  STC
0734:6F87 EE                  OUT DX, AL
0734:6F88 1C80                SSB AL, 80
0734:6F8A FF                  DB FF
0734:6F8B F8                  CLC
0734:6F8C F9                  STC
0734:6F8D 2E                  SEG CS (unused)
0734:6F8E 50                  PUSH AL
0734:6F8F FFC5                INC BP
0734:6F91 EF                  OUT DX, AX
0734:6F92 C8                  DB C8
0734:6F93 50                  PUSH AL
0734:6F94 EE                  OUT DX, AL
0734:6F95 CAB1FF              RETF FFB1
0734:6F98 C63BC8              MOV BYTE PTR [BP+DI], C8
0734:6F9B 9C                  PUSHF
0734:6F9C EE                  OUT DX, AL
0734:6F9D CAFDFF              RETF FFFD
0734:6FA0 C557C7              LDS DX, [BX-C7]
0734:6FA3 B8EECA              MOV AX, CAEE
0734:6FA6 19FF                SSB DI, DI
0734:6FA8 C5A3C804            LDS SP, [BP+DI+04C8]
0734:6FAC EE                  OUT DX, AL
0734:6FAD CA65FF              RETF FF65
0734:6FB0 F2                  REPNE (unused)
0734:6FB1 5A                  POP DX
0734:6FB2 D8FF                FDIVR ST, ST(7)
0734:6FB4 F5                  CMC
0734:6FB5 F3                  REPE (unused)
0734:6FB6 F5                  CMC
0734:6FB7 F3                  REPE (unused)
0734:6FB8 F5                  CMC
0734:6FB9 F2                  REPNE (unused)
0734:6FBA 39E4                CMP SP, SP
0734:6FBC 39D2                CMP DX, DX
0734:6FBE FF                  DB FF
0734:6FBF F8                  CLC
0734:6FC0 F9                  STC
0734:6FC1 3C44                CMP AL, 44
0734:6FC3 3C32                CMP AL, 32
0734:6FC5 FFF2                PUSH DX
0734:6FC7 7E78                JLE	7041
0734:6FC9 FF2EE8FF            JMP FAR [FFE8]
0734:6FCD C687C8E8EE          MOV BYTE PTR [BX+E8C8], EE
0734:6FD2 CB                  RETF
0734:6FD3 49                  DEC CX
0734:6FD4 FFC7                INC DI
0734:6FD6 6B                  DB 6B
0734:6FD7 C9                  DB C9
0734:6FD8 CC                  INT 3
0734:6FD9 EE                  OUT DX, AL
0734:6FDA CC                  INT 3
0734:6FDB 2DFF0B              SUB AX, 0BFF
0734:6FDE 880D                MOV [DI], CL
0734:6FE0 E9104A              JMP B9F0
0734:6FE3 12AB1DF4            ADC CH, [BP+DI+F41D]
0734:6FE7 1E                  PUSH DS
0734:6FE8 41                  INC CX
0734:6FE9 FFF6                PUSH SI
0734:6FEB 26F62EF636          IMUL BYTE PTR ES: [36F6]
0734:6FF0 F63EF664            IDIV BYTE PTR [64F6]
0734:6FF4 F665C6              MUL BYTE PTR [DI-C6]
0734:6FF7 87C8                XCHG SP, AX
0734:6FF9 E8EECB              CALL 3BE7
0734:6FFC 49                  DEC CX
0734:6FFD FFC6                INC SI
0734:6FFF D3C9                ROR CX, CL
0734:7001 34EE                XOR AL, EE
0734:7003 CB                  RETF
0734:7004 95                  XCHG AX, BP
0734:7005 FFF4                PUSH SP
0734:7007 AB                  STOSW
0734:7008 E708                OUT 08, AX
0734:700A 51                  PUSH CX
0734:700B F4                  HLT
0734:700C AE                  SCASB
0734:700D 46                  INC SI
0734:700E F4                  HLT
0734:700F 07                  POP ES
0734:7010 2407                AND AL, 07
0734:7012 BDFF33              MOV BP, 33FF
0734:7015 A8FF                TEST AL, FF
0734:7017 F8                  CLC
0734:7018 F9                  STC
0734:7019 33F4                XOR SI, SP
0734:701B FFF0                PUSH AX
0734:701D 790F                JNS	702E
0734:701F FFF0                PUSH AX
0734:7021 77DF                JA	7002
0734:7023 FFF0                PUSH AX
0734:7025 7793                JA	6FBA
0734:7027 FFF0                PUSH AX
0734:7029 78C3                JS	6FEE
0734:702B FFF0                PUSH AX
0734:702D 7793                JA	6FC2
0734:702F FFF0                PUSH AX
0734:7031 782B                JS	705E
0734:7033 FFF0                PUSH AX
0734:7035 7B6F                JNP	70A6
0734:7037 FFF0                PUSH AX
0734:7039 7AD7                JP	7012
0734:703B FFF0                PUSH AX
0734:703D 7A8B                JP	6FCA
0734:703F FFF0                PUSH AX
0734:7041 7B23                JNP	7066
0734:7043 FFF0                PUSH AX
0734:7045 78C3                JS	700A
0734:7047 FFF0                PUSH AX
0734:7049 7793                JA	6FDE
0734:704B FFF0                PUSH AX
0734:704D 77DF                JA	702E
0734:704F FFF0                PUSH AX
0734:7051 790F                JNS	7062
0734:7053 FFF0                PUSH AX
0734:7055 77DF                JA	7036
0734:7057 FFF0                PUSH AX
0734:7059 7877                JS	70D2
0734:705B FFF0                PUSH AX
0734:705D 7B23                JNP	7082
0734:705F FFF0                PUSH AX
0734:7061 7A8B                JP	6FEE
0734:7063 FFF0                PUSH AX
0734:7065 7AD7                JP	703E
0734:7067 FFF0                PUSH AX
0734:7069 7B6F                JNP	70DA
0734:706B FFF0                PUSH AX
0734:706D 7747                JA	70B6
0734:706F FFF0                PUSH AX
0734:7071 7A3F                JP	70B2
0734:7073 FFF0                PUSH AX
0734:7075 79A7                JNS	701E
0734:7077 FFF0                PUSH AX
0734:7079 7877                JS	70F2
0734:707B FFF0                PUSH AX
0734:707D 76FB                JBE	707A
0734:707F FFF0                PUSH AX
0734:7081 79F3                JNS	7076
0734:7083 FFF0                PUSH AX
0734:7085 79F3                JNS	707A
0734:7087 FFF0                PUSH AX
0734:7089 7A3F                JP	70CA
0734:708B FFF0                PUSH AX
0734:708D 795B                JNS	70EA
0734:708F FFF0                PUSH AX
0734:7091 782B                JS	70BE
0734:7093 FFEF                JMP DI
0734:7095 BBBDFF              MOV BX, FFBD
0734:7098 EF                  OUT DX, AX
0734:7099 BC09FF              MOV SP, FF09
0734:709C F0                  LOCK (unused)
0734:709D 7CEC                JL	708B
0734:709F F0                  LOCK (unused)
0734:70A0 7D39                JNL	70DB
0734:70A2 FFF0                PUSH AX
0734:70A4 7F4C                JG	70F2
0734:70A6 F0                  LOCK (unused)
0734:70A7 7F99                JG	7042
0734:70A9 FFEF                JMP DI
0734:70AB BE28FF              MOV SI, FF28
0734:70AE EF                  OUT DX, AX
0734:70AF BCF8FF              MOV SP, FFF8
0734:70B2 49                  DEC CX
0734:70B3 EC                  IN AL, DX
0734:70B4 FF4B1C              DEC WORD PTR [BP+DI+1C]
0734:70B7 FF4A84              DEC WORD PTR [BP+SI-84]
0734:70BA FF32                PUSH WORD PTR [BP+SI]
0734:70BC 78FF                JS	70BD
0734:70BE F8                  CLC
0734:70BF F9                  STC
0734:70C0 32C4                XOR AL, AH
0734:70C2 FFEF                JMP DI
0734:70C4 BE75FF              MOV SI, FF75
0734:70C7 F4                  HLT
0734:70C8 AC                  LODSB
0734:70C9 7F0D                JG	70D8
0734:70CB 11F4                ADC SP, SI
0734:70CD AE                  SCASB
0734:70CE DEF4                FDIVRP ST(4), ST
0734:70D0 0BE4                OR SP, SP
0734:70D2 0C7D                OR AL, 7D
0734:70D4 FF31                PUSH WORD PTR [BX+DI]
0734:70D6 E1B9                LOOPE	7091
0734:70D8 42                  INC DX
0734:70D9 27                  BAA
0734:70DA 3427                XOR AL, 27
0734:70DC 35FFEF              XOR AX, EFFF
0734:70DF BF59FF              MOV DI, FF59
0734:70E2 EF                  OUT DX, AX
0734:70E3 BFA5FF              MOV DI, FFA5
0734:70E6 2E                  SEG CS (unused)
0734:70E7 04FF                ADD AL, FF
0734:70E9 F1                  DB F1
0734:70EA 4E                  DEC SI
0734:70EB AC                  LODSB
0734:70EC FFF2                PUSH DX
0734:70EE 5A                  POP DX
0734:70EF 40                  INC AX
0734:70F0 FFF4                PUSH SP
0734:70F2 F1                  DB F1
0734:70F3 8504                TEST [SI], AX
0734:70F5 FF2A                JMP FAR [BP+SI]
0734:70F7 FE2A                JMP FAR [BP+SI]
0734:70F9 FFF4                PUSH SP
0734:70FB 27                  BAA
0734:70FC CC                  INT 3
0734:70FD F4                  HLT
0734:70FE 27                  BAA
0734:70FF CDFF                INT FF
0734:7101 3F                  AAS
0734:7102 D4FF                AAM FF
0734:7104 3F                  AAS
0734:7105 D4FF                AAM FF
0734:7107 F4                  HLT
0734:7108 AC                  LODSB
0734:7109 CB                  RETF
0734:710A 0F                  DB 0F
0734:710B 71F4                JNO	7101
0734:710D AF                  SCASW
0734:710E 2AF4                SUB DH, AH
0734:7110 0E                  PUSH CS
0734:7111 44                  INC SP
0734:7112 0E                  PUSH CS
0734:7113 DD                  DB DD
0734:7114 FF00                INC [BX+SI]
0734:7116 0000                ADD [BX+SI], AL
0734:7118 0000                ADD [BX+SI], AL
0734:711A 0000                ADD [BX+SI], AL
0734:711C 40                  INC AX
0734:711D 0000                ADD [BX+SI], AL
0734:711F 0000                ADD [BX+SI], AL
0734:7121 0000                ADD [BX+SI], AL
0734:7123 0000                ADD [BX+SI], AL
0734:7125 0000                ADD [BX+SI], AL
0734:7127 0000                ADD [BX+SI], AL
0734:7129 0000                ADD [BX+SI], AL
0734:712B 0000                ADD [BX+SI], AL
0734:712D 0000                ADD [BX+SI], AL
0734:712F 0000                ADD [BX+SI], AL
0734:7131 0000                ADD [BX+SI], AL
0734:7133 0000                ADD [BX+SI], AL
0734:7135 0000                ADD [BX+SI], AL
0734:7137 0000                ADD [BX+SI], AL
0734:7139 0000                ADD [BX+SI], AL
0734:713B 0000                ADD [BX+SI], AL
0734:713D 0000                ADD [BX+SI], AL
0734:713F 0000                ADD [BX+SI], AL
0734:7141 0000                ADD [BX+SI], AL
0734:7143 0000                ADD [BX+SI], AL
0734:7145 0000                ADD [BX+SI], AL
0734:7147 0100                ADD [BX+SI], AX
0734:7149 0A00                OR AL, [BX+SI]
0734:714B 0020                ADD [BX+SI], AH
0734:714D 0000                ADD [BX+SI], AL
0734:714F 006855              ADD [BX+SI+55], CH
0734:7152 68                  DB 68
0734:7153 55                  PUSH BP
0734:7154 0000                ADD [BX+SI], AL
0734:7156 0000                ADD [BX+SI], AL
0734:7158 0000                ADD [BX+SI], AL
0734:715A 0000                ADD [BX+SI], AL
0734:715C 0000                ADD [BX+SI], AL
0734:715E 0000                ADD [BX+SI], AL
0734:7160 0000                ADD [BX+SI], AL
0734:7162 0000                ADD [BX+SI], AL
0734:7164 0000                ADD [BX+SI], AL
0734:7166 0000                ADD [BX+SI], AL
0734:7168 0000                ADD [BX+SI], AL
0734:716A 0000                ADD [BX+SI], AL
0734:716C 0000                ADD [BX+SI], AL
0734:716E 5D                  POP BP
0734:716F 0100                ADD [BX+SI], AX
0734:7171 0000                ADD [BX+SI], AL
0734:7173 0000                ADD [BX+SI], AL
0734:7175 0000                ADD [BX+SI], AL
0734:7177 0000                ADD [BX+SI], AL
0734:7179 0000                ADD [BX+SI], AL
0734:717B 0000                ADD [BX+SI], AL
0734:717D 0000                ADD [BX+SI], AL
0734:717F 0000                ADD [BX+SI], AL
0734:7181 0000                ADD [BX+SI], AL
0734:7183 0000                ADD [BX+SI], AL
0734:7185 0000                ADD [BX+SI], AL
0734:7187 0000                ADD [BX+SI], AL
0734:7189 0000                ADD [BX+SI], AL
0734:718B 0000                ADD [BX+SI], AL
0734:718D 0000                ADD [BX+SI], AL
0734:718F 0000                ADD [BX+SI], AL
0734:7191 0000                ADD [BX+SI], AL
0734:7193 005C00              ADD [SI+00], BL
0734:7196 0000                ADD [BX+SI], AL
0734:7198 6C                  DB 6C
0734:7199 0000                ADD [BX+SI], AL
0734:719B 0000                ADD [BX+SI], AL
0734:719D 0000                ADD [BX+SI], AL
0734:719F 0000                ADD [BX+SI], AL
0734:71A1 0000                ADD [BX+SI], AL
0734:71A3 0000                ADD [BX+SI], AL
0734:71A5 0000                ADD [BX+SI], AL
0734:71A7 0000                ADD [BX+SI], AL
0734:71A9 0000                ADD [BX+SI], AL
0734:71AB 0000                ADD [BX+SI], AL
0734:71AD 0000                ADD [BX+SI], AL
0734:71AF 0000                ADD [BX+SI], AL
0734:71B1 0000                ADD [BX+SI], AL
0734:71B3 0000                ADD [BX+SI], AL
0734:71B5 0000                ADD [BX+SI], AL
0734:71B7 0000                ADD [BX+SI], AL
0734:71B9 0000                ADD [BX+SI], AL
0734:71BB 0000                ADD [BX+SI], AL
0734:71BD 0000                ADD [BX+SI], AL
0734:71BF 0000                ADD [BX+SI], AL
0734:71C1 0000                ADD [BX+SI], AL
0734:71C3 0000                ADD [BX+SI], AL
0734:71C5 0000                ADD [BX+SI], AL
0734:71C7 0000                ADD [BX+SI], AL
0734:71C9 0000                ADD [BX+SI], AL
0734:71CB 0000                ADD [BX+SI], AL
0734:71CD 0000                ADD [BX+SI], AL
0734:71CF 0000                ADD [BX+SI], AL
0734:71D1 0000                ADD [BX+SI], AL
0734:71D3 0000                ADD [BX+SI], AL
0734:71D5 0000                ADD [BX+SI], AL
0734:71D7 0000                ADD [BX+SI], AL
0734:71D9 0000                ADD [BX+SI], AL
0734:71DB 0000                ADD [BX+SI], AL
0734:71DD 0000                ADD [BX+SI], AL
0734:71DF 0000                ADD [BX+SI], AL
0734:71E1 0000                ADD [BX+SI], AL
0734:71E3 0000                ADD [BX+SI], AL
0734:71E5 0000                ADD [BX+SI], AL
0734:71E7 0000                ADD [BX+SI], AL
0734:71E9 0000                ADD [BX+SI], AL
0734:71EB 0000                ADD [BX+SI], AL
0734:71ED 0000                ADD [BX+SI], AL
0734:71EF 0000                ADD [BX+SI], AL
0734:71F1 0000                ADD [BX+SI], AL
0734:71F3 0000                ADD [BX+SI], AL
0734:71F5 0000                ADD [BX+SI], AL
0734:71F7 0000                ADD [BX+SI], AL
0734:71F9 0000                ADD [BX+SI], AL
0734:71FB 0000                ADD [BX+SI], AL
0734:71FD 0000                ADD [BX+SI], AL
0734:71FF 0000                ADD [BX+SI], AL
0734:7201 0000                ADD [BX+SI], AL
0734:7203 0000                ADD [BX+SI], AL
0734:7205 0000                ADD [BX+SI], AL
0734:7207 00FF                ADD BH, BH
0734:7209 000D                ADD [DI], CL
0734:720B 008BE0B4            ADD [BP+DI+B4E0], CL
0734:720F 4A                  DEC DX
0734:7210 CD21                INT 21
0734:7212 C606675630          MOV BYTE PTR [5667], 30
0734:7217 803ED05400          CMP BYTE PTR [54D0], 00
0734:721C 7403                JE	7221
0734:721E E884BB              CALL 2DA2
0734:7221 E988AB              JMP 1DA9
0734:7224 44                  INC SP
0734:7225 45                  INC BP
0734:7226 42                  INC DX
0734:7227 55                  PUSH BP
0734:7228 47                  INC DI
0734:7229 207665              AND [BP+65], DH
0734:722C 7273                JB	72A1
0734:722E 69                  DB 69
0734:722F 6F                  DB 6F
0734:7230 6E                  DB 6E
0734:7231 2031                AND [BX+DI], DH
0734:7233 2E3235              XOR DH, CS: [DI]
0734:7236 2E2020              AND CS: [BX+SI], AH
0734:7239 44                  INC SP
0734:723A 65                  DB 65
0734:723B 62                  DB 62
0734:723C 7567                JNE	72A5
0734:723E 67                  DB 67
0734:723F 65                  DB 65
0734:7240 722E                JB	7270
0734:7242 0D0A0D              OR AX, 0D0A
0734:7245 0A5573              OR DL, [DI+73]
0734:7248 61                  DB 61
0734:7249 67                  DB 67
0734:724A 65                  DB 65
0734:724B 3A20                CMP AH, [BX+SI]
0734:724D 44                  INC SP
0734:724E 45                  INC BP
0734:724F 42                  INC DX
0734:7250 55                  PUSH BP
0734:7251 47                  INC DI
0734:7252 205B5B              AND [BP+DI+5B], BL
0734:7255 64                  SEG FS (unused)
0734:7256 7269                JB	72C1
0734:7258 7665                JBE	72BF
0734:725A 3A5D5B              CMP BL, [DI+5B]
0734:725D 7061                JO	72C0
0734:725F 7468                JE	72C9
0734:7261 5D                  POP BP
0734:7262 7072                JO	72D6
0734:7264 6F                  DB 6F
0734:7265 67                  DB 67
0734:7266 6E                  DB 6E
0734:7267 61                  DB 61
0734:7268 6D                  DB 6D
0734:7269 65                  DB 65
0734:726A 205B61              AND [BP+DI+61], BL
0734:726D 7267                JB	72D6
0734:726F 6C                  DB 6C
0734:7270 69                  DB 69
0734:7271 7374                JNB	72E7
0734:7273 5D                  POP BP
0734:7274 5D                  POP BP
0734:7275 0D0A0D              OR AX, 0D0A
0734:7278 0A20                OR AH, [BX+SI]
0734:727A 207072              AND [BX+SI+72], DH
0734:727D 6F                  DB 6F
0734:727E 67                  DB 67
0734:727F 6E                  DB 6E
0734:7280 61                  DB 61
0734:7281 6D                  DB 6D
0734:7282 65                  DB 65
0734:7283 2028                AND [BX+SI], CH
0734:7285 65                  DB 65
0734:7286 7865                JS	72ED
0734:7288 63                  DB 63
0734:7289 7574                JNE	72FF
0734:728B 61                  DB 61
0734:728C 62                  DB 62
0734:728D 6C                  DB 6C
0734:728E 65                  DB 65
0734:728F 2920                SUB [BX+SI], SP
0734:7291 66                  DB 66
0734:7292 69                  DB 69
0734:7293 6C                  DB 6C
0734:7294 65                  DB 65
0734:7295 20746F              AND [SI+6F], DH
0734:7298 206465              AND [SI+65], AH
0734:729B 62                  DB 62
0734:729C 7567                JNE	7305
0734:729E 206F72              AND [BX+72], CH
0734:72A1 206578              AND [DI+78], AH
0734:72A4 61                  DB 61
0734:72A5 6D                  DB 6D
0734:72A6 69                  DB 69
0734:72A7 6E                  DB 6E
0734:72A8 65                  DB 65
0734:72A9 0D0A20              OR AX, 200A
0734:72AC 206172              AND [BX+DI+72], AH
0734:72AF 67                  DB 67
0734:72B0 6C                  DB 6C
0734:72B1 69                  DB 69
0734:72B2 7374                JNB	7328
0734:72B4 207061              AND [BX+SI+61], DH
0734:72B7 7261                JB	731A
0734:72B9 6D                  DB 6D
0734:72BA 65                  DB 65
0734:72BB 7465                JE	7322
0734:72BD 7273                JB	7332
0734:72BF 206769              AND [BX+69], AH
0734:72C2 7665                JBE	7329
0734:72C4 6E                  DB 6E
0734:72C5 20746F              AND [SI+6F], DH
0734:72C8 207072              AND [BX+SI+72], DH
0734:72CB 6F                  DB 6F
0734:72CC 67                  DB 67
0734:72CD 7261                JB	7330
0734:72CF 6D                  DB 6D
0734:72D0 0D0A0D              OR AX, 0D0A
0734:72D3 0A466F              OR AL, [BP+6F]
0734:72D6 7220                JB	72F8
0734:72D8 61                  DB 61
0734:72D9 206C69              AND [SI+69], CH
0734:72DC 7374                JNB	7352
0734:72DE 206F66              AND [BX+66], CH
0734:72E1 206465              AND [SI+65], AH
0734:72E4 62                  DB 62
0734:72E5 7567                JNE	734E
0734:72E7 67                  DB 67
0734:72E8 69                  DB 69
0734:72E9 6E                  DB 6E
0734:72EA 67                  DB 67
0734:72EB 20636F              AND [BP+DI+6F], AH
0734:72EE 6D                  DB 6D
0734:72EF 6D                  DB 6D
0734:72F0 61                  DB 61
0734:72F1 6E                  DB 6E
0734:72F2 64                  SEG FS (unused)
0734:72F3 732C                JNB	7321
0734:72F5 207275              AND [BP+SI+75], DH
0734:72F8 6E                  DB 6E
0734:72F9 204445              AND [SI+45], AL
0734:72FC 42                  INC DX
0734:72FD 55                  PUSH BP
0734:72FE 47                  INC DI
0734:72FF 20616E              AND [BX+DI+6E], AH
0734:7302 64207479            AND FS: [SI+79], DH
0734:7306 7065                JO	736D
0734:7308 203F                AND [BX], BH
0734:730A 206174              AND [BX+DI+74], AH
0734:730D 207468              AND [SI+68], DH
0734:7310 65                  DB 65
0734:7311 207072              AND [BX+SI+72], DH
0734:7314 6F                  DB 6F
0734:7315 6D                  DB 6D
0734:7316 7074                JO	738C
0734:7318 2E                  SEG CS (unused)
0734:7319 0D0A24              OR AX, 240A
0734:731C 49                  DEC CX
0734:731D 6E                  DB 6E
0734:731E 7661                JBE	7381
0734:7320 6C                  DB 6C
0734:7321 69                  DB 69
0734:7322 64207377            AND FS: [BP+DI+77], DH
0734:7326 69                  DB 69
0734:7327 7463                JE	738C
0734:7329 68                  DB 68
0734:732A 202D                AND [DI], CH
0734:732C 20780D              AND [BX+SI+0D], BH
0734:732F 0A24                OR AH, [SI]
0734:7331 FC                  CLD
0734:7332 8CC8                MOV AL, SS
0734:7334 A3F054              MOV [54F0], AX
0734:7337 A3F454              MOV [54F4], AX
0734:733A A3F854              MOV [54F8], AX
0734:733D A37E54              MOV [547E], AX
0734:7340 B80044              MOV AX, 4400
0734:7343 33DB                XOR BX, BX
0734:7345 CD21                INT 21
0734:7347 720D                JB	7356
0734:7349 80E281              AND DL, 81
0734:734C 80FA81              CMP DL, 81
0734:734F 7505                JNE	7356
0734:7351 C606A75400          MOV BYTE PTR [54A7], 00
0734:7356 B80044              MOV AX, 4400
0734:7359 BB0100              MOV BX, 0001
0734:735C CD21                INT 21
0734:735E 7204                JB	7364
0734:7360 8816A854            MOV [54A8], DL
0734:7364 B80030              MOV AX, 3000
0734:7367 CD21                INT 21
0734:7369 86C4                XCHG DL, AH
0734:736B 3D1F03              CMP AX, 031F
0734:736E 720D                JB	737D
0734:7370 FE06D154            INC BYTE PTR [54D1]
0734:7374 3D0A07              CMP AX, 070A
0734:7377 7204                JB	737D
0734:7379 FE06D154            INC BYTE PTR [54D1]
0734:737D 54                  PUSH AH
0734:737E 58                  POP AX
0734:737F 3BC4                CMP AX, SP
0734:7381 757D                JNE	7400
0734:7383 C606A15402          MOV BYTE PTR [54A1], 02
0734:7388 9C                  PUSHF
0734:7389 58                  POP AX
0734:738A 0D00F0              OR AX, F000
0734:738D 50                  PUSH AL
0734:738E 9D                  POPF
0734:738F 9C                  PUSHF
0734:7390 58                  POP AX
0734:7391 F6C4F0              TEST AH, F0
0734:7394 746A                JE	7400
0734:7396 FE06A154            INC BYTE PTR [54A1]
0734:739A 8BDC                MOV BX, SP
0734:739C 83E4FC              AND SP, -04
0734:739F 66                  DB 66
0734:73A0 9C                  PUSHF
0734:73A1 66                  DB 66
0734:73A2 58                  POP AX
0734:73A3 66                  DB 66
0734:73A4 8BC8                MOV CX, AX
0734:73A6 66                  DB 66
0734:73A7 350000              XOR AX, 0000
0734:73AA 0400                ADD AL, 00
0734:73AC 66                  DB 66
0734:73AD 50                  PUSH AL
0734:73AE 66                  DB 66
0734:73AF 9D                  POPF
0734:73B0 66                  DB 66
0734:73B1 9C                  PUSHF
0734:73B2 66                  DB 66
0734:73B3 58                  POP AX
0734:73B4 66                  DB 66
0734:73B5 3BC1                CMP AX, CX
0734:73B7 7441                JE	73FA
0734:73B9 FE06A154            INC [54A1]
0734:73BD 66                  DB 66
0734:73BE 8BC1                MOV AX, CX
0734:73C0 66                  DB 66
0734:73C1 350000              XOR AX, 0000
0734:73C4 2000                AND [BX+SI], AL
0734:73C6 66                  DB 66
0734:73C7 50                  PUSH AL
0734:73C8 66                  DB 66
0734:73C9 9D                  POPF
0734:73CA 66                  DB 66
0734:73CB 9C                  PUSHF
0734:73CC 66                  DB 66
0734:73CD 58                  POP AX
0734:73CE 66                  DB 66
0734:73CF 3BC1                CMP AX, CX
0734:73D1 7427                JE	73FA
0734:73D3 66                  DB 66
0734:73D4 51                  PUSH CX
0734:73D5 66                  DB 66
0734:73D6 9D                  POPF
0734:73D7 8BE3                MOV SP, BX
0734:73D9 66                  DB 66
0734:73DA 33C0                XOR AX, AX
0734:73DC 0F                  DB 0F
0734:73DD A26683              MOV [8366], AL
0734:73E0 F8                  CLC
0734:73E1 017C1C              ADD [SI+1C], DI
0734:73E4 66                  DB 66
0734:73E5 33C0                XOR AX, AX
0734:73E7 66                  DB 66
0734:73E8 40                  INC AX
0734:73E9 0F                  DB 0F
0734:73EA A28AC4              MOV [C48A], AL
0734:73ED 240F                AND AL, 0F
0734:73EF 3C06                CMP AL, 06
0734:73F1 7602                JBE	73F5
0734:73F3 B006                MOV AL, 06
0734:73F5 A2A154              MOV [54A1], AL
0734:73F8 EB06                JMP	7400
0734:73FA 66                  DB 66
0734:73FB 51                  PUSH CX
0734:73FC 66                  DB 66
0734:73FD 9D                  POPF
0734:73FE 8BE3                MOV SP, BX
0734:7400 A0A154              MOV AL, [54A1]
0734:7403 A2A654              MOV [54A6], AL
0734:7406 FE06A454            INC [54A4]
0734:740A 3C05                CMP AL, 05
0734:740C 734B                JNB	7459
0734:740E FE0EA454            DEC BYTE PTR [54A4]
0734:7412 DBE3                FNINIT
0734:7414 B85A5A              MOV AX, 5A5A
0734:7417 50                  PUSH AL
0734:7418 8BEC                MOV BP, SP
0734:741A DD7E00              FNSTSW DWORD PTR [BP+00]
0734:741D 58                  POP AX
0734:741E 3C00                CMP AL, 00
0734:7420 7537                JNE	7459
0734:7422 50                  PUSH AL
0734:7423 D97E00              FNSTCW WORD PTR [BP+00]
0734:7426 58                  POP AX
0734:7427 253F10              AND AX, 103F
0734:742A 83F83F              CMP AX, +3F
0734:742D 752A                JNE	7459
0734:742F FE06A454            INC BYTE PTR [54A4]
0734:7433 803EA15403          CMP BYTE PTR [54A1], 03
0734:7438 751F                JNE	7459
0734:743A 9BD9E8              FSTCW AX
0734:743D 9BD9EE              FSTCW SI
0734:7440 9B                  WAIT (unused)
0734:7441 DEF9                FDIVP ST(1), ST
0734:7443 9BD9C0              FSTCW AX
0734:7446 9BD9E0              FSTCW AX
0734:7449 9B                  WAIT (unused)
0734:744A DED9                FCOMPP
0734:744C 50                  PUSH AL
0734:744D 9BDD7E00            FSAVE [BP+00]
0734:7451 58                  POP AX
0734:7452 9E                  SAHF
0734:7453 7504                JNE	7459
0734:7455 FE0EA654            DEC BYTE PTR [54A6]
0734:7459 803EA15403          CMP BYTE PTR [54A1], 03
0734:745E 7317                JNB	7477
0734:7460 BEAA58              MOV SI, 58AA
0734:7463 B91100              MOV CX, 0011
0734:7466 AD                  LODSW
0734:7467 93                  XCHG AX, BX
0734:7468 C60790              MOV BYTE PTR [BX], 90
0734:746B E2F9                LOOP	7466
0734:746D C606781D3E          MOV BYTE PTR [1D78], 3E
0734:7472 C6069D1DCF          MOV BYTE PTR [1D9D], CF
0734:7477 B80037              MOV AX, 3700
0734:747A CD21                INT 21
0734:747C 8816A954            MOV [54A9], DL
0734:7480 80FA2F              CMP DL, 2F
0734:7483 7504                JNE	7489
0734:7485 8816AA54            MOV [54AA], DL
0734:7489 BE8100              MOV SI, 0081
0734:748C AC                  LODSB
0734:748D 3C20                CMP AL, 20
0734:748F 74FB                JE	748C
0734:7491 3C09                CMP AL, 09
0734:7493 74F7                JE	748C
0734:7495 3AC2                CMP AL, DL
0734:7497 7421                JE	74BA
0734:7499 3C2F                CMP AL, 2F
0734:749B 7530                JNE	74CD
0734:749D 8A04                MOV AL, [SI]
0734:749F 3C3F                CMP AL, 3F
0734:74A1 752A                JNE	74CD
0734:74A3 8A4401              MOV AL, [SI+01]
0734:74A6 3C20                CMP AL, 20
0734:74A8 7408                JE	74B2
0734:74AA 3C09                CMP AL, 09
0734:74AC 7404                JE	74B2
0734:74AE 3C0D                CMP AL, 0D
0734:74B0 751B                JNE	74CD
0734:74B2 BA8255              MOV DX, 5582
0734:74B5 E89CC2              CALL 3751
0734:74B8 CD20                INT 20
0734:74BA AC                  LODSB
0734:74BB 3C3F                CMP AL, 3F
0734:74BD 74F3                JE	74B2
0734:74BF A28B56              MOV [568B], AL
0734:74C2 BA7A56              MOV DX, 567A
0734:74C5 E88CC2              CALL 3751
0734:74C8 B8014C              MOV AX, 4C01
0734:74CB CD21                INT 21
0734:74CD 4E                  DEC SI
0734:74CE AC                  LODSB
0734:74CF E81DBB              CALL 2FEC
0734:74D2 B90400              MOV CX, 0004
0734:74D5 BE1C2E              MOV SI, 2E1C
0734:74D8 BFDC54              MOV DI, 54DC
0734:74DB AC                  LODSB
0734:74DC B435                MOV AH, 35
0734:74DE CD21                INT 21
0734:74E0 891D                MOV [DI], BX
0734:74E2 8C4502              MOV WORD PTR [DI+02], ES
0734:74E5 83C704              ADD DI, +04
0734:74E8 92                  XCHG AX, DX
0734:74E9 AD                  LODSW
0734:74EA 92                  XCHG AX, DX
0734:74EB B425                MOV AH, 25
0734:74ED CD21                INT 21
0734:74EF E2EA                LOOP	74DB
0734:74F1 B452                MOV AH, 52
0734:74F3 CD21                INT 21
0734:74F5 268B47FE            MOV AX, ES: [BX-FE]
0734:74F9 A39654              MOV [5496], AX
0734:74FC B434                MOV AH, 34
0734:74FE CD21                INT 21
0734:7500 891E9854            MOV [5498], BX
0734:7504 8C069A54            MOV WORD PTR [549A], ES
0734:7508 1E                  PUSH DS
0734:7509 B8065D              MOV AX, 5D06
0734:750C CD21                INT 21
0734:750E 8CD8                MOV AL, DS
0734:7510 1F                  POP DS
0734:7511 7207                JB	751A
0734:7513 89369C54            MOV [549C], SI
0734:7517 A39E54              MOV [549E], AX
0734:751A 1E                  PUSH DS
0734:751B 07                  POP ES
0734:751C BE0A00              MOV SI, 000A
0734:751F BF9054              MOV DI, 5490
0734:7522 A5                  MOVSW
0734:7523 A5                  MOVSW
0734:7524 C744FC0301          MOV WORD PTR [SI-FC], 0103
0734:7529 8C4CFE              MOV WORD PTR [SI-FE], SS
0734:752C BE1600              MOV SI, 0016
0734:752F A5                  MOVSW
0734:7530 8C4CFE              MOV WORD PTR [SI-FE], SS
0734:7533 8C0E7C54            MOV WORD PTR [547C], SS
0734:7537 B87F59              MOV AX, 597F
0734:753A 24F0                AND AL, F0
0734:753C 8BD8                MOV BX, AX
0734:753E 48                  DEC AX
0734:753F 48                  DEC AX
0734:7540 A37454              MOV [5474], AX
0734:7543 40                  INC AX
0734:7544 40                  INC AX
0734:7545 B104                MOV CL, 04
0734:7547 D3EB                SHR BX, CL
0734:7549 E9C0FC              JMP 7209
0734:754C 97                  XCHG AX, DI
0734:754D 1199119E            ADC [BX+DI+9E11], BX
0734:7551 11821D87            ADC [BP+SI+871D], AX
0734:7555 1D8C1D              SSB AX, 1D8C
0734:7558 E41D                IN AL, 1D
0734:755A 9A2B9E2BDB          CALL DB2B:9E2B
0734:755F 2BE7                SUB SP, DI
0734:7561 2BF9                SUB DI, CX
0734:7563 2B0F                SUB CX, [BX]
0734:7565 2C11                SUB AL, 11
0734:7567 2C14                SUB AL, 14
0734:7569 2C1A                SUB AL, 1A
0734:756B 2CC4                SUB AL, C4
0734:756D 2C2E                SUB AL, 2E
0734:756F D800                FADD FLOAT PTR [BX+SI]
0734:7571 D801                FADD FLOAT PTR [BX+DI]
0734:7573 D802                FADD FLOAT PTR [BP+SI]
0734:7575 3ED803              FADD FLOAT PTR DS: [BP+DI]
0734:7578 36D804              FADD FLOAT PTR ES: [SI]
0734:757B 3ED805              FADD FLOAT PTR DS: [DI]
0734:757E 3ED80646A9          FADD FLOAT PTR DS: [A946]
0734:7583 D807                FADD FLOAT PTR [BX]
0734:7585 D808                FMUL FLOAT PTR [BX+SI]
0734:7587 64D809              FMUL FLOAT PTR FS: [BX+DI]
0734:758A D80A                FMUL FLOAT PTR [BP+SI]
0734:758C 64D80B              FMUL FLOAT PTR FS: [BP+DI]
0734:758F D80C                FMUL FLOAT PTR [SI]
0734:7591 36D80D              FMUL FLOAT PTR ES: [DI]
0734:7594 36D80E138A          FMUL FLOAT PTR ES: [8A13]
0734:7599 3ED80F              FMUL FLOAT PTR DS: [BX]
0734:759C D810                FCOM FLOAT PTR [BX+SI]
0734:759E D811                FCOM FLOAT PTR [BX+DI]
0734:75A0 3ED812              FCOM FLOAT PTR DS: [BP+SI]
0734:75A3 26D813              FCOM FLOAT PTR ES: [BP+DI]
0734:75A6 D814                FCOM FLOAT PTR [SI]
0734:75A8 3ED815              FCOM FLOAT PTR DS: [DI]
0734:75AB 26D816436B          FCOM FLOAT PTR ES: [6B43]
0734:75B0 D817                FCOM FLOAT PTR [BX]
0734:75B2 36D818              FCOMP FLOAT PTR ES: [BX+SI]
0734:75B5 64D819              FCOMP FLOAT PTR FS: [BX+DI]
0734:75B8 2ED81A              FCOMP FLOAT PTR CS: [BP+SI]
0734:75BB D81B                FCOMP FLOAT PTR [BP+DI]
0734:75BD 26D81C              FCOMP FLOAT PTR ES: [SI]
0734:75C0 D81D                FCOMP FLOAT PTR [DI]
0734:75C2 3ED81E4067          FCOMP FLOAT PTR DS: [6740]
0734:75C7 26D81F              FCOMP FLOAT PTR ES: [BX]
0734:75CA 36D820              FSUB FLOAT PTR ES: [BX+SI]
0734:75CD 26D821              FSUB FLOAT PTR ES: [BX+DI]
0734:75D0 D822                FSUB FLOAT PTR [BP+SI]
0734:75D2 D823                FSUB FLOAT PTR [BP+DI]
0734:75D4 D824                FSUB FLOAT PTR [SI]
0734:75D6 26D825              FSUB FLOAT PTR ES: [DI]
0734:75D9 D8266BBD            FSUB FLOAT PTR [BD6B]
0734:75DD 64D827              FSUB FLOAT PTR FS: [BX]
0734:75E0 2ED828              FSUBR FLOAT PTR CS: [BX+SI]
0734:75E3 64D829              FSUBR FLOAT PTR FS: [BX+DI]
0734:75E6 36D82A              FSUBR FLOAT PTR ES: [BP+SI]
0734:75E9 26                  SEG ES (unused)
0734:75EA 26D82B              FSUBR FLOAT PTR ES: [BP+DI]
0734:75ED D82C                FSUBR FLOAT PTR [SI]
0734:75EF 3ED82D              FSUBR FLOAT PTR DS: [DI]
0734:75F2 26                  SEG ES (unused)
0734:75F3 26D82E25A9          FSUBR FLOAT PTR ES: [A925]
0734:75F8 2ED82F              FSUBR FLOAT PTR CS: [BX]
0734:75FB 3ED830              FDIV FLOAT PTR DS: [BX+SI]
0734:75FE 26                  SEG ES (unused)
0734:75FF 26D831              FDIV FLOAT PTR ES: [BX+DI]
0734:7602 36D832              FDIV FLOAT PTR ES: [BP+SI]
0734:7605 2ED833              FDIV FLOAT PTR CS: [BP+DI]
0734:7608 36D834              FDIV FLOAT PTR ES: [SI]
0734:760B D835                FDIV FLOAT PTR [DI]
0734:760D 26                  SEG ES (unused)
0734:760E 26D83616C1          FDIV FLOAT PTR ES: [C116]
0734:7613 D837                FDIV FLOAT PTR [BX]
0734:7615 D838                FDIVR FLOAT PTR [BX+SI]
0734:7617 D839                FDIVR FLOAT PTR [BX+DI]
0734:7619 D83A                FDIVR FLOAT PTR [BP+SI]
0734:761B D83B                FDIVR FLOAT PTR [BP+DI]
0734:761D 26                  SEG ES (unused)
0734:761E 26D83C              FDIVR FLOAT PTR ES: [SI]
0734:7621 D83D                FDIVR FLOAT PTR [DI]
0734:7623 D83E60E7            FDIVR FLOAT PTR [E760]
0734:7627 2ED83F              FDIVR FLOAT PTR CS: [BX]
0734:762A D84003              FADD FLOAT PTR [BX+SI+03]
0734:762D D84132              FADD FLOAT PTR [BX+DI+32]
0734:7630 64D84253            FADD FLOAT PTR FS: [BP+SI+53]
0734:7634 D8434E              FADD FLOAT PTR [BP+DI+4E]
0734:7637 36D8444E            FADD FLOAT PTR ES: [SI+4E]
0734:763B 26D84568            FADD FLOAT PTR ES: [DI+68]
0734:763F 26                  SEG ES (unused)
0734:7640 26D846CD            FADD FLOAT PTR ES: [BP-CD]
0734:7644 64D84797            FADD FLOAT PTR FS: [BX-97]
0734:7648 D8488C              FMUL FLOAT PTR [BX+SI-8C]
0734:764B D84997              FMUL FLOAT PTR [BX+DI-97]
0734:764E 26D84A89            FMUL FLOAT PTR ES: [BP+SI-89]
0734:7652 2ED84B93            FMUL FLOAT PTR CS: [BP+DI-93]
0734:7656 3ED84C1A            FMUL FLOAT PTR DS: [SI+1A]
0734:765A D84D93              FMUL FLOAT PTR [DI-93]
0734:765D D84E56              FMUL FLOAT PTR [BP+56]
0734:7660 D84F4C              FMUL FLOAT PTR [BX+4C]
0734:7663 D85083              FCOM FLOAT PTR [BX+SI-83]
0734:7666 64D8519B            FCOM FLOAT PTR FS: [BX+DI-9B]
0734:766A D8524D              FCOM FLOAT PTR [BP+SI+4D]
0734:766D 26D8538C            FCOM FLOAT PTR ES: [BP+DI-8C]
0734:7671 36D854E8            FCOM FLOAT PTR ES: [SI-E8]
0734:7675 26D85559            FCOM FLOAT PTR ES: [DI+59]
0734:7679 2ED8569A            FCOM FLOAT PTR CS: [BP-9A]
0734:767D D85753              FCOM FLOAT PTR [BX+53]
0734:7680 36D8580C            FCOMP FLOAT PTR ES: [BX+SI+0C]
0734:7684 D859E1              FCOMP FLOAT PTR [BX+DI-E1]
0734:7687 D85AAF              FCOMP FLOAT PTR [BP+SI-AF]
0734:768A 64D85BBA            FCOMP FLOAT PTR FS: [BP+DI-BA]
0734:768E 26D85CB0            FCOMP FLOAT PTR ES: [SI-B0]
0734:7692 D85D71              FCOMP FLOAT PTR [DI+71]
0734:7695 D85E41              FCOMP FLOAT PTR [BP+41]
0734:7698 26D85F19            FCOMP FLOAT PTR ES: [BX+19]
0734:769C 64D860B6            FSUB FLOAT PTR FS: [BX+SI-B6]
0734:76A0 26D861C3            FSUB FLOAT PTR ES: [BX+DI-C3]
0734:76A4 26                  SEG ES (unused)
0734:76A5 26D86246            FSUB FLOAT PTR ES: [BP+SI+46]
0734:76A9 64D86347            FSUB FLOAT PTR FS: [BP+DI+47]
0734:76AD 26                  SEG ES (unused)
0734:76AE 26D86496            FSUB FLOAT PTR ES: [SI-96]
0734:76B2 3ED8650B            FSUB FLOAT PTR DS: [DI+0B]
0734:76B6 3ED86637            FSUB FLOAT PTR DS: [BP+37]
0734:76BA D867FE              FSUB FLOAT PTR [BX-FE]
0734:76BD 2ED868F6            FSUBR FLOAT PTR CS: [BX+SI-F6]
0734:76C1 D86930              FSUBR FLOAT PTR [BX+DI+30]
0734:76C4 D86AF5              FSUBR FLOAT PTR [BP+SI-F5]
0734:76C7 D86B26              FSUBR FLOAT PTR [BP+DI+26]
0734:76CA 3ED86CBC            FSUBR FLOAT PTR DS: [SI-BC]
0734:76CE D86D6C              FSUBR FLOAT PTR [DI+6C]
0734:76D1 D86EFE              FSUBR FLOAT PTR [BP-FE]
0734:76D4 26                  SEG ES (unused)
0734:76D5 26D86F8B            FSUBR FLOAT PTR ES: [BX-8B]
0734:76D9 D87060              FDIV FLOAT PTR [BX+SI+60]
0734:76DC 26                  SEG ES (unused)
0734:76DD 26D871B5            FDIV FLOAT PTR ES: [BX+DI-B5]
0734:76E1 D8724D              FDIV FLOAT PTR [BP+SI+4D]
0734:76E4 D87390              FDIV FLOAT PTR [BP+DI-90]
0734:76E7 D8745F              FDIV FLOAT PTR [SI+5F]
0734:76EA 36D875DF            FDIV FLOAT PTR ES: [DI-DF]
0734:76EE D87618              FDIV FLOAT PTR [BP+18]
0734:76F1 D8772B              FDIV FLOAT PTR [BX+2B]
0734:76F4 D8780E              FDIVR FLOAT PTR [BX+SI+0E]
0734:76F7 2ED87945            FDIVR FLOAT PTR CS: [BX+DI+45]
0734:76FB D87A71              FDIVR FLOAT PTR [BP+SI+71]
0734:76FE 3ED87B5C            FDIVR FLOAT PTR DS: [BP+DI+5C]
0734:7702 64D87C6C            FDIVR FLOAT PTR FS: [SI+6C]
0734:7706 D87DBA              FDIVR FLOAT PTR [DI-BA]
0734:7709 D87E78              FDIVR FLOAT PTR [BP+78]
0734:770C D87F5F              FDIVR FLOAT PTR [BX+5F]
0734:770F 2ED880C090          FADD FLOAT PTR CS: [BX+SI+90C0]
0734:7714 3ED881FEAA          FADD FLOAT PTR DS: [BX+DI+AAFE]
0734:7719 2ED8822F56          FADD FLOAT PTR CS: [BP+SI+562F]
0734:771E D883EC5B            FADD FLOAT PTR [BP+DI+5BEC]
0734:7722 D8847576            FADD FLOAT PTR [SI+7675]
0734:7726 D8852916            FADD FLOAT PTR [DI+1629]
0734:772A 64D886FE31          FADD FLOAT PTR FS: [BP+31FE]
0734:772F D8870AC2            FADD FLOAT PTR [BX+C20A]
0734:7733 D88880C7            FMUL FLOAT PTR [BX+SI+C780]
0734:7737 D889F8AE            FMUL FLOAT PTR [BX+DI+AEF8]
0734:773B D88A9F96            FMUL FLOAT PTR [BP+SI+969F]
0734:773F D88B48AB            FMUL FLOAT PTR [BP+DI+AB48]
0734:7743 3ED88C5612          FMUL FLOAT PTR DS: [SI+1256]
0734:7748 D88D91B4            FMUL FLOAT PTR [DI+B491]
0734:774C 3ED88E6107          FMUL FLOAT PTR DS: [BP+0761]
0734:7751 26D88F6F2E          FMUL FLOAT PTR ES: [BX+2E6F]
0734:7756 26D8900840          FCOM FLOAT PTR ES: [BX+SI+4008]
0734:775B 26D891BB7D          FCOM FLOAT PTR ES: [BX+DI+7DBB]
0734:7760 D892DB01            FCOM FLOAT PTR [BP+SI+01DB]
0734:7764 D893B418            FCOM FLOAT PTR [BP+DI+18B4]
0734:7768 26                  SEG ES (unused)
0734:7769 26D894AFE3          FCOM FLOAT PTR ES: [SI+E3AF]
0734:776E 64D8950F54          FCOM FLOAT PTR FS: [DI+540F]
0734:7773 D8961845            FCOM FLOAT PTR [BP+4518]
0734:7777 D89745E2            FCOM FLOAT PTR [BX+E245]
0734:777B 64D898754C          FCOMP FLOAT PTR FS: [BX+SI+4C75]
0734:7780 64D899B560          FCOMP FLOAT PTR FS: [BX+DI+60B5]
0734:7785 D89A9DA4            FCOMP FLOAT PTR [BP+SI+A49D]
0734:7789 D89B34F0            FCOMP FLOAT PTR [BP+DI+F034]
0734:778D 64D89CFED4          FCOMP FLOAT PTR FS: [SI+D4FE]
0734:7792 D89D61F4            FCOMP FLOAT PTR [DI+F461]
0734:7796 D89E3D56            FCOMP FLOAT PTR [BP+563D]
0734:779A D89F9909            FCOMP FLOAT PTR [BX+0999]
0734:779E 3ED8A0A0BA          FSUB FLOAT PTR DS: [BX+SI+BAA0]
0734:77A3 D8A13B2D            FSUB FLOAT PTR [BX+DI+2D3B]
0734:77A7 D8A27283            FSUB FLOAT PTR [BP+SI+8372]
0734:77AB D8A39D4D            FSUB FLOAT PTR [BP+DI+4D9D]
0734:77AF D8A4219F            FSUB FLOAT PTR [SI+9F21]
0734:77B3 2ED8A55C0D          FSUB FLOAT PTR CS: [DI+0D5C]
0734:77B8 3ED8A6239E          FSUB FLOAT PTR DS: [BP+9E23]
0734:77BD 26D8A70734          FSUB FLOAT PTR ES: [BX+3407]
0734:77C2 36D8A861F9          FSUBR FLOAT PTR ES: [BX+SI+F961]
0734:77C7 64D8A9BEF1          FSUBR FLOAT PTR FS: [BX+DI+F1BE]
0734:77CC D8AA3DAC            FSUBR FLOAT PTR [BP+SI+AC3D]
0734:77D0 D8AB57FE            FSUBR FLOAT PTR [BP+DI+FE57]
0734:77D4 D8AC0D52            FSUBR FLOAT PTR [SI+520D]
0734:77D8 36D8AD09DE          FSUBR FLOAT PTR ES: [DI+DE09]
0734:77DD 26D8AE2941          FSUBR FLOAT PTR ES: [BP+4129]
0734:77E2 D8AFBB64            FSUBR FLOAT PTR [BX+64BB]
0734:77E6 D8B07D24            FDIV FLOAT PTR [BX+SI+247D]
0734:77EA 36D8B13590          FDIV FLOAT PTR ES: [BX+DI+9035]
0734:77EF D8B2ACDD            FDIV FLOAT PTR [BP+SI+DDAC]
0734:77F3 D8B3F279            FDIV FLOAT PTR [BP+DI+79F2]
0734:77F7 26D8B4A21B          FDIV FLOAT PTR ES: [SI+1BA2]
0734:77FC D8B513E1            FDIV FLOAT PTR [DI+E113]
0734:7800 26                  SEG ES (unused)
0734:7801 26D8B6B6D5          FDIV FLOAT PTR ES: [BP+D5B6]
0734:7806 26                  SEG ES (unused)
0734:7807 26D8B7C6E3          FDIV FLOAT PTR ES: [BX+E3C6]
0734:780C 2ED8B813E8          FDIVR FLOAT PTR CS: [BX+SI+E813]
0734:7811 D8B96D6C            FDIVR FLOAT PTR [BX+DI+6C6D]
0734:7815 D8BAFDEC            FDIVR FLOAT PTR [BP+SI+ECFD]
0734:7819 D8BB3738            FDIVR FLOAT PTR [BP+DI+3837]
0734:781D 36D8BC25D5          FDIVR FLOAT PTR ES: [SI+D525]
0734:7822 D8BD8593            FDIVR FLOAT PTR [DI+9385]
0734:7826 3ED8BEC66D          FDIVR FLOAT PTR DS: [BP+6DC6]
0734:782B D8BF4AB5            FDIVR FLOAT PTR [BX+B54A]
0734:782F 3E                  SEG DS (unused)
0734:7830 D8C0                FADD ST, ST(0)
0734:7832 26                  SEG ES (unused)
0734:7833 D8C1                FADD ST, ST(1)
0734:7835 26                  SEG ES (unused)
0734:7836 D8C2                FADD ST, ST(2)
0734:7838 26                  SEG ES (unused)
0734:7839 26                  SEG ES (unused)
0734:783A D8C3                FADD ST, ST(3)
0734:783C 2E                  SEG CS (unused)
0734:783D D8C4                FADD ST, ST(4)
0734:783F 26                  SEG ES (unused)
0734:7840 26                  SEG ES (unused)
0734:7841 D8C5                FADD ST, ST(5)
0734:7843 D8C6                FADD ST, ST(6)
0734:7845 D8C7                FADD ST, ST(7)
0734:7847 D8C8                FMUL ST, ST(0)
0734:7849 26                  SEG ES (unused)
0734:784A D8C9                FMUL ST, ST(1)
0734:784C 26                  SEG ES (unused)
0734:784D D8CA                FMUL ST, ST(2)
0734:784F 26                  SEG ES (unused)
0734:7850 D8CB                FMUL ST, ST(3)
0734:7852 D8CC                FMUL ST, ST(4)
0734:7854 D8CD                FMUL ST, ST(5)
0734:7856 D8CE                FMUL ST, ST(6)
0734:7858 2E                  SEG CS (unused)
0734:7859 D8CF                FMUL ST, ST(7)
0734:785B 2E                  SEG CS (unused)
0734:785C D8D0                FCOM ST(0)
0734:785E 64                  SEG FS (unused)
0734:785F D8D1                FCOM ST(1)
0734:7861 26                  SEG ES (unused)
0734:7862 D8D2                FCOM ST(2)
0734:7864 D8D3                FCOM ST(3)
0734:7866 64                  SEG FS (unused)
0734:7867 D8D4                FCOM ST(4)
0734:7869 D8D5                FCOM ST(5)
0734:786B 26                  SEG ES (unused)
0734:786C D8D6                FCOM ST(6)
0734:786E 26                  SEG ES (unused)
0734:786F D8D7                FCOM ST(7)
0734:7871 26                  SEG ES (unused)
0734:7872 D8D8                FCOMP ST(0)
0734:7874 D8D9                FCOMP ST(1)
0734:7876 26                  SEG ES (unused)
0734:7877 D8DA                FCOMP ST(2)
0734:7879 2E                  SEG CS (unused)
0734:787A D8DB                FCOMP ST(3)
0734:787C D8DC                FCOMP ST(4)
0734:787E D8DD                FCOMP ST(5)
0734:7880 26                  SEG ES (unused)
0734:7881 D8DE                FCOMP ST(6)
0734:7883 26                  SEG ES (unused)
0734:7884 D8DF                FCOMP ST(7)
0734:7886 D8E0                FSUB ST, ST(0)
0734:7888 26                  SEG ES (unused)
0734:7889 D8E1                FSUB ST, ST(1)
0734:788B D8E2                FSUB ST, ST(2)
0734:788D 64                  SEG FS (unused)
0734:788E D8E3                FSUB ST, ST(3)
0734:7890 26                  SEG ES (unused)
0734:7891 D8E4                FSUB ST, ST(4)
0734:7893 26                  SEG ES (unused)
0734:7894 D8E5                FSUB ST, ST(5)
0734:7896 26                  SEG ES (unused)
0734:7897 D8E6                FSUB ST, ST(6)
0734:7899 26                  SEG ES (unused)
0734:789A D8E7                FSUB ST, ST(7)
0734:789C 26                  SEG ES (unused)
0734:789D D8E8                FSUBR ST, ST(0)
0734:789F 3E                  SEG DS (unused)
0734:78A0 D8E9                FSUBR ST, ST(1)
0734:78A2 D8EA                FSUBR ST, ST(2)
0734:78A4 D8EB                FSUBR ST, ST(3)
0734:78A6 26                  SEG ES (unused)
0734:78A7 26                  SEG ES (unused)
0734:78A8 D8EC                FSUBR ST, ST(4)
0734:78AA 26                  SEG ES (unused)
0734:78AB D8ED                FSUBR ST, ST(5)
0734:78AD D8EE                FSUBR ST, ST(6)
0734:78AF D8EF                FSUBR ST, ST(7)
0734:78B1 D8F0                FDIV ST, ST(0)
0734:78B3 D8F1                FDIV ST, ST(1)
0734:78B5 D8F2                FDIV ST, ST(2)
0734:78B7 D8F3                FDIV ST, ST(3)
0734:78B9 26                  SEG ES (unused)
0734:78BA D8F4                FDIV ST, ST(4)
0734:78BC D8F5                FDIV ST, ST(5)
0734:78BE 26                  SEG ES (unused)
0734:78BF 26                  SEG ES (unused)
0734:78C0 D8F6                FDIV ST, ST(6)
0734:78C2 D8F7                FDIV ST, ST(7)
0734:78C4 D8F8                FDIVR ST, ST(0)
0734:78C6 D8F9                FDIVR ST, ST(1)
0734:78C8 26                  SEG ES (unused)
0734:78C9 26                  SEG ES (unused)
0734:78CA D8FA                FDIVR ST, ST(2)
0734:78CC D8FB                FDIVR ST, ST(3)
0734:78CE D8FC                FDIVR ST, ST(4)
0734:78D0 D8FD                FDIVR ST, ST(5)
0734:78D2 D8FE                FDIVR ST, ST(6)
0734:78D4 3E                  SEG DS (unused)
0734:78D5 D8FF                FDIVR ST, ST(7)
0734:78D7 64D900              FLD FLOAT PTR FS: [BX+SI]
0734:78DA D901                FLD FLOAT PTR [BX+DI]
0734:78DC 64D902              FLD FLOAT PTR FS: [BP+SI]
0734:78DF 36D903              FLD FLOAT PTR ES: [BP+DI]
0734:78E2 26D904              FLD FLOAT PTR ES: [SI]
0734:78E5 D905                FLD FLOAT PTR [DI]
0734:78E7 36D906D39F          FLD FLOAT PTR ES: [9FD3]
0734:78EC D907                FLD FLOAT PTR [BX]
0734:78EE 3ED910              FST FLOAT PTR DS: [BX+SI]
0734:78F1 D911                FST FLOAT PTR [BX+DI]
0734:78F3 36D912              FST FLOAT PTR ES: [BP+SI]
0734:78F6 26D913              FST FLOAT PTR ES: [BP+DI]
0734:78F9 2ED914              FST FLOAT PTR CS: [SI]
0734:78FC D915                FST FLOAT PTR [DI]
0734:78FE D916DDFE            FST FLOAT PTR [FEDD]
0734:7902 26D917              FST FLOAT PTR ES: [BX]
0734:7905 D918                FSTP FLOAT PTR [BX+SI]
0734:7907 36D919              FSTP FLOAT PTR ES: [BX+DI]
0734:790A 3ED91A              FSTP FLOAT PTR DS: [BP+SI]
0734:790D 2ED91B              FSTP FLOAT PTR CS: [BP+DI]
0734:7910 3ED91C              FSTP FLOAT PTR DS: [SI]
0734:7913 26D91D              FSTP FLOAT PTR ES: [DI]
0734:7916 2ED91E4201          FSTP FLOAT PTR CS: [0142]
0734:791B D91F                FSTP FLOAT PTR [BX]
0734:791D 26D920              FLDENV ES: [BX+SI]
0734:7920 D921                FLDENV [BX+DI]
0734:7922 26D922              FLDENV ES: [BP+SI]
0734:7925 3ED923              FLDENV DS: [BP+DI]
0734:7928 D924                FLDENV [SI]
0734:792A D925                FLDENV [DI]
0734:792C D92635F8            FLDENV [F835]
0734:7930 26D927              FLDENV ES: [BX]
0734:7933 D928                FLDCW WORD PTR [BX+SI]
0734:7935 D929                FLDCW WORD PTR [BX+DI]
0734:7937 2ED92A              FLDCW WORD PTR CS: [BP+SI]
0734:793A 64D92B              FLDCW WORD PTR FS: [BP+DI]
0734:793D 36D92C              FLDCW WORD PTR ES: [SI]
0734:7940 2ED92D              FLDCW WORD PTR CS: [DI]
0734:7943 D92EEE0C            FLDCW WORD PTR [0CEE]
0734:7947 3ED92F              FLDCW WORD PTR DS: [BX]
0734:794A 64D930              FNSTENV FS: [BX+SI]
0734:794D 26D931              FNSTENV ES: [BX+DI]
0734:7950 3ED932              FNSTENV DS: [BP+SI]
0734:7953 D933                FNSTENV [BP+DI]
0734:7955 2ED934              FNSTENV CS: [SI]
0734:7958 3ED935              FNSTENV DS: [DI]
0734:795B 64D936DED6          FNSTENV FS: [D6DE]
0734:7960 36D937              FNSTENV ES: [BX]
0734:7963 2ED938              FNSTCW WORD PTR CS: [BX+SI]
0734:7966 D939                FNSTCW WORD PTR [BX+DI]
0734:7968 D93A                FNSTCW WORD PTR [BP+SI]
0734:796A 64D93B              FNSTCW WORD PTR FS: [BP+DI]
0734:796D D93C                FNSTCW WORD PTR [SI]
0734:796F 3ED93D              FNSTCW WORD PTR DS: [DI]
0734:7972 36D93EBA01          FNSTCW WORD PTR ES: [01BA]
0734:7977 D93F                FNSTCW WORD PTR [BX]
0734:7979 D940A0              FLD FLOAT PTR [BX+SI-A0]
0734:797C 26                  SEG ES (unused)
0734:797D 26D941F8            FLD FLOAT PTR ES: [BX+DI-F8]
0734:7981 2ED942F2            FLD FLOAT PTR CS: [BP+SI-F2]
0734:7985 26D94339            FLD FLOAT PTR ES: [BP+DI+39]
0734:7989 64D9441C            FLD FLOAT PTR FS: [SI+1C]
0734:798D D9457C              FLD FLOAT PTR [DI+7C]
0734:7990 64D946DF            FLD FLOAT PTR FS: [BP-DF]
0734:7994 D947AE              FLD FLOAT PTR [BX-AE]
0734:7997 D9507A              FST FLOAT PTR [BX+SI+7A]
0734:799A D95172              FST FLOAT PTR [BX+DI+72]
0734:799D 3ED952CA            FST FLOAT PTR DS: [BP+SI-CA]
0734:79A1 36D953DD            FST FLOAT PTR ES: [BP+DI-DD]
0734:79A5 D9546F              FST FLOAT PTR [SI+6F]
0734:79A8 D955E3              FST FLOAT PTR [DI-E3]
0734:79AB 3ED95682            FST FLOAT PTR DS: [BP-82]
0734:79AF 64D95735            FST FLOAT PTR FS: [BX+35]
0734:79B3 D95868              FSTP FLOAT PTR [BX+SI+68]
0734:79B6 26D959E6            FSTP FLOAT PTR ES: [BX+DI-E6]
0734:79BA 26D95AC9            FSTP FLOAT PTR ES: [BP+SI-C9]
0734:79BE D95BE8              FSTP FLOAT PTR [BP+DI-E8]
0734:79C1 D95C9B              FSTP FLOAT PTR [SI-9B]
0734:79C4 D95D53              FSTP FLOAT PTR [DI+53]
0734:79C7 D95E9F              FSTP FLOAT PTR [BP-9F]
0734:79CA D95FA6              FSTP FLOAT PTR [BX-A6]
0734:79CD D96027              FLDENV [BX+SI+27]
0734:79D0 3ED9614B            FLDENV DS: [BX+DI+4B]
0734:79D4 D96255              FLDENV [BP+SI+55]
0734:79D7 2ED96329            FLDENV CS: [BP+DI+29]
0734:79DB D964F4              FLDENV [SI-F4]
0734:79DE D96530              FLDENV [DI+30]
0734:79E1 D966AB              FLDENV [BP-AB]
0734:79E4 64D9674A            FLDENV FS: [BX+4A]
0734:79E8 D968DB              FLDCW WORD PTR [BX+SI-DB]
0734:79EB D96921              FLDCW WORD PTR [BX+DI+21]
0734:79EE 36D96ABE            FLDCW WORD PTR ES: [BP+SI-BE]
0734:79F2 3ED96B47            FLDCW WORD PTR DS: [BP+DI+47]
0734:79F6 D96CCD              FLDCW WORD PTR [SI-CD]
0734:79F9 D96D16              FLDCW WORD PTR [DI+16]
0734:79FC D96EA0              FLDCW WORD PTR [BP-A0]
0734:79FF D96F9D              FLDCW WORD PTR [BX-9D]
0734:7A02 3ED9706B            FNSTENV DS: [BX+SI+6B]
0734:7A06 D97104              FNSTENV [BX+DI+04]
0734:7A09 3ED972AF            FNSTENV DS: [BP+SI-AF]
0734:7A0D 64D97308            FNSTENV FS: [BP+DI+08]
0734:7A11 D974EB              FNSTENV [SI-EB]
0734:7A14 2ED9757B            FNSTENV CS: [DI+7B]
0734:7A18 3ED9768F            FNSTENV DS: [BP-8F]
0734:7A1C 3ED97761            FNSTENV DS: [BX+61]
0734:7A20 D97818              FNSTCW WORD PTR [BX+SI+18]
0734:7A23 3ED97960            FNSTCW WORD PTR DS: [BX+DI+60]
0734:7A27 D97A51              FNSTCW WORD PTR [BP+SI+51]
0734:7A2A 36D97B47            FNSTCW WORD PTR ES: [BP+DI+47]
0734:7A2E 64D97C16            FNSTCW WORD PTR FS: [SI+16]
0734:7A32 26                  SEG ES (unused)
0734:7A33 26D97DD0            FNSTCW WORD PTR ES: [DI-D0]
0734:7A37 64D97E31            FNSTCW WORD PTR FS: [BP+31]
0734:7A3B D97F90              FNSTCW WORD PTR [BX-90]
0734:7A3E D9809B75            FLD FLOAT PTR [BX+SI+759B]
0734:7A42 D9810C3F            FLD FLOAT PTR [BX+DI+3F0C]
0734:7A46 26D9823366          FLD FLOAT PTR ES: [BP+SI+6633]
0734:7A4B 3ED9835042          FLD FLOAT PTR DS: [BP+DI+4250]
0734:7A50 D9844F56            FLD FLOAT PTR [SI+564F]
0734:7A54 26D985501A          FLD FLOAT PTR ES: [DI+1A50]
0734:7A59 26D9867559          FLD FLOAT PTR ES: [BP+5975]
0734:7A5E 3ED9874FCF          FLD FLOAT PTR DS: [BX+CF4F]
0734:7A63 D9901DFC            FST FLOAT PTR [BX+SI+FC1D]
0734:7A67 26D991E352          FST FLOAT PTR ES: [BX+DI+52E3]
0734:7A6C 26D992B6FA          FST FLOAT PTR ES: [BP+SI+FAB6]
0734:7A71 26D993F639          FST FLOAT PTR ES: [BP+DI+39F6]
0734:7A76 D9942521            FST FLOAT PTR [SI+2125]
0734:7A7A 26D995A2EB          FST FLOAT PTR ES: [DI+EBA2]
0734:7A7F 64D9964138          FST FLOAT PTR FS: [BP+3841]
0734:7A84 D997FC9C            FST FLOAT PTR [BX+9CFC]
0734:7A88 D998E197            FSTP FLOAT PTR [BX+SI+97E1]
0734:7A8C D999D367            FSTP FLOAT PTR [BX+DI+67D3]
0734:7A90 D99A37E1            FSTP FLOAT PTR [BP+SI+E137]
0734:7A94 D99B8331            FSTP FLOAT PTR [BP+DI+3183]
0734:7A98 36D99C0D08          FSTP FLOAT PTR ES: [SI+080D]
0734:7A9D D99D61A8            FSTP FLOAT PTR [DI+A861]
0734:7AA1 64D99EC8A9          FSTP FLOAT PTR FS: [BP+A9C8]
0734:7AA6 36D99F6942          FSTP FLOAT PTR ES: [BX+4269]
0734:7AAB 3ED9A0FC27          FLDENV DS: [BX+SI+27FC]
0734:7AB0 36D9A1C338          FLDENV ES: [BX+DI+38C3]
0734:7AB5 26                  SEG ES (unused)
0734:7AB6 26D9A29D34          FLDENV ES: [BP+SI+349D]
0734:7ABB 64D9A3CA08          FLDENV FS: [BP+DI+08CA]
0734:7AC0 D9A414C5            FLDENV [SI+C514]
0734:7AC4 D9A5FBE5            FLDENV [DI+E5FB]
0734:7AC8 64D9A601D8          FLDENV FS: [BP+D801]
0734:7ACD D9A7F6CC            FLDENV [BX+CCF6]
0734:7AD1 D9A87EFE            FLDCW WORD PTR [BX+SI+FE7E]
0734:7AD5 D9A93C2D            FLDCW WORD PTR [BX+DI+2D3C]
0734:7AD9 D9AA5FC7            FLDCW WORD PTR [BP+SI+C75F]
0734:7ADD D9AB1EA8            FLDCW WORD PTR [BP+DI+A81E]
0734:7AE1 3ED9AC9E20          FLDCW WORD PTR DS: [SI+209E]
0734:7AE6 2ED9AD02A2          FLDCW WORD PTR CS: [DI+A202]
0734:7AEB 26                  SEG ES (unused)
0734:7AEC 26D9AEC21E          FLDCW WORD PTR ES: [BP+1EC2]
0734:7AF1 26                  SEG ES (unused)
0734:7AF2 26D9AF9014          FLDCW WORD PTR ES: [BX+1490]
0734:7AF7 D9B0CF7D            FNSTENV [BX+SI+7DCF]
0734:7AFB D9B19A2F            FNSTENV [BX+DI+2F9A]
0734:7AFF 2ED9B277FF          FNSTENV CS: [BP+SI+FF77]
0734:7B04 64D9B32757          FNSTENV FS: [BP+DI+5727]
0734:7B09 3ED9B42A81          FNSTENV DS: [SI+812A]
0734:7B0E D9B54617            FNSTENV [DI+1746]
0734:7B12 D9B67097            FNSTENV [BP+9770]
0734:7B16 D9B7A347            FNSTENV [BX+47A3]
0734:7B1A D9B8968A            FNSTCW WORD PTR [BX+SI+8A96]
0734:7B1E 36D9B942E3          FNSTCW WORD PTR ES: [BX+DI+E342]
0734:7B23 D9BA513B            FNSTCW WORD PTR [BP+SI+3B51]
0734:7B27 64D9BB3D88          FNSTCW WORD PTR FS: [BP+DI+883D]
0734:7B2C 26D9BC9637          FNSTCW WORD PTR ES: [SI+3796]
0734:7B31 D9BDFD40            FNSTCW WORD PTR [DI+40FD]
0734:7B35 3ED9BE7C1F          FNSTCW WORD PTR DS: [BP+1F7C]
0734:7B3A 26                  SEG ES (unused)
0734:7B3B 26D9BF09C4          FNSTCW WORD PTR ES: [BX+C409]
0734:7B40 D9C0                FLD ST(0)
0734:7B42 26                  SEG ES (unused)
0734:7B43 D9C1                FLD ST(1)
0734:7B45 3E                  SEG DS (unused)
0734:7B46 D9C2                FLD ST(2)
0734:7B48 D9C3                FLD ST(3)
0734:7B4A 2E                  SEG CS (unused)
0734:7B4B D9C4                FLD ST(4)
0734:7B4D D9C5                FLD ST(5)
0734:7B4F 26                  SEG ES (unused)
0734:7B50 D9C6                FLD ST(6)
0734:7B52 26                  SEG ES (unused)
0734:7B53 26                  SEG ES (unused)
0734:7B54 D9C7                FLD ST(7)
0734:7B56 D9C8                FXCH ST(0)
0734:7B58 26                  SEG ES (unused)
0734:7B59 D9C9                FXCH ST(1)
0734:7B5B 2E                  SEG CS (unused)
0734:7B5C D9CA                FXCH ST(2)
0734:7B5E D9CB                FXCH ST(3)
0734:7B60 2E                  SEG CS (unused)
0734:7B61 D9CC                FXCH ST(4)
0734:7B63 D9CD                FXCH ST(5)
0734:7B65 D9CE                FXCH ST(6)
0734:7B67 26                  SEG ES (unused)
0734:7B68 26                  SEG ES (unused)
0734:7B69 D9CF                FXCH ST(7)
0734:7B6B 3E                  SEG DS (unused)
0734:7B6C D9E0                FCHS
0734:7B6E 3E                  SEG DS (unused)
0734:7B6F D9E1                FABS
0734:7B71 2E                  SEG CS (unused)
0734:7B72 D9E4                FTST
0734:7B74 2E                  SEG CS (unused)
0734:7B75 D9E5                FXAM
0734:7B77 26                  SEG ES (unused)
0734:7B78 D9E8                FLD1
0734:7B7A D9E9                FLDL2T
0734:7B7C D9EA                FLDL2E
0734:7B7E 26                  SEG ES (unused)
0734:7B7F 26                  SEG ES (unused)
0734:7B80 D9EB                FLDPI
0734:7B82 D9EC                FLDLG2
0734:7B84 26                  SEG ES (unused)
0734:7B85 D9ED                FLDLN2
0734:7B87 26                  SEG ES (unused)
0734:7B88 D9EE                FLDZ
0734:7B8A D9F0                F2XM1
0734:7B8C D9F1                FYL2X
0734:7B8E D9F2                FPTAN
0734:7B90 26                  SEG ES (unused)
0734:7B91 26                  SEG ES (unused)
0734:7B92 D9F3                FPATAN
0734:7B94 3E                  SEG DS (unused)
0734:7B95 D9F4                FXTRAC
0734:7B97 D9F5                FPREM1
0734:7B99 D9F6                FDECST
0734:7B9B 64                  SEG FS (unused)
0734:7B9C D9F7                FINCST
0734:7B9E D9F8                FPREM
0734:7BA0 26                  SEG ES (unused)
0734:7BA1 D9F9                FYL2XP1
0734:7BA3 D9FA                FSQRT
0734:7BA5 3E                  SEG DS (unused)
0734:7BA6 D9FB                FSINCO
0734:7BA8 2E                  SEG CS (unused)
0734:7BA9 D9FC                FRNDIN
0734:7BAB 26                  SEG ES (unused)
0734:7BAC D9FD                FSCALE
0734:7BAE 26                  SEG ES (unused)
0734:7BAF D9FE                FSIN
0734:7BB1 D9FF                FCOS
0734:7BB3 DA00                FIADD FLOAT PTR [BX+SI]
0734:7BB5 3EDA01              FIADD FLOAT PTR DS: [BX+DI]
0734:7BB8 DA02                FIADD FLOAT PTR [BP+SI]
0734:7BBA DA03                FIADD FLOAT PTR [BP+DI]
0734:7BBC DA04                FIADD FLOAT PTR [SI]
0734:7BBE DA05                FIADD FLOAT PTR [DI]
0734:7BC0 26DA06DC87          FIADD FLOAT PTR ES: [87DC]
0734:7BC5 26                  SEG ES (unused)
0734:7BC6 26DA07              FIADD FLOAT PTR ES: [BX]
0734:7BC9 DA08                FIMUL FLOAT PTR [BX+SI]
0734:7BCB DA09                FIMUL FLOAT PTR [BX+DI]
0734:7BCD 26DA0A              FIMUL FLOAT PTR ES: [BP+SI]
0734:7BD0 26                  SEG ES (unused)
0734:7BD1 26DA0B              FIMUL FLOAT PTR ES: [BP+DI]
0734:7BD4 DA0C                FIMUL FLOAT PTR [SI]
0734:7BD6 DA0D                FIMUL FLOAT PTR [DI]
0734:7BD8 DA0E1D30            FIMUL FLOAT PTR [301D]
0734:7BDC DA0F                FIMUL FLOAT PTR [BX]
0734:7BDE 64DA10              FICOM FLOAT PTR FS: [BX+SI]
0734:7BE1 26DA11              FICOM FLOAT PTR ES: [BX+DI]
0734:7BE4 DA12                FICOM FLOAT PTR [BP+SI]
0734:7BE6 36DA13              FICOM FLOAT PTR ES: [BP+DI]
0734:7BE9 DA14                FICOM FLOAT PTR [SI]
0734:7BEB DA15                FICOM FLOAT PTR [DI]
0734:7BED DA16B375            FICOM FLOAT PTR [75B3]
0734:7BF1 26                  SEG ES (unused)
0734:7BF2 26DA17              FICOM FLOAT PTR ES: [BX]
0734:7BF5 26DA18              FICOMP FLOAT PTR ES: [BX+SI]
0734:7BF8 DA19                FICOMP FLOAT PTR [BX+DI]
0734:7BFA DA1A                FICOMP FLOAT PTR [BP+SI]
0734:7BFC DA1B                FICOMP FLOAT PTR [BP+DI]
0734:7BFE DA1C                FICOMP FLOAT PTR [SI]
0734:7C00 26DA1D              FICOMP FLOAT PTR ES: [DI]
0734:7C03 36DA1E198F          FICOMP FLOAT PTR ES: [8F19]
0734:7C08 DA1F                FICOMP FLOAT PTR [BX]
0734:7C0A DA20                FISUB FLOAT PTR [BX+SI]
0734:7C0C 36DA21              FISUB FLOAT PTR ES: [BX+DI]
0734:7C0F 26DA22              FISUB FLOAT PTR ES: [BP+SI]
0734:7C12 DA23                FISUB FLOAT PTR [BP+DI]
0734:7C14 3EDA24              FISUB FLOAT PTR DS: [SI]
0734:7C17 DA25                FISUB FLOAT PTR [DI]
0734:7C19 26DA26CA5A          FISUB FLOAT PTR ES: [5ACA]
0734:7C1E DA27                FISUB FLOAT PTR [BX]
0734:7C20 26                  SEG ES (unused)
0734:7C21 26DA28              FISUBR FLOAT PTR ES: [BX+SI]
0734:7C24 DA29                FISUBR FLOAT PTR [BX+DI]
0734:7C26 DA2A                FISUBR FLOAT PTR [BP+SI]
0734:7C28 36DA2B              FISUBR FLOAT PTR ES: [BP+DI]
0734:7C2B 26DA2C              FISUBR FLOAT PTR ES: [SI]
0734:7C2E DA2D                FISUBR FLOAT PTR [DI]
0734:7C30 DA2E9414            FISUBR FLOAT PTR [1494]
0734:7C34 DA2F                FISUBR FLOAT PTR [BX]
0734:7C36 DA30                FIDIV FLOAT PTR [BX+SI]
0734:7C38 64DA31              FIDIV FLOAT PTR FS: [BX+DI]
0734:7C3B 26                  SEG ES (unused)
0734:7C3C 26DA32              FIDIV FLOAT PTR ES: [BP+SI]
0734:7C3F DA33                FIDIV FLOAT PTR [BP+DI]
0734:7C41 26DA34              FIDIV FLOAT PTR ES: [SI]
0734:7C44 26DA35              FIDIV FLOAT PTR ES: [DI]
0734:7C47 DA36364E            FIDIV FLOAT PTR [4E36]
0734:7C4B 26                  SEG ES (unused)
0734:7C4C 26DA37              FIDIV FLOAT PTR ES: [BX]
0734:7C4F DA38                FIDIVR FLOAT PTR [BX+SI]
0734:7C51 26DA39              FIDIVR FLOAT PTR ES: [BX+DI]
0734:7C54 DA3A                FIDIVR FLOAT PTR [BP+SI]
0734:7C56 DA3B                FIDIVR FLOAT PTR [BP+DI]
0734:7C58 26                  SEG ES (unused)
0734:7C59 26DA3C              FIDIVR FLOAT PTR ES: [SI]
0734:7C5C 26                  SEG ES (unused)
0734:7C5D 26DA3D              FIDIVR FLOAT PTR ES: [DI]
0734:7C60 3EDA3E78F0          FIDIVR FLOAT PTR DS: [F078]
0734:7C65 2EDA3F              FIDIVR FLOAT PTR CS: [BX]
0734:7C68 DA40E5              FIADD FLOAT PTR [BX+SI-E5]
0734:7C6B 26DA4172            FIADD FLOAT PTR ES: [BX+DI+72]
0734:7C6F DA4278              FIADD FLOAT PTR [BP+SI+78]
0734:7C72 64DA43D3            FIADD FLOAT PTR FS: [BP+DI-D3]
0734:7C76 2EDA4407            FIADD FLOAT PTR CS: [SI+07]
0734:7C7A 2EDA45D9            FIADD FLOAT PTR CS: [DI-D9]
0734:7C7E DA4621              FIADD FLOAT PTR [BP+21]
0734:7C81 DA4784              FIADD FLOAT PTR [BX-84]
0734:7C84 DA4875              FIMUL FLOAT PTR [BX+SI+75]
0734:7C87 2EDA49D2            FIMUL FLOAT PTR CS: [BX+DI-D2]
0734:7C8B 26                  SEG ES (unused)
0734:7C8C 26DA4AB8            FIMUL FLOAT PTR ES: [BP+SI-B8]
0734:7C90 64DA4BC1            FIMUL FLOAT PTR FS: [BP+DI-C1]
0734:7C94 26DA4C45            FIMUL FLOAT PTR ES: [SI+45]
0734:7C98 2EDA4D6C            FIMUL FLOAT PTR CS: [DI+6C]
0734:7C9C 3EDA4EC1            FIMUL FLOAT PTR DS: [BP-C1]
0734:7CA0 26                  SEG ES (unused)
0734:7CA1 26DA4F46            FIMUL FLOAT PTR ES: [BX+46]
0734:7CA5 3EDA502E            FICOM FLOAT PTR DS: [BX+SI+2E]
0734:7CA9 DA51AE              FICOM FLOAT PTR [BX+DI-AE]
0734:7CAC 3EDA52C8            FICOM FLOAT PTR DS: [BP+SI-C8]
0734:7CB0 26                  SEG ES (unused)
0734:7CB1 26DA53FE            FICOM FLOAT PTR ES: [BP+DI-FE]
0734:7CB5 3EDA5426            FICOM FLOAT PTR DS: [SI+26]
0734:7CB9 36DA5597            FICOM FLOAT PTR ES: [DI-97]
0734:7CBD 36DA569B            FICOM FLOAT PTR ES: [BP-9B]
0734:7CC1 36DA5703            FICOM FLOAT PTR ES: [BX+03]
0734:7CC5 2EDA58BD            FICOMP FLOAT PTR CS: [BX+SI-BD]
0734:7CC9 DA5948              FICOMP FLOAT PTR [BX+DI+48]
0734:7CCC 26                  SEG ES (unused)
0734:7CCD 26DA5A53            FICOMP FLOAT PTR ES: [BP+SI+53]
0734:7CD1 26DA5B09            FICOMP FLOAT PTR ES: [BP+DI+09]
0734:7CD5 26DA5C59            FICOMP FLOAT PTR ES: [SI+59]
0734:7CD9 64DA5DD2            FICOMP FLOAT PTR FS: [DI-D2]
0734:7CDD DA5E41              FICOMP FLOAT PTR [BP+41]
0734:7CE0 DA5FD5              FICOMP FLOAT PTR [BX-D5]
0734:7CE3 DA6085              FISUB FLOAT PTR [BX+SI-85]
0734:7CE6 26DA61F1            FISUB FLOAT PTR ES: [BX+DI-F1]
0734:7CEA DA6293              FISUB FLOAT PTR [BP+SI-93]
0734:7CED DA63AD              FISUB FLOAT PTR [BP+DI-AD]
0734:7CF0 DA6429              FISUB FLOAT PTR [SI+29]
0734:7CF3 DA6597              FISUB FLOAT PTR [DI-97]
0734:7CF6 36DA6698            FISUB FLOAT PTR ES: [BP-98]
0734:7CFA DA6766              FISUB FLOAT PTR [BX+66]
0734:7CFD 36DA681F            FISUBR FLOAT PTR ES: [BX+SI+1F]
0734:7D01 26                  SEG ES (unused)
0734:7D02 26DA696D            FISUBR FLOAT PTR ES: [BX+DI+6D]
0734:7D06 64DA6A19            FISUBR FLOAT PTR FS: [BP+SI+19]
0734:7D0A DA6B6C              FISUBR FLOAT PTR [BP+DI+6C]
0734:7D0D 3EDA6C09            FISUBR FLOAT PTR DS: [SI+09]
0734:7D11 DA6DFB              FISUBR FLOAT PTR [DI-FB]
0734:7D14 2EDA6E22            FISUBR FLOAT PTR CS: [BP+22]
0734:7D18 DA6F6C              FISUBR FLOAT PTR [BX+6C]
0734:7D1B 3EDA7018            FIDIV FLOAT PTR DS: [BX+SI+18]
0734:7D1F DA71BD              FIDIV FLOAT PTR [BX+DI-BD]
0734:7D22 2EDA7211            FIDIV FLOAT PTR CS: [BP+SI+11]
0734:7D26 26                  SEG ES (unused)
0734:7D27 26DA73C1            FIDIV FLOAT PTR ES: [BP+DI-C1]
0734:7D2B 36DA74C5            FIDIV FLOAT PTR ES: [SI-C5]
0734:7D2F 3EDA75C4            FIDIV FLOAT PTR DS: [DI-C4]
0734:7D33 64DA765A            FIDIV FLOAT PTR FS: [BP+5A]
0734:7D37 2EDA77AC            FIDIV FLOAT PTR CS: [BX-AC]
0734:7D3B DA78EB              FIDIVR FLOAT PTR [BX+SI-EB]
0734:7D3E DA79F2              FIDIVR FLOAT PTR [BX+DI-F2]
0734:7D41 DA7A99              FIDIVR FLOAT PTR [BP+SI-99]
0734:7D44 DA7BBA              FIDIVR FLOAT PTR [BP+DI-BA]
0734:7D47 3EDA7CB5            FIDIVR FLOAT PTR DS: [SI-B5]
0734:7D4B 64DA7DE7            FIDIVR FLOAT PTR FS: [DI-E7]
0734:7D4F DA7E4E              FIDIVR FLOAT PTR [BP+4E]
0734:7D52 64DA7F18            FIDIVR FLOAT PTR FS: [BX+18]
0734:7D56 DA809D3F            FIADD FLOAT PTR [BX+SI+3F9D]
0734:7D5A 3EDA818FFA          FIADD FLOAT PTR DS: [BX+DI+FA8F]
0734:7D5F 2EDA823B81          FIADD FLOAT PTR CS: [BP+SI+813B]
0734:7D64 DA838320            FIADD FLOAT PTR [BP+DI+2083]
0734:7D68 3EDA8452CB          FIADD FLOAT PTR DS: [SI+CB52]
0734:7D6D DA8535C8            FIADD FLOAT PTR [DI+C835]
0734:7D71 26DA869B15          FIADD FLOAT PTR ES: [BP+159B]
0734:7D76 DA874222            FIADD FLOAT PTR [BX+2242]
0734:7D7A 2EDA88913F          FIMUL FLOAT PTR CS: [BX+SI+3F91]
0734:7D7F DA8979E5            FIMUL FLOAT PTR [BX+DI+E579]
0734:7D83 DA8AF479            FIMUL FLOAT PTR [BP+SI+79F4]
0734:7D87 36DA8B1D24          FIMUL FLOAT PTR ES: [BP+DI+241D]
0734:7D8C DA8C2D61            FIMUL FLOAT PTR [SI+612D]
0734:7D90 DA8D3A9D            FIMUL FLOAT PTR [DI+9D3A]
0734:7D94 36DA8EC4E1          FIMUL FLOAT PTR ES: [BP+E1C4]
0734:7D99 DA8FD2C3            FIMUL FLOAT PTR [BX+C3D2]
0734:7D9D DA900835            FICOM FLOAT PTR [BX+SI+3508]
0734:7DA1 36DA91BB28          FICOM FLOAT PTR ES: [BX+DI+28BB]
0734:7DA6 DA92C034            FICOM FLOAT PTR [BP+SI+34C0]
0734:7DAA 26                  SEG ES (unused)
0734:7DAB 26DA93807A          FICOM FLOAT PTR ES: [BP+DI+7A80]
0734:7DB0 DA9434AA            FICOM FLOAT PTR [SI+AA34]
0734:7DB4 64DA95CE4D          FICOM FLOAT PTR FS: [DI+4DCE]
0734:7DB9 26                  SEG ES (unused)
0734:7DBA 26DA968EC7          FICOM FLOAT PTR ES: [BP+C78E]
0734:7DBF 2EDA977C58          FICOM FLOAT PTR CS: [BX+587C]
0734:7DC4 2EDA980065          FICOMP FLOAT PTR CS: [BX+SI+6500]
0734:7DC9 DA99CDB9            FICOMP FLOAT PTR [BX+DI+B9CD]
0734:7DCD DA9A034D            FICOMP FLOAT PTR [BP+SI+4D03]
0734:7DD1 DA9B13CB            FICOMP FLOAT PTR [BP+DI+CB13]
0734:7DD5 26DA9C7587          FICOMP FLOAT PTR ES: [SI+8775]
0734:7DDA DA9D594E            FICOMP FLOAT PTR [DI+4E59]
0734:7DDE 64DA9EB4B4          FICOMP FLOAT PTR FS: [BP+B4B4]
0734:7DE3 26DA9F47C9          FICOMP FLOAT PTR ES: [BX+C947]
0734:7DE8 36DAA0847A          FISUB FLOAT PTR ES: [BX+SI+7A84]
0734:7DED 3EDAA19095          FISUB FLOAT PTR DS: [BX+DI+9590]
0734:7DF2 DAA21CFD            FISUB FLOAT PTR [BP+SI+FD1C]
0734:7DF6 26                  SEG ES (unused)
0734:7DF7 26DAA3FEDF          FISUB FLOAT PTR ES: [BP+DI+DFFE]
0734:7DFC DAA4868E            FISUB FLOAT PTR [SI+8E86]
0734:7E00 DAA5C5A4            FISUB FLOAT PTR [DI+A4C5]
0734:7E04 36DAA69A1E          FISUB FLOAT PTR ES: [BP+1E9A]
0734:7E09 DAA70154            FISUB FLOAT PTR [BX+5401]
0734:7E0D DAA8EB9C            FISUBR FLOAT PTR [BX+SI+9CEB]
0734:7E11 DAA9FD48            FISUBR FLOAT PTR [BX+DI+48FD]
0734:7E15 DAAAA80D            FISUBR FLOAT PTR [BP+SI+0DA8]
0734:7E19 36DAAB8918          FISUBR FLOAT PTR ES: [BP+DI+1889]
0734:7E1E DAAC1269            FISUBR FLOAT PTR [SI+6912]
0734:7E22 36DAAD00D2          FISUBR FLOAT PTR ES: [DI+D200]
0734:7E27 36DAAEC1EB          FISUBR FLOAT PTR ES: [BP+EBC1]
0734:7E2C 3EDAAF451A          FISUBR FLOAT PTR DS: [BX+1A45]
0734:7E31 2EDAB0ACF0          FIDIV FLOAT PTR CS: [BX+SI+F0AC]
0734:7E36 DAB1BD59            FIDIV FLOAT PTR [BX+DI+59BD]
0734:7E3A DAB25131            FIDIV FLOAT PTR [BP+SI+3151]
0734:7E3E 64DAB324F3          FIDIV FLOAT PTR FS: [BP+DI+F324]
0734:7E43 DAB4A14F            FIDIV FLOAT PTR [SI+4FA1]
0734:7E47 DAB5D0AC            FIDIV FLOAT PTR [DI+ACD0]
0734:7E4B 36DAB6C21F          FIDIV FLOAT PTR ES: [BP+1FC2]
0734:7E50 DAB7A174            FIDIV FLOAT PTR [BX+74A1]
0734:7E54 3EDAB82700          FIDIVR FLOAT PTR DS: [BX+SI+0027]
0734:7E59 64DAB934A9          FIDIVR FLOAT PTR FS: [BX+DI+A934]
0734:7E5E DABA3D41            FIDIVR FLOAT PTR [BP+SI+413D]
0734:7E62 36DABBD204          FIDIVR FLOAT PTR ES: [BP+DI+04D2]
0734:7E67 36DABC92CB          FIDIVR FLOAT PTR ES: [SI+CB92]
0734:7E6C DABD17D8            FIDIVR FLOAT PTR [DI+D817]
0734:7E70 64DABE6472          FIDIVR FLOAT PTR FS: [BP+7264]
0734:7E75 DABF24BF            FIDIVR FLOAT PTR [BX+BF24]
0734:7E79 3E                  SEG DS (unused)
0734:7E7A DAC0                FCMOVB ST, ST(0)
0734:7E7C 2E                  SEG CS (unused)
0734:7E7D DAC1                FCMOVB ST, ST(1)
0734:7E7F 3E                  SEG DS (unused)
0734:7E80 DAC2                FCMOVB ST, ST(2)
0734:7E82 DAC3                FCMOVB ST, ST(3)
0734:7E84 DAC4                FCMOVB ST, ST(4)
0734:7E86 26                  SEG ES (unused)
0734:7E87 DAC5                FCMOVB ST, ST(5)
0734:7E89 DAC6                FCMOVB ST, ST(6)
0734:7E8B 26                  SEG ES (unused)
0734:7E8C DAC7                FCMOVB ST, ST(7)
0734:7E8E 26                  SEG ES (unused)
0734:7E8F DAC8                FCMOVE ST, ST(0)
0734:7E91 26                  SEG ES (unused)
0734:7E92 26                  SEG ES (unused)
0734:7E93 DAC9                FCMOVE ST, ST(1)
0734:7E95 DACA                FCMOVE ST, ST(2)
0734:7E97 DACB                FCMOVE ST, ST(3)
0734:7E99 DACC                FCMOVE ST, ST(4)
0734:7E9B DACD                FCMOVE ST, ST(5)
0734:7E9D 3E                  SEG DS (unused)
0734:7E9E DACE                FCMOVE ST, ST(6)
0734:7EA0 DACF                FCMOVE ST, ST(7)
0734:7EA2 26                  SEG ES (unused)
0734:7EA3 DAD0                FCMOVBE ST, ST(0)
0734:7EA5 26                  SEG ES (unused)
0734:7EA6 DAD1                FCMOVBE ST, ST(1)
0734:7EA8 26                  SEG ES (unused)
0734:7EA9 DAD2                FCMOVBE ST, ST(2)
0734:7EAB DAD3                FCMOVBE ST, ST(3)
0734:7EAD DAD4                FCMOVBE ST, ST(4)
0734:7EAF 3E                  SEG DS (unused)
0734:7EB0 DAD5                FCMOVBE ST, ST(5)
0734:7EB2 DAD6                FCMOVBE ST, ST(6)
0734:7EB4 DAD7                FCMOVBE ST, ST(7)
0734:7EB6 DAD8                FCMOVU ST, ST(0)
0734:7EB8 DAD9                FCMOVU ST, ST(1)
0734:7EBA 26                  SEG ES (unused)
0734:7EBB DADA                FCMOVU ST, ST(2)
0734:7EBD DADB                FCMOVU ST, ST(3)
0734:7EBF DADC                FCMOVU ST, ST(4)
0734:7EC1 3E                  SEG DS (unused)
0734:7EC2 DADD                FCMOVU ST, ST(5)
0734:7EC4 DADE                FCMOVU ST, ST(6)
0734:7EC6 64                  SEG FS (unused)
0734:7EC7 DADF                FCMOVU ST, ST(7)
0734:7EC9 3E                  SEG DS (unused)
0734:7ECA DAE9                FUCOMPP
0734:7ECC DB00                FILD FLOAT PTR [BX+SI]
0734:7ECE 26                  SEG ES (unused)
0734:7ECF 26DB01              FILD FLOAT PTR ES: [BX+DI]
0734:7ED2 64DB02              FILD FLOAT PTR FS: [BP+SI]
0734:7ED5 26                  SEG ES (unused)
0734:7ED6 26DB03              FILD FLOAT PTR ES: [BP+DI]
0734:7ED9 2EDB04              FILD FLOAT PTR CS: [SI]
0734:7EDC DB05                FILD FLOAT PTR [DI]
0734:7EDE DB066B6E            FILD FLOAT PTR [6E6B]
0734:7EE2 DB07                FILD FLOAT PTR [BX]
0734:7EE4 DB10                FIST FLOAT PTR [BX+SI]
0734:7EE6 DB11                FIST FLOAT PTR [BX+DI]
0734:7EE8 26DB12              FIST FLOAT PTR ES: [BP+SI]
0734:7EEB DB13                FIST FLOAT PTR [BP+DI]
0734:7EED 64DB14              FIST FLOAT PTR FS: [SI]
0734:7EF0 26                  SEG ES (unused)
0734:7EF1 26DB15              FIST FLOAT PTR ES: [DI]
0734:7EF4 DB16369A            FIST FLOAT PTR [9A36]
0734:7EF8 DB17                FIST FLOAT PTR [BX]
0734:7EFA 3EDB18              FISTP FLOAT PTR DS: [BX+SI]
0734:7EFD DB19                FISTP FLOAT PTR [BX+DI]
0734:7EFF DB1A                FISTP FLOAT PTR [BP+SI]
0734:7F01 DB1B                FISTP FLOAT PTR [BP+DI]
0734:7F03 DB1C                FISTP FLOAT PTR [SI]
0734:7F05 2EDB1D              FISTP FLOAT PTR CS: [DI]
0734:7F08 DB1E167A            FISTP FLOAT PTR [7A16]
0734:7F0C 3EDB1F              FISTP FLOAT PTR DS: [BX]
0734:7F0F 36DB28              FLD TBYTE PTR ES: [BX+SI]
0734:7F12 DB29                FLD TBYTE PTR [BX+DI]
0734:7F14 2EDB2A              FLD TBYTE PTR CS: [BP+SI]
0734:7F17 26DB2B              FLD TBYTE PTR ES: [BP+DI]
0734:7F1A DB2C                FLD TBYTE PTR [SI]
0734:7F1C 36DB2D              FLD TBYTE PTR ES: [DI]
0734:7F1F 64DB2EB8AD          FLD TBYTE PTR FS: [ADB8]
0734:7F24 DB2F                FLD TBYTE PTR [BX]
0734:7F26 DB38                FSTP TBYTE PTR [BX+SI]
0734:7F28 DB39                FSTP TBYTE PTR [BX+DI]
0734:7F2A DB3A                FSTP TBYTE PTR [BP+SI]
0734:7F2C DB3B                FSTP TBYTE PTR [BP+DI]
0734:7F2E 64DB3C              FSTP TBYTE PTR FS: [SI]
0734:7F31 2EDB3D              FSTP TBYTE PTR CS: [DI]
0734:7F34 26                  SEG ES (unused)
0734:7F35 26DB3E9B7A          FSTP TBYTE PTR ES: [7A9B]
0734:7F3A DB3F                FSTP TBYTE PTR [BX]
0734:7F3C DB402C              FILD FLOAT PTR [BX+SI+2C]
0734:7F3F DB411D              FILD FLOAT PTR [BX+DI+1D]
0734:7F42 36DB4284            FILD FLOAT PTR ES: [BP+SI-84]
0734:7F46 2EDB4377            FILD FLOAT PTR CS: [BP+DI+77]
0734:7F4A 2EDB4468            FILD FLOAT PTR CS: [SI+68]
0734:7F4E DB4551              FILD FLOAT PTR [DI+51]
0734:7F51 DB46BA              FILD FLOAT PTR [BP-BA]
0734:7F54 DB4779              FILD FLOAT PTR [BX+79]
0734:7F57 64DB5033            FIST FLOAT PTR FS: [BX+SI+33]
0734:7F5B 26                  SEG ES (unused)
0734:7F5C 26DB5165            FIST FLOAT PTR ES: [BX+DI+65]
0734:7F60 DB5251              FIST FLOAT PTR [BP+SI+51]
0734:7F63 26DB5354            FIST FLOAT PTR ES: [BP+DI+54]
0734:7F67 26DB54A9            FIST FLOAT PTR ES: [SI-A9]
0734:7F6B 26DB5599            FIST FLOAT PTR ES: [DI-99]
0734:7F6F DB5661              FIST FLOAT PTR [BP+61]
0734:7F72 DB57DF              FIST FLOAT PTR [BX-DF]
0734:7F75 DB58B2              FISTP FLOAT PTR [BX+SI-B2]
0734:7F78 26DB5979            FISTP FLOAT PTR ES: [BX+DI+79]
0734:7F7C DB5A0C              FISTP FLOAT PTR [BP+SI+0C]
0734:7F7F 64DB5B6F            FISTP FLOAT PTR FS: [BP+DI+6F]
0734:7F83 3EDB5CBA            FISTP FLOAT PTR DS: [SI-BA]
0734:7F87 26DB5D8A            FISTP FLOAT PTR ES: [DI-8A]
0734:7F8B 26DB5ED6            FISTP FLOAT PTR ES: [BP-D6]
0734:7F8F 26                  SEG ES (unused)
0734:7F90 26DB5FAE            FISTP FLOAT PTR ES: [BX-AE]
0734:7F94 DB6893              FLD TBYTE PTR [BX+SI-93]
0734:7F97 DB6931              FLD TBYTE PTR [BX+DI+31]
0734:7F9A 2EDB6A8E            FLD TBYTE PTR CS: [BP+SI-8E]
0734:7F9E DB6B30              FLD TBYTE PTR [BP+DI+30]
0734:7FA1 26                  SEG ES (unused)
0734:7FA2 26DB6C8D            FLD TBYTE PTR ES: [SI-8D]
0734:7FA6 64DB6D70            FLD TBYTE PTR FS: [DI+70]
0734:7FAA 64DB6E67            FLD TBYTE PTR FS: [BP+67]
0734:7FAE 2EDB6FC1            FLD TBYTE PTR CS: [BX-C1]
0734:7FB2 26DB78CB            FSTP TBYTE PTR ES: [BX+SI-CB]
0734:7FB6 DB79A1              FSTP TBYTE PTR [BX+DI-A1]
0734:7FB9 64DB7A56            FSTP TBYTE PTR FS: [BP+SI+56]
0734:7FBD DB7BB4              FSTP TBYTE PTR [BP+DI-B4]
0734:7FC0 DB7C62              FSTP TBYTE PTR [SI+62]
0734:7FC3 DB7D76              FSTP TBYTE PTR [DI+76]
0734:7FC6 DB7EE9              FSTP TBYTE PTR [BP-E9]
0734:7FC9 DB7F64              FSTP TBYTE PTR [BX+64]
0734:7FCC 36DB80CF93          FILD FLOAT PTR ES: [BX+SI+93CF]
0734:7FD1 26                  SEG ES (unused)
0734:7FD2 26DB814FDC          FILD FLOAT PTR ES: [BX+DI+DC4F]
0734:7FD7 DB82744F            FILD FLOAT PTR [BP+SI+4F74]
0734:7FDB DB832E04            FILD FLOAT PTR [BP+DI+042E]
0734:7FDF DB842D34            FILD FLOAT PTR [SI+342D]
0734:7FE3 36DB858676          FILD FLOAT PTR ES: [DI+7686]
0734:7FE8 36DB86348F          FILD FLOAT PTR ES: [BP+8F34]
0734:7FED 3EDB8797D4          FILD FLOAT PTR DS: [BX+D497]
0734:7FF2 DB90143C            FIST FLOAT PTR [BX+SI+3C14]
0734:7FF6 DB91294B            FIST FLOAT PTR [BX+DI+4B29]
0734:7FFA 64DB92EE56          FIST FLOAT PTR FS: [BP+SI+56EE]
0734:7FFF 26                  SEG ES (unused)
0734:8000 26DB93D656          FIST FLOAT PTR ES: [BP+DI+56D6]
0734:8005 64DB94A623          FIST FLOAT PTR FS: [SI+23A6]
0734:800A 26DB954F7A          FIST FLOAT PTR ES: [DI+7A4F]
0734:800F 26                  SEG ES (unused)
0734:8010 26DB960373          FIST FLOAT PTR ES: [BP+7303]
0734:8015 DB972830            FIST FLOAT PTR [BX+3028]
0734:8019 DB98577C            FISTP FLOAT PTR [BX+SI+7C57]
0734:801D 64DB999ED8          FISTP FLOAT PTR FS: [BX+DI+D89E]
0734:8022 36DB9A6435          FISTP FLOAT PTR ES: [BP+SI+3564]
0734:8027 3EDB9B0272          FISTP FLOAT PTR DS: [BP+DI+7202]
0734:802C DB9CBD52            FISTP FLOAT PTR [SI+52BD]
0734:8030 36DB9DDC52          FISTP FLOAT PTR ES: [DI+52DC]
0734:8035 2EDB9E88CC          FISTP FLOAT PTR CS: [BP+CC88]
0734:803A 26DB9F3EBA          FISTP FLOAT PTR ES: [BX+BA3E]
0734:803F 64DBA8A61E          FLD TBYTE PTR FS: [BX+SI+1EA6]
0734:8044 DBA98C76            FLD TBYTE PTR [BX+DI+768C]
0734:8048 DBAAFF37            FLD TBYTE PTR [BP+SI+37FF]
0734:804C 3EDBAB1D52          FLD TBYTE PTR DS: [BP+DI+521D]
0734:8051 DBACDAAD            FLD TBYTE PTR [SI+ADDA]
0734:8055 DBAD79EC            FLD TBYTE PTR [DI+EC79]
0734:8059 36DBAE9EF7          FLD TBYTE PTR ES: [BP+F79E]
0734:805E 26                  SEG ES (unused)
0734:805F 26DBAF1E08          FLD TBYTE PTR ES: [BX+081E]
0734:8064 DBB81C8D            FSTP TBYTE PTR [BX+SI+8D1C]
0734:8068 36DBB94B05          FSTP TBYTE PTR ES: [BX+DI+054B]
0734:806D DBBAB028            FSTP TBYTE PTR [BP+SI+28B0]
0734:8071 DBBB34B6            FSTP TBYTE PTR [BP+DI+B634]
0734:8075 3EDBBCA533          FSTP TBYTE PTR DS: [SI+33A5]
0734:807A DBBD55BC            FSTP TBYTE PTR [DI+BC55]
0734:807E DBBE8E1C            FSTP TBYTE PTR [BP+1C8E]
0734:8082 DBBF80F5            FSTP TBYTE PTR [BX+F580]
0734:8086 26                  SEG ES (unused)
0734:8087 26                  SEG ES (unused)
0734:8088 DBC0                FCMOVNB ST, ST(0)
0734:808A 64                  SEG FS (unused)
0734:808B DBC1                FCMOVNB ST, ST(1)
0734:808D 26                  SEG ES (unused)
0734:808E DBC2                FCMOVNB ST, ST(2)
0734:8090 64                  SEG FS (unused)
0734:8091 DBC3                FCMOVNB ST, ST(3)
0734:8093 DBC4                FCMOVNB ST, ST(4)
0734:8095 DBC5                FCMOVNB ST, ST(5)
0734:8097 64                  SEG FS (unused)
0734:8098 DBC6                FCMOVNB ST, ST(6)
0734:809A DBC7                FCMOVNB ST, ST(7)
0734:809C 64                  SEG FS (unused)
0734:809D DBC8                FCMOVNE ST, ST(0)
0734:809F DBC9                FCMOVNE ST, ST(1)
0734:80A1 64                  SEG FS (unused)
0734:80A2 DBCA                FCMOVNE ST, ST(2)
0734:80A4 26                  SEG ES (unused)
0734:80A5 26                  SEG ES (unused)
0734:80A6 DBCB                FCMOVNE ST, ST(3)
0734:80A8 DBCC                FCMOVNE ST, ST(4)
0734:80AA 64                  SEG FS (unused)
0734:80AB DBCD                FCMOVNE ST, ST(5)
0734:80AD 3E                  SEG DS (unused)
0734:80AE DBCE                FCMOVNE ST, ST(6)
0734:80B0 DBCF                FCMOVNE ST, ST(7)
0734:80B2 2E                  SEG CS (unused)
0734:80B3 DBD0                FCMOVNBE ST, ST(0)
0734:80B5 26                  SEG ES (unused)
0734:80B6 DBD1                FCMOVNBE ST, ST(1)
0734:80B8 64                  SEG FS (unused)
0734:80B9 DBD2                FCMOVNBE ST, ST(2)
0734:80BB 26                  SEG ES (unused)
0734:80BC DBD3                FCMOVNBE ST, ST(3)
0734:80BE DBD4                FCMOVNBE ST, ST(4)
0734:80C0 DBD5                FCMOVNBE ST, ST(5)
0734:80C2 26                  SEG ES (unused)
0734:80C3 DBD6                FCMOVNBE ST, ST(6)
0734:80C5 DBD7                FCMOVNBE ST, ST(7)
0734:80C7 64                  SEG FS (unused)
0734:80C8 DBD8                FCMOVNU ST, ST(0)
0734:80CA 2E                  SEG CS (unused)
0734:80CB DBD9                FCMOVNU ST, ST(1)
0734:80CD DBDA                FCMOVNU ST, ST(2)
0734:80CF DBDB                FCMOVNU ST, ST(3)
0734:80D1 26                  SEG ES (unused)
0734:80D2 26                  SEG ES (unused)
0734:80D3 DBDC                FCMOVNU ST, ST(4)
0734:80D5 3E                  SEG DS (unused)
0734:80D6 DBDD                FCMOVNU ST, ST(5)
0734:80D8 DBDE                FCMOVNU ST, ST(6)
0734:80DA DBDF                FCMOVNU ST, ST(7)
0734:80DC DBE0                FNENI
0734:80DE DBE1                FNDISI
0734:80E0 DBE2                FNCLEX
0734:80E2 DBE3                FNINIT
0734:80E4 DBE4                FNSETPM
0734:80E6 64                  SEG FS (unused)
0734:80E7 DBF0                FCOMI ST(0)
0734:80E9 26                  SEG ES (unused)
0734:80EA DBF1                FCOMI ST(1)
0734:80EC 26                  SEG ES (unused)
0734:80ED DBF2                FCOMI ST(2)
0734:80EF DBF3                FCOMI ST(3)
0734:80F1 26                  SEG ES (unused)
0734:80F2 DBF4                FCOMI ST(4)
0734:80F4 26                  SEG ES (unused)
0734:80F5 DBF5                FCOMI ST(5)
0734:80F7 26                  SEG ES (unused)
0734:80F8 26                  SEG ES (unused)
0734:80F9 DBF6                FCOMI ST(6)
0734:80FB 64                  SEG FS (unused)
0734:80FC DBF7                FCOMI ST(7)
0734:80FE 64DC00              FADD DWORD PTR FS: [BX+SI]
0734:8101 DC01                FADD DWORD PTR [BX+DI]
0734:8103 3EDC02              FADD DWORD PTR DS: [BP+SI]
0734:8106 26                  SEG ES (unused)
0734:8107 26DC03              FADD DWORD PTR ES: [BP+DI]
0734:810A DC04                FADD DWORD PTR [SI]
0734:810C 36DC05              FADD DWORD PTR ES: [DI]
0734:810F DC06ECE7            FADD DWORD PTR [E7EC]
0734:8113 DC07                FADD DWORD PTR [BX]
0734:8115 36DC08              FMUL DWORD PTR ES: [BX+SI]
0734:8118 3EDC09              FMUL DWORD PTR DS: [BX+DI]
0734:811B 26                  SEG ES (unused)
0734:811C 26DC0A              FMUL DWORD PTR ES: [BP+SI]
0734:811F DC0B                FMUL DWORD PTR [BP+DI]
0734:8121 26                  SEG ES (unused)
0734:8122 26DC0C              FMUL DWORD PTR ES: [SI]
0734:8125 DC0D                FMUL DWORD PTR [DI]
0734:8127 3EDC0E9786          FMUL DWORD PTR DS: [8697]
0734:812C 26                  SEG ES (unused)
0734:812D 26DC0F              FMUL DWORD PTR ES: [BX]
0734:8130 26                  SEG ES (unused)
0734:8131 26DC10              FCOM DWORD PTR ES: [BX+SI]
0734:8134 2EDC11              FCOM DWORD PTR CS: [BX+DI]
0734:8137 DC12                FCOM DWORD PTR [BP+SI]
0734:8139 3EDC13              FCOM DWORD PTR DS: [BP+DI]
0734:813C DC14                FCOM DWORD PTR [SI]
0734:813E 64DC15              FCOM DWORD PTR FS: [DI]
0734:8141 DC16069A            FCOM DWORD PTR [9A06]
0734:8145 26DC17              FCOM DWORD PTR ES: [BX]
0734:8148 DC18                FCOMP DWORD PTR [BX+SI]
0734:814A DC19                FCOMP DWORD PTR [BX+DI]
0734:814C 64DC1A              FCOMP DWORD PTR FS: [BP+SI]
0734:814F DC1B                FCOMP DWORD PTR [BP+DI]
0734:8151 DC1C                FCOMP DWORD PTR [SI]
0734:8153 3EDC1D              FCOMP DWORD PTR DS: [DI]
0734:8156 3EDC1E8B2C          FCOMP DWORD PTR DS: [2C8B]
0734:815B 26DC1F              FCOMP DWORD PTR ES: [BX]
0734:815E 64DC20              FSUB DWORD PTR FS: [BX+SI]
0734:8161 26                  SEG ES (unused)
0734:8162 26DC21              FSUB DWORD PTR ES: [BX+DI]
0734:8165 DC22                FSUB DWORD PTR [BP+SI]
0734:8167 36DC23              FSUB DWORD PTR ES: [BP+DI]
0734:816A DC24                FSUB DWORD PTR [SI]
0734:816C DC25                FSUB DWORD PTR [DI]
0734:816E DC260ACE            FSUB DWORD PTR [CE0A]
0734:8172 26                  SEG ES (unused)
0734:8173 26DC27              FSUB DWORD PTR ES: [BX]
0734:8176 DC28                FSUBR DWORD PTR [BX+SI]
0734:8178 3EDC29              FSUBR DWORD PTR DS: [BX+DI]
0734:817B DC2A                FSUBR DWORD PTR [BP+SI]
0734:817D DC2B                FSUBR DWORD PTR [BP+DI]
0734:817F 64DC2C              FSUBR DWORD PTR FS: [SI]
0734:8182 DC2D                FSUBR DWORD PTR [DI]
0734:8184 36DC2E3A1D          FSUBR DWORD PTR ES: [1D3A]
0734:8189 DC2F                FSUBR DWORD PTR [BX]
0734:818B 26DC30              FDIV DWORD PTR ES: [BX+SI]
0734:818E 26DC31              FDIV DWORD PTR ES: [BX+DI]
0734:8191 DC32                FDIV DWORD PTR [BP+SI]
0734:8193 DC33                FDIV DWORD PTR [BP+DI]
0734:8195 26DC34              FDIV DWORD PTR ES: [SI]
0734:8198 DC35                FDIV DWORD PTR [DI]
0734:819A 64DC36E532          FDIV DWORD PTR FS: [32E5]
0734:819F 64DC37              FDIV DWORD PTR FS: [BX]
0734:81A2 64DC38              FDIVR DWORD PTR FS: [BX+SI]
0734:81A5 2EDC39              FDIVR DWORD PTR CS: [BX+DI]
0734:81A8 64DC3A              FDIVR DWORD PTR FS: [BP+SI]
0734:81AB 3EDC3B              FDIVR DWORD PTR DS: [BP+DI]
0734:81AE DC3C                FDIVR DWORD PTR [SI]
0734:81B0 DC3D                FDIVR DWORD PTR [DI]
0734:81B2 2EDC3ECE39          FDIVR DWORD PTR CS: [39CE]
0734:81B7 36DC3F              FDIVR DWORD PTR ES: [BX]
0734:81BA 36DC40C6            FADD DWORD PTR ES: [BX+SI-C6]
0734:81BE DC41E0              FADD DWORD PTR [BX+DI-E0]
0734:81C1 2EDC425F            FADD DWORD PTR CS: [BP+SI+5F]
0734:81C5 26DC4330            FADD DWORD PTR ES: [BP+DI+30]
0734:81C9 2EDC4474            FADD DWORD PTR CS: [SI+74]
0734:81CD DC45CE              FADD DWORD PTR [DI-CE]
0734:81D0 26                  SEG ES (unused)
0734:81D1 26DC4669            FADD DWORD PTR ES: [BP+69]
0734:81D5 DC4778              FADD DWORD PTR [BX+78]
0734:81D8 2EDC486A            FMUL DWORD PTR CS: [BX+SI+6A]
0734:81DC 3EDC4968            FMUL DWORD PTR DS: [BX+DI+68]
0734:81E0 DC4AB2              FMUL DWORD PTR [BP+SI-B2]
0734:81E3 DC4B67              FMUL DWORD PTR [BP+DI+67]
0734:81E6 DC4C03              FMUL DWORD PTR [SI+03]
0734:81E9 64DC4D00            FMUL DWORD PTR FS: [DI+00]
0734:81ED DC4EB6              FMUL DWORD PTR [BP-B6]
0734:81F0 DC4F54              FMUL DWORD PTR [BX+54]
0734:81F3 DC509D              FCOM DWORD PTR [BX+SI-9D]
0734:81F6 DC513F              FCOM DWORD PTR [BX+DI+3F]
0734:81F9 2EDC5256            FCOM DWORD PTR CS: [BP+SI+56]
0734:81FD DC53F7              FCOM DWORD PTR [BP+DI-F7]
0734:8200 DC5499              FCOM DWORD PTR [SI-99]
0734:8203 36DC5575            FCOM DWORD PTR ES: [DI+75]
0734:8207 DC5697              FCOM DWORD PTR [BP-97]
0734:820A 36DC57C2            FCOM DWORD PTR ES: [BX-C2]
0734:820E DC5828              FCOMP DWORD PTR [BX+SI+28]
0734:8211 DC590A              FCOMP DWORD PTR [BX+DI+0A]
0734:8214 DC5A19              FCOMP DWORD PTR [BP+SI+19]
0734:8217 DC5B3F              FCOMP DWORD PTR [BP+DI+3F]
0734:821A 2EDC5CE6            FCOMP DWORD PTR CS: [SI-E6]
0734:821E DC5DC5              FCOMP DWORD PTR [DI-C5]
0734:8221 DC5EE3              FCOMP DWORD PTR [BP-E3]
0734:8224 36DC5F0F            FCOMP DWORD PTR ES: [BX+0F]
0734:8228 36DC6064            FSUB DWORD PTR ES: [BX+SI+64]
0734:822C DC616E              FSUB DWORD PTR [BX+DI+6E]
0734:822F DC627B              FSUB DWORD PTR [BP+SI+7B]
0734:8232 3EDC6324            FSUB DWORD PTR DS: [BP+DI+24]
0734:8236 DC64CC              FSUB DWORD PTR [SI-CC]
0734:8239 DC65E9              FSUB DWORD PTR [DI-E9]
0734:823C 36DC66BD            FSUB DWORD PTR ES: [BP-BD]
0734:8240 26                  SEG ES (unused)
0734:8241 26DC6708            FSUB DWORD PTR ES: [BX+08]
0734:8245 DC6818              FSUBR DWORD PTR [BX+SI+18]
0734:8248 26                  SEG ES (unused)
0734:8249 26DC6936            FSUBR DWORD PTR ES: [BX+DI+36]
0734:824D 3EDC6A90            FSUBR DWORD PTR DS: [BP+SI-90]
0734:8251 64DC6B9D            FSUBR DWORD PTR FS: [BP+DI-9D]
0734:8255 26                  SEG ES (unused)
0734:8256 26DC6CD3            FSUBR DWORD PTR ES: [SI-D3]
0734:825A 26                  SEG ES (unused)
0734:825B 26DC6D4C            FSUBR DWORD PTR ES: [DI+4C]
0734:825F DC6E91              FSUBR DWORD PTR [BP-91]
0734:8262 DC6F3B              FSUBR DWORD PTR [BX+3B]
0734:8265 3EDC7037            FDIV DWORD PTR DS: [BX+SI+37]
0734:8269 DC719B              FDIV DWORD PTR [BX+DI-9B]
0734:826C 36DC721B            FDIV DWORD PTR ES: [BP+SI+1B]
0734:8270 36DC73C7            FDIV DWORD PTR ES: [BP+DI-C7]
0734:8274 DC74AF              FDIV DWORD PTR [SI-AF]
0734:8277 36DC7569            FDIV DWORD PTR ES: [DI+69]
0734:827B 64DC760E            FDIV DWORD PTR FS: [BP+0E]
0734:827F DC778A              FDIV DWORD PTR [BX-8A]
0734:8282 DC7846              FDIVR DWORD PTR [BX+SI+46]
0734:8285 DC7934              FDIVR DWORD PTR [BX+DI+34]
0734:8288 DC7A6D              FDIVR DWORD PTR [BP+SI+6D]
0734:828B 64DC7B06            FDIVR DWORD PTR FS: [BP+DI+06]
0734:828F DC7C4E              FDIVR DWORD PTR [SI+4E]
0734:8292 64DC7D05            FDIVR DWORD PTR FS: [DI+05]
0734:8296 3EDC7EFB            FDIVR DWORD PTR DS: [BP-FB]
0734:829A DC7FC5              FDIVR DWORD PTR [BX-C5]
0734:829D DC80A143            FADD DWORD PTR [BX+SI+43A1]
0734:82A1 DC8150D9            FADD DWORD PTR [BX+DI+D950]
0734:82A5 2EDC82A03F          FADD DWORD PTR CS: [BP+SI+3FA0]
0734:82AA 2EDC837293          FADD DWORD PTR CS: [BP+DI+9372]
0734:82AF DC8480E8            FADD DWORD PTR [SI+E880]
0734:82B3 26                  SEG ES (unused)
0734:82B4 26DC856DAB          FADD DWORD PTR ES: [DI+AB6D]
0734:82B9 DC860A00            FADD DWORD PTR [BP+000A]
0734:82BD DC874DD9            FADD DWORD PTR [BX+D94D]
0734:82C1 DC8825F0            FMUL DWORD PTR [BX+SI+F025]
0734:82C5 DC89B0AA            FMUL DWORD PTR [BX+DI+AAB0]
0734:82C9 26DC8A4022          FMUL DWORD PTR ES: [BP+SI+2240]
0734:82CE 36DC8B7672          FMUL DWORD PTR ES: [BP+DI+7276]
0734:82D3 DC8CC48B            FMUL DWORD PTR [SI+8BC4]
0734:82D7 26DC8D66B6          FMUL DWORD PTR ES: [DI+B666]
0734:82DC DC8EA152            FMUL DWORD PTR [BP+52A1]
0734:82E0 DC8F1DD0            FMUL DWORD PTR [BX+D01D]
0734:82E4 DC90BF27            FCOM DWORD PTR [BX+SI+27BF]
0734:82E8 DC918BA2            FCOM DWORD PTR [BX+DI+A28B]
0734:82EC DC92F368            FCOM DWORD PTR [BP+SI+68F3]
0734:82F0 DC9321FA            FCOM DWORD PTR [BP+DI+FA21]
0734:82F4 26                  SEG ES (unused)
0734:82F5 26DC948F79          FCOM DWORD PTR ES: [SI+798F]
0734:82FA DC957DD1            FCOM DWORD PTR [DI+D17D]
0734:82FE DC967D4A            FCOM DWORD PTR [BP+4A7D]
0734:8302 DC971A55            FCOM DWORD PTR [BX+551A]
0734:8306 DC98C957            FCOMP DWORD PTR [BX+SI+57C9]
0734:830A 3EDC996F1C          FCOMP DWORD PTR DS: [BX+DI+1C6F]
0734:830F 3EDC9A68DB          FCOMP DWORD PTR DS: [BP+SI+DB68]
0734:8314 DC9BB3FA            FCOMP DWORD PTR [BP+DI+FAB3]
0734:8318 DC9C1DA2            FCOMP DWORD PTR [SI+A21D]
0734:831C DC9DF698            FCOMP DWORD PTR [DI+98F6]
0734:8320 DC9ECE15            FCOMP DWORD PTR [BP+15CE]
0734:8324 DC9FDC45            FCOMP DWORD PTR [BX+45DC]
0734:8328 36DCA0A43B          FSUB DWORD PTR ES: [BX+SI+3BA4]
0734:832D DCA1AA82            FSUB DWORD PTR [BX+DI+82AA]
0734:8331 26                  SEG ES (unused)
0734:8332 26DCA2CEC2          FSUB DWORD PTR ES: [BP+SI+C2CE]
0734:8337 64DCA3AD81          FSUB DWORD PTR FS: [BP+DI+81AD]
0734:833C DCA440B3            FSUB DWORD PTR [SI+B340]
0734:8340 DCA50EE3            FSUB DWORD PTR [DI+E30E]
0734:8344 DCA6E0A9            FSUB DWORD PTR [BP+A9E0]
0734:8348 DCA7C093            FSUB DWORD PTR [BX+93C0]
0734:834C 64DCA8BCAF          FSUBR DWORD PTR FS: [BX+SI+AFBC]
0734:8351 DCA9046C            FSUBR DWORD PTR [BX+DI+6C04]
0734:8355 36DCAAB723          FSUBR DWORD PTR ES: [BP+SI+23B7]
0734:835A 3EDCABD0E4          FSUBR DWORD PTR DS: [BP+DI+E4D0]
0734:835F DCAC84D3            FSUBR DWORD PTR [SI+D384]
0734:8363 DCAD97A7            FSUBR DWORD PTR [DI+A797]
0734:8367 2EDCAE342F          FSUBR DWORD PTR CS: [BP+2F34]
0734:836C DCAF87D5            FSUBR DWORD PTR [BX+D587]
0734:8370 26                  SEG ES (unused)
0734:8371 26DCB0F7ED          FDIV DWORD PTR ES: [BX+SI+EDF7]
0734:8376 3EDCB1C4CE          FDIV DWORD PTR DS: [BX+DI+CEC4]
0734:837B 3EDCB2D167          FDIV DWORD PTR DS: [BP+SI+67D1]
0734:8380 26                  SEG ES (unused)
0734:8381 26DCB3E7DD          FDIV DWORD PTR ES: [BP+DI+DDE7]
0734:8386 3EDCB4B8E5          FDIV DWORD PTR DS: [SI+E5B8]
0734:838B DCB5C9C3            FDIV DWORD PTR [DI+C3C9]
0734:838F DCB66765            FDIV DWORD PTR [BP+6567]
0734:8393 2EDCB7CD5F          FDIV DWORD PTR CS: [BX+5FCD]
0734:8398 36DCB832EE          FDIVR DWORD PTR ES: [BX+SI+EE32]
0734:839D DCB9BA75            FDIVR DWORD PTR [BX+DI+75BA]
0734:83A1 36DCBA80F2          FDIVR DWORD PTR ES: [BP+SI+F280]
0734:83A6 26DCBB0C8C          FDIVR DWORD PTR ES: [BP+DI+8C0C]
0734:83AB 26                  SEG ES (unused)
0734:83AC 26DCBC69C6          FDIVR DWORD PTR ES: [SI+C669]
0734:83B1 2EDCBDF891          FDIVR DWORD PTR CS: [DI+91F8]
0734:83B6 26                  SEG ES (unused)
0734:83B7 26DCBE9DB6          FDIVR DWORD PTR ES: [BP+B69D]
0734:83BC 3EDCBF06FA          FDIVR DWORD PTR DS: [BX+FA06]
0734:83C1 2E                  SEG CS (unused)
0734:83C2 DCC0                FADD ST(0), ST
0734:83C4 3E                  SEG DS (unused)
0734:83C5 DCC1                FADD ST(1), ST
0734:83C7 2E                  SEG CS (unused)
0734:83C8 DCC2                FADD ST(2), ST
0734:83CA 64                  SEG FS (unused)
0734:83CB DCC3                FADD ST(3), ST
0734:83CD 26                  SEG ES (unused)
0734:83CE DCC4                FADD ST(4), ST
0734:83D0 26                  SEG ES (unused)
0734:83D1 DCC5                FADD ST(5), ST
0734:83D3 3E                  SEG DS (unused)
0734:83D4 DCC6                FADD ST(6), ST
0734:83D6 26                  SEG ES (unused)
0734:83D7 DCC7                FADD ST(7), ST
0734:83D9 DCC8                FMUL ST(0), ST
0734:83DB DCC9                FMUL ST(1), ST
0734:83DD 26                  SEG ES (unused)
0734:83DE 26                  SEG ES (unused)
0734:83DF DCCA                FMUL ST(2), ST
0734:83E1 DCCB                FMUL ST(3), ST
0734:83E3 26                  SEG ES (unused)
0734:83E4 26                  SEG ES (unused)
0734:83E5 DCCC                FMUL ST(4), ST
0734:83E7 26                  SEG ES (unused)
0734:83E8 DCCD                FMUL ST(5), ST
0734:83EA DCCE                FMUL ST(6), ST
0734:83EC DCCF                FMUL ST(7), ST
0734:83EE DCE0                FSUBR ST(0), ST
0734:83F0 64                  SEG FS (unused)
0734:83F1 DCE1                FSUBR ST(1), ST
0734:83F3 DCE2                FSUBR ST(2), ST
0734:83F5 3E                  SEG DS (unused)
0734:83F6 DCE3                FSUBR ST(3), ST
0734:83F8 26                  SEG ES (unused)
0734:83F9 26                  SEG ES (unused)
0734:83FA DCE4                FSUBR ST(4), ST
0734:83FC DCE5                FSUBR ST(5), ST
0734:83FE DCE6                FSUBR ST(6), ST
0734:8400 64                  SEG FS (unused)
0734:8401 DCE7                FSUBR ST(7), ST
0734:8403 DCE8                FSUB ST(0), ST
0734:8405 64                  SEG FS (unused)
0734:8406 DCE9                FSUB ST(1), ST
0734:8408 DCEA                FSUB ST(2), ST
0734:840A 26                  SEG ES (unused)
0734:840B 26                  SEG ES (unused)
0734:840C DCEB                FSUB ST(3), ST
0734:840E 3E                  SEG DS (unused)
0734:840F DCEC                FSUB ST(4), ST
0734:8411 DCED                FSUB ST(5), ST
0734:8413 DCEE                FSUB ST(6), ST
0734:8415 DCEF                FSUB ST(7), ST
0734:8417 DCF0                FDIVR ST(0), ST
0734:8419 26                  SEG ES (unused)
0734:841A 26                  SEG ES (unused)
0734:841B DCF1                FDIVR ST(1), ST
0734:841D DCF2                FDIVR ST(2), ST
0734:841F DCF3                FDIVR ST(3), ST
0734:8421 26                  SEG ES (unused)
0734:8422 DCF4                FDIVR ST(4), ST
0734:8424 DCF5                FDIVR ST(5), ST
0734:8426 26                  SEG ES (unused)
0734:8427 DCF6                FDIVR ST(6), ST
0734:8429 3E                  SEG DS (unused)
0734:842A DCF7                FDIVR ST(7), ST
0734:842C 2E                  SEG CS (unused)
0734:842D DCF8                FDIV ST(0), ST
0734:842F 26                  SEG ES (unused)
0734:8430 26                  SEG ES (unused)
0734:8431 DCF9                FDIV ST(1), ST
0734:8433 DCFA                FDIV ST(2), ST
0734:8435 DCFB                FDIV ST(3), ST
0734:8437 26                  SEG ES (unused)
0734:8438 DCFC                FDIV ST(4), ST
0734:843A 3E                  SEG DS (unused)
0734:843B DCFD                FDIV ST(5), ST
0734:843D 26                  SEG ES (unused)
0734:843E DCFE                FDIV ST(6), ST
0734:8440 64                  SEG FS (unused)
0734:8441 DCFF                FDIV ST(7), ST
0734:8443 DD00                FLD DWORD PTR [BX+SI]
0734:8445 DD01                FLD DWORD PTR [BX+DI]
0734:8447 64DD02              FLD DWORD PTR FS: [BP+SI]
0734:844A DD03                FLD DWORD PTR [BP+DI]
0734:844C DD04                FLD DWORD PTR [SI]
0734:844E 26                  SEG ES (unused)
0734:844F 26DD05              FLD DWORD PTR ES: [DI]
0734:8452 64DD069A64          FLD DWORD PTR FS: [649A]
0734:8457 36DD07              FLD DWORD PTR ES: [BX]
0734:845A DD10                FST DWORD PTR [BX+SI]
0734:845C 36DD11              FST DWORD PTR ES: [BX+DI]
0734:845F 2EDD12              FST DWORD PTR CS: [BP+SI]
0734:8462 DD13                FST DWORD PTR [BP+DI]
0734:8464 DD14                FST DWORD PTR [SI]
0734:8466 DD15                FST DWORD PTR [DI]
0734:8468 DD160AD5            FST DWORD PTR [D50A]
0734:846C 2EDD17              FST DWORD PTR CS: [BX]
0734:846F DD18                FSTP DWORD PTR [BX+SI]
0734:8471 26                  SEG ES (unused)
0734:8472 26DD19              FSTP DWORD PTR ES: [BX+DI]
0734:8475 DD1A                FSTP DWORD PTR [BP+SI]
0734:8477 DD1B                FSTP DWORD PTR [BP+DI]
0734:8479 DD1C                FSTP DWORD PTR [SI]
0734:847B 64DD1D              FSTP DWORD PTR FS: [DI]
0734:847E 64DD1EEA79          FSTP DWORD PTR FS: [79EA]
0734:8483 DD1F                FSTP DWORD PTR [BX]
0734:8485 DD20                FRSTOR DWORD PTR [BX+SI]
0734:8487 3EDD21              FRSTOR DWORD PTR DS: [BX+DI]
0734:848A 3EDD22              FRSTOR DWORD PTR DS: [BP+SI]
0734:848D 36DD23              FRSTOR DWORD PTR ES: [BP+DI]
0734:8490 2EDD24              FRSTOR DWORD PTR CS: [SI]
0734:8493 2EDD25              FRSTOR DWORD PTR CS: [DI]
0734:8496 3EDD260948          FRSTOR DWORD PTR DS: [4809]
0734:849B 2EDD27              FRSTOR DWORD PTR CS: [BX]
0734:849E 26                  SEG ES (unused)
0734:849F 26DD30              FNSAVE DWORD PTR ES: [BX+SI]
0734:84A2 DD31                FNSAVE DWORD PTR [BX+DI]
0734:84A4 DD32                FNSAVE DWORD PTR [BP+SI]
0734:84A6 26                  SEG ES (unused)
0734:84A7 26DD33              FNSAVE DWORD PTR ES: [BP+DI]
0734:84AA 3EDD34              FNSAVE DWORD PTR DS: [SI]
0734:84AD 3EDD35              FNSAVE DWORD PTR DS: [DI]
0734:84B0 DD3637DB            FNSAVE DWORD PTR [DB37]
0734:84B4 26DD37              FNSAVE DWORD PTR ES: [BX]
0734:84B7 DD38                FNSTSW DWORD PTR [BX+SI]
0734:84B9 DD39                FNSTSW DWORD PTR [BX+DI]
0734:84BB 26DD3A              FNSTSW DWORD PTR ES: [BP+SI]
0734:84BE 26                  SEG ES (unused)
0734:84BF 26DD3B              FNSTSW DWORD PTR ES: [BP+DI]
0734:84C2 36DD3C              FNSTSW DWORD PTR ES: [SI]
0734:84C5 26DD3D              FNSTSW DWORD PTR ES: [DI]
0734:84C8 DD3E86B7            FNSTSW DWORD PTR [B786]
0734:84CC 36DD3F              FNSTSW DWORD PTR ES: [BX]
0734:84CF 64DD4057            FLD DWORD PTR FS: [BX+SI+57]
0734:84D3 26                  SEG ES (unused)
0734:84D4 26DD41BC            FLD DWORD PTR ES: [BX+DI-BC]
0734:84D8 DD425D              FLD DWORD PTR [BP+SI+5D]
0734:84DB 26DD4319            FLD DWORD PTR ES: [BP+DI+19]
0734:84DF DD44C0              FLD DWORD PTR [SI-C0]
0734:84E2 26DD45E3            FLD DWORD PTR ES: [DI-E3]
0734:84E6 26                  SEG ES (unused)
0734:84E7 26DD463B            FLD DWORD PTR ES: [BP+3B]
0734:84EB 36DD47B6            FLD DWORD PTR ES: [BX-B6]
0734:84EF 26DD502B            FST DWORD PTR ES: [BX+SI+2B]
0734:84F3 26                  SEG ES (unused)
0734:84F4 26DD51C5            FST DWORD PTR ES: [BX+DI-C5]
0734:84F8 26DD52F0            FST DWORD PTR ES: [BP+SI-F0]
0734:84FC 2EDD53B4            FST DWORD PTR CS: [BP+DI-B4]
0734:8500 DD540F              FST DWORD PTR [SI+0F]
0734:8503 DD55E6              FST DWORD PTR [DI-E6]
0734:8506 64DD5640            FST DWORD PTR FS: [BP+40]
0734:850A DD5706              FST DWORD PTR [BX+06]
0734:850D DD5847              FSTP DWORD PTR [BX+SI+47]
0734:8510 26                  SEG ES (unused)
0734:8511 26DD594E            FSTP DWORD PTR ES: [BX+DI+4E]
0734:8515 DD5A88              FSTP DWORD PTR [BP+SI-88]
0734:8518 DD5B30              FSTP DWORD PTR [BP+DI+30]
0734:851B DD5CAE              FSTP DWORD PTR [SI-AE]
0734:851E DD5D45              FSTP DWORD PTR [DI+45]
0734:8521 DD5E5F              FSTP DWORD PTR [BP+5F]
0734:8524 DD5F2B              FSTP DWORD PTR [BX+2B]
0734:8527 DD600C              FRSTOR DWORD PTR [BX+SI+0C]
0734:852A 2EDD6173            FRSTOR DWORD PTR CS: [BX+DI+73]
0734:852E 64DD6286            FRSTOR DWORD PTR FS: [BP+SI-86]
0734:8532 DD633E              FRSTOR DWORD PTR [BP+DI+3E]
0734:8535 3EDD649D            FRSTOR DWORD PTR DS: [SI-9D]
0734:8539 64DD6542            FRSTOR DWORD PTR FS: [DI+42]
0734:853D DD6619              FRSTOR DWORD PTR [BP+19]
0734:8540 36DD6756            FRSTOR DWORD PTR ES: [BX+56]
0734:8544 3EDD701D            FNSAVE DWORD PTR DS: [BX+SI+1D]
0734:8548 DD7125              FNSAVE DWORD PTR [BX+DI+25]
0734:854B 2EDD72DD            FNSAVE DWORD PTR CS: [BP+SI-DD]
0734:854F 2EDD73BB            FNSAVE DWORD PTR CS: [BP+DI-BB]
0734:8553 64DD74FE            FNSAVE DWORD PTR FS: [SI-FE]
0734:8557 64DD7510            FNSAVE DWORD PTR FS: [DI+10]
0734:855B 3EDD76D3            FNSAVE DWORD PTR DS: [BP-D3]
0734:855F 3EDD77D3            FNSAVE DWORD PTR DS: [BX-D3]
0734:8563 DD7823              FNSTSW DWORD PTR [BX+SI+23]
0734:8566 DD794D              FNSTSW DWORD PTR [BX+DI+4D]
0734:8569 26                  SEG ES (unused)
0734:856A 26DD7A6A            FNSTSW DWORD PTR ES: [BP+SI+6A]
0734:856E DD7B0E              FNSTSW DWORD PTR [BP+DI+0E]
0734:8571 DD7C3E              FNSTSW DWORD PTR [SI+3E]
0734:8574 2EDD7DD1            FNSTSW DWORD PTR CS: [DI-D1]
0734:8578 DD7EBD              FNSTSW DWORD PTR [BP-BD]
0734:857B 3EDD7FAC            FNSTSW DWORD PTR DS: [BX-AC]
0734:857F 3EDD808488          FLD DWORD PTR DS: [BX+SI+8884]
0734:8584 DD81DAB7            FLD DWORD PTR [BX+DI+B7DA]
0734:8588 26DD82DF90          FLD DWORD PTR ES: [BP+SI+90DF]
0734:858D 3EDD830147          FLD DWORD PTR DS: [BP+DI+4701]
0734:8592 3EDD8450DC          FLD DWORD PTR DS: [SI+DC50]
0734:8597 2EDD85F338          FLD DWORD PTR CS: [DI+38F3]
0734:859C 26                  SEG ES (unused)
0734:859D 26DD86A453          FLD DWORD PTR ES: [BP+53A4]
0734:85A2 26                  SEG ES (unused)
0734:85A3 26DD879BAA          FLD DWORD PTR ES: [BX+AA9B]
0734:85A8 DD90E1DF            FST DWORD PTR [BX+SI+DFE1]
0734:85AC 36DD912633          FST DWORD PTR ES: [BX+DI+3326]
0734:85B1 64DD9226BC          FST DWORD PTR FS: [BP+SI+BC26]
0734:85B6 26DD93FE45          FST DWORD PTR ES: [BP+DI+45FE]
0734:85BB 64DD94689D          FST DWORD PTR FS: [SI+9D68]
0734:85C0 DD956ABF            FST DWORD PTR [DI+BF6A]
0734:85C4 DD96581A            FST DWORD PTR [BP+1A58]
0734:85C8 64DD97DCA8          FST DWORD PTR FS: [BX+A8DC]
0734:85CD DD98114F            FSTP DWORD PTR [BX+SI+4F11]
0734:85D1 26                  SEG ES (unused)
0734:85D2 26DD99FA27          FSTP DWORD PTR ES: [BX+DI+27FA]
0734:85D7 3EDD9A583F          FSTP DWORD PTR DS: [BP+SI+3F58]
0734:85DC 64DD9BD8D4          FSTP DWORD PTR FS: [BP+DI+D4D8]
0734:85E1 64DD9CF43A          FSTP DWORD PTR FS: [SI+3AF4]
0734:85E6 26DD9D753A          FSTP DWORD PTR ES: [DI+3A75]
0734:85EB DD9E93CE            FSTP DWORD PTR [BP+CE93]
0734:85EF 64DD9F6BA5          FSTP DWORD PTR FS: [BX+A56B]
0734:85F4 DDA0B31B            FRSTOR DWORD PTR [BX+SI+1BB3]
0734:85F8 DDA17688            FRSTOR DWORD PTR [BX+DI+8876]
0734:85FC 2EDDA21A91          FRSTOR DWORD PTR CS: [BP+SI+911A]
0734:8601 2EDDA32FBA          FRSTOR DWORD PTR CS: [BP+DI+BA2F]
0734:8606 DDA4AE2D            FRSTOR DWORD PTR [SI+2DAE]
0734:860A DDA551D8            FRSTOR DWORD PTR [DI+D851]
0734:860E DDA66E9C            FRSTOR DWORD PTR [BP+9C6E]
0734:8612 DDA77F8D            FRSTOR DWORD PTR [BX+8D7F]
0734:8616 DDB0BF0F            FNSAVE DWORD PTR [BX+SI+0FBF]
0734:861A 3EDDB1EC62          FNSAVE DWORD PTR DS: [BX+DI+62EC]
0734:861F DDB2DD96            FNSAVE DWORD PTR [BP+SI+96DD]
0734:8623 26DDB36352          FNSAVE DWORD PTR ES: [BP+DI+5263]
0734:8628 DDB4D324            FNSAVE DWORD PTR [SI+24D3]
0734:862C 64DDB5EBA1          FNSAVE DWORD PTR FS: [DI+A1EB]
0734:8631 3EDDB68065          FNSAVE DWORD PTR DS: [BP+6580]
0734:8636 26DDB7D7AB          FNSAVE DWORD PTR ES: [BX+ABD7]
0734:863B DDB88EA5            FNSTSW DWORD PTR [BX+SI+A58E]
0734:863F DDB9ABFB            FNSTSW DWORD PTR [BX+DI+FBAB]
0734:8643 26                  SEG ES (unused)
0734:8644 26DDBA63A6          FNSTSW DWORD PTR ES: [BP+SI+A663]
0734:8649 26DDBB4DCC          FNSTSW DWORD PTR ES: [BP+DI+CC4D]
0734:864E DDBC9183            FNSTSW DWORD PTR [SI+8391]
0734:8652 26                  SEG ES (unused)
0734:8653 26DDBD41E3          FNSTSW DWORD PTR ES: [DI+E341]
0734:8658 DDBE37BE            FNSTSW DWORD PTR [BP+BE37]
0734:865C DDBF76E4            FNSTSW DWORD PTR [BX+E476]
0734:8660 DDC0                FFREE ST(0)
0734:8662 DDC1                FFREE ST(1)
0734:8664 26                  SEG ES (unused)
0734:8665 DDC2                FFREE ST(2)
0734:8667 26                  SEG ES (unused)
0734:8668 DDC3                FFREE ST(3)
0734:866A 64                  SEG FS (unused)
0734:866B DDC4                FFREE ST(4)
0734:866D 26                  SEG ES (unused)
0734:866E DDC5                FFREE ST(5)
0734:8670 26                  SEG ES (unused)
0734:8671 DDC6                FFREE ST(6)
0734:8673 26                  SEG ES (unused)
0734:8674 26                  SEG ES (unused)
0734:8675 DDC7                FFREE ST(7)
0734:8677 3E                  SEG DS (unused)
0734:8678 DDD0                FST ST(0)
0734:867A 3E                  SEG DS (unused)
0734:867B DDD1                FST ST(1)
0734:867D 26                  SEG ES (unused)
0734:867E 26                  SEG ES (unused)
0734:867F DDD2                FST ST(2)
0734:8681 DDD3                FST ST(3)
0734:8683 DDD4                FST ST(4)
0734:8685 DDD5                FST ST(5)
0734:8687 3E                  SEG DS (unused)
0734:8688 DDD6                FST ST(6)
0734:868A DDD7                FST ST(7)
0734:868C DDD8                FSTP ST(0)
0734:868E DDD9                FSTP ST(1)
0734:8690 DDDA                FSTP ST(2)
0734:8692 26                  SEG ES (unused)
0734:8693 DDDB                FSTP ST(3)
0734:8695 DDDC                FSTP ST(4)
0734:8697 26                  SEG ES (unused)
0734:8698 DDDD                FSTP ST(5)
0734:869A 2E                  SEG CS (unused)
0734:869B DDDE                FSTP ST(6)
0734:869D DDDF                FSTP ST(7)
0734:869F 26                  SEG ES (unused)
0734:86A0 26                  SEG ES (unused)
0734:86A1 DDE0                FCOM ST(0)
0734:86A3 26                  SEG ES (unused)
0734:86A4 DDE1                FCOM ST(1)
0734:86A6 26                  SEG ES (unused)
0734:86A7 DDE2                FCOM ST(2)
0734:86A9 DDE3                FCOM ST(3)
0734:86AB DDE4                FCOM ST(4)
0734:86AD DDE5                FCOM ST(5)
0734:86AF 26                  SEG ES (unused)
0734:86B0 DDE6                FCOM ST(6)
0734:86B2 DDE7                FCOM ST(7)
0734:86B4 2E                  SEG CS (unused)
0734:86B5 DDE8                FCOMP ST(0)
0734:86B7 64                  SEG FS (unused)
0734:86B8 DDE9                FCOMP ST(1)
0734:86BA 26                  SEG ES (unused)
0734:86BB DDEA                FCOMP ST(2)
0734:86BD DDEB                FCOMP ST(3)
0734:86BF 26                  SEG ES (unused)
0734:86C0 26                  SEG ES (unused)
0734:86C1 DDEC                FCOMP ST(4)
0734:86C3 3E                  SEG DS (unused)
0734:86C4 DDED                FCOMP ST(5)
0734:86C6 DDEE                FCOMP ST(6)
0734:86C8 26                  SEG ES (unused)
0734:86C9 DDEF                FCOMP ST(7)
0734:86CB DE00                FIADD WORD PTR [BX+SI]
0734:86CD 26                  SEG ES (unused)
0734:86CE 26DE01              FIADD WORD PTR ES: [BX+DI]
0734:86D1 DE02                FIADD WORD PTR [BP+SI]
0734:86D3 26DE03              FIADD WORD PTR ES: [BP+DI]
0734:86D6 DE04                FIADD WORD PTR [SI]
0734:86D8 DE05                FIADD WORD PTR [DI]
0734:86DA DE06A161            FIADD WORD PTR [61A1]
0734:86DE 36DE07              FIADD WORD PTR ES: [BX]
0734:86E1 26DE08              FIMUL WORD PTR ES: [BX+SI]
0734:86E4 DE09                FIMUL WORD PTR [BX+DI]
0734:86E6 64DE0A              FIMUL WORD PTR FS: [BP+SI]
0734:86E9 DE0B                FIMUL WORD PTR [BP+DI]
0734:86EB DE0C                FIMUL WORD PTR [SI]
0734:86ED DE0D                FIMUL WORD PTR [DI]
0734:86EF DE0E8863            FIMUL WORD PTR [6388]
0734:86F3 DE0F                FIMUL WORD PTR [BX]
0734:86F5 26DE10              FICOM WORD PTR ES: [BX+SI]
0734:86F8 2EDE11              FICOM WORD PTR CS: [BX+DI]
0734:86FB 3EDE12              FICOM WORD PTR DS: [BP+SI]
0734:86FE DE13                FICOM WORD PTR [BP+DI]
0734:8700 DE14                FICOM WORD PTR [SI]
0734:8702 3EDE15              FICOM WORD PTR DS: [DI]
0734:8705 DE164AB7            FICOM WORD PTR [B74A]
0734:8709 DE17                FICOM WORD PTR [BX]
0734:870B 26DE18              FICOMP WORD PTR ES: [BX+SI]
0734:870E DE19                FICOMP WORD PTR [BX+DI]
0734:8710 36DE1A              FICOMP WORD PTR ES: [BP+SI]
0734:8713 DE1B                FICOMP WORD PTR [BP+DI]
0734:8715 2EDE1C              FICOMP WORD PTR CS: [SI]
0734:8718 2EDE1D              FICOMP WORD PTR CS: [DI]
0734:871B 26                  SEG ES (unused)
0734:871C 26DE1EDB27          FICOMP WORD PTR ES: [27DB]
0734:8721 DE1F                FICOMP WORD PTR [BX]
0734:8723 DE20                FISUB WORD PTR [BX+SI]
0734:8725 3EDE21              FISUB WORD PTR DS: [BX+DI]
0734:8728 DE22                FISUB WORD PTR [BP+SI]
0734:872A DE23                FISUB WORD PTR [BP+DI]
0734:872C 26DE24              FISUB WORD PTR ES: [SI]
0734:872F 2EDE25              FISUB WORD PTR CS: [DI]
0734:8732 DE26E6ED            FISUB WORD PTR [EDE6]
0734:8736 DE27                FISUB WORD PTR [BX]
0734:8738 DE28                FISUBR WORD PTR [BX+SI]
0734:873A 36DE29              FISUBR WORD PTR ES: [BX+DI]
0734:873D 36DE2A              FISUBR WORD PTR ES: [BP+SI]
0734:8740 DE2B                FISUBR WORD PTR [BP+DI]
0734:8742 DE2C                FISUBR WORD PTR [SI]
0734:8744 DE2D                FISUBR WORD PTR [DI]
0734:8746 DE2ED71C            FISUBR WORD PTR [1CD7]
0734:874A DE2F                FISUBR WORD PTR [BX]
0734:874C DE30                FIDIV WORD PTR [BX+SI]
0734:874E DE31                FIDIV WORD PTR [BX+DI]
0734:8750 3EDE32              FIDIV WORD PTR DS: [BP+SI]
0734:8753 26                  SEG ES (unused)
0734:8754 26DE33              FIDIV WORD PTR ES: [BP+DI]
0734:8757 DE34                FIDIV WORD PTR [SI]
0734:8759 DE35                FIDIV WORD PTR [DI]
0734:875B DE361396            FIDIV WORD PTR [9613]
0734:875F 64DE37              FIDIV WORD PTR FS: [BX]
0734:8762 26DE38              FIDIVR WORD PTR ES: [BX+SI]
0734:8765 26                  SEG ES (unused)
0734:8766 26DE39              FIDIVR WORD PTR ES: [BX+DI]
0734:8769 DE3A                FIDIVR WORD PTR [BP+SI]
0734:876B 36DE3B              FIDIVR WORD PTR ES: [BP+DI]
0734:876E 26DE3C              FIDIVR WORD PTR ES: [SI]
0734:8771 3EDE3D              FIDIVR WORD PTR DS: [DI]
0734:8774 DE3EAC11            FIDIVR WORD PTR [11AC]
0734:8778 26DE3F              FIDIVR WORD PTR ES: [BX]
0734:877B DE40F4              FIADD WORD PTR [BX+SI-F4]
0734:877E DE412E              FIADD WORD PTR [BX+DI+2E]
0734:8781 DE423C              FIADD WORD PTR [BP+SI+3C]
0734:8784 DE437D              FIADD WORD PTR [BP+DI+7D]
0734:8787 DE447F              FIADD WORD PTR [SI+7F]
0734:878A 26DE45E8            FIADD WORD PTR ES: [DI-E8]
0734:878E DE4671              FIADD WORD PTR [BP+71]
0734:8791 DE471D              FIADD WORD PTR [BX+1D]
0734:8794 36DE489A            FIMUL WORD PTR ES: [BX+SI-9A]
0734:8798 DE49F9              FIMUL WORD PTR [BX+DI-F9]
0734:879B 26DE4A49            FIMUL WORD PTR ES: [BP+SI+49]
0734:879F 3EDE4B88            FIMUL WORD PTR DS: [BP+DI-88]
0734:87A3 26DE4C7D            FIMUL WORD PTR ES: [SI+7D]
0734:87A7 26DE4DC8            FIMUL WORD PTR ES: [DI-C8]
0734:87AB DE4ED8              FIMUL WORD PTR [BP-D8]
0734:87AE DE4FB4              FIMUL WORD PTR [BX-B4]
0734:87B1 DE50B9              FICOM WORD PTR [BX+SI-B9]
0734:87B4 26DE51A7            FICOM WORD PTR ES: [BX+DI-A7]
0734:87B8 DE52F1              FICOM WORD PTR [BP+SI-F1]
0734:87BB DE5372              FICOM WORD PTR [BP+DI+72]
0734:87BE 36DE5411            FICOM WORD PTR ES: [SI+11]
0734:87C2 DE5534              FICOM WORD PTR [DI+34]
0734:87C5 DE5664              FICOM WORD PTR [BP+64]
0734:87C8 DE57DD              FICOM WORD PTR [BX-DD]
0734:87CB DE58C2              FICOMP WORD PTR [BX+SI-C2]
0734:87CE DE5992              FICOMP WORD PTR [BX+DI-92]
0734:87D1 26                  SEG ES (unused)
0734:87D2 26DE5A5D            FICOMP WORD PTR ES: [BP+SI+5D]
0734:87D6 DE5B2E              FICOMP WORD PTR [BP+DI+2E]
0734:87D9 DE5C6A              FICOMP WORD PTR [SI+6A]
0734:87DC 3EDE5DB2            FICOMP WORD PTR DS: [DI-B2]
0734:87E0 26                  SEG ES (unused)
0734:87E1 26DE5E35            FICOMP WORD PTR ES: [BP+35]
0734:87E5 DE5F40              FICOMP WORD PTR [BX+40]
0734:87E8 26DE6046            FISUB WORD PTR ES: [BX+SI+46]
0734:87EC 36DE614F            FISUB WORD PTR ES: [BX+DI+4F]
0734:87F0 26                  SEG ES (unused)
0734:87F1 26DE6261            FISUB WORD PTR ES: [BP+SI+61]
0734:87F5 26                  SEG ES (unused)
0734:87F6 26DE634D            FISUB WORD PTR ES: [BP+DI+4D]
0734:87FA 36DE64B8            FISUB WORD PTR ES: [SI-B8]
0734:87FE DE65BA              FISUB WORD PTR [DI-BA]
0734:8801 DE6638              FISUB WORD PTR [BP+38]
0734:8804 64DE6754            FISUB WORD PTR FS: [BX+54]
0734:8808 DE6835              FISUBR WORD PTR [BX+SI+35]
0734:880B DE6906              FISUBR WORD PTR [BX+DI+06]
0734:880E DE6A43              FISUBR WORD PTR [BP+SI+43]
0734:8811 36DE6B2C            FISUBR WORD PTR ES: [BP+DI+2C]
0734:8815 DE6C39              FISUBR WORD PTR [SI+39]
0734:8818 DE6D3B              FISUBR WORD PTR [DI+3B]
0734:881B 26DE6E65            FISUBR WORD PTR ES: [BP+65]
0734:881F 3EDE6FCC            FISUBR WORD PTR DS: [BX-CC]
0734:8823 64DE7032            FIDIV WORD PTR FS: [BX+SI+32]
0734:8827 DE7142              FIDIV WORD PTR [BX+DI+42]
0734:882A DE72F7              FIDIV WORD PTR [BP+SI-F7]
0734:882D DE7336              FIDIV WORD PTR [BP+DI+36]
0734:8830 64DE74CC            FIDIV WORD PTR FS: [SI-CC]
0734:8834 3EDE7527            FIDIV WORD PTR DS: [DI+27]
0734:8838 26DE768A            FIDIV WORD PTR ES: [BP-8A]
0734:883C 26                  SEG ES (unused)
0734:883D 26DE7719            FIDIV WORD PTR ES: [BX+19]
0734:8841 3EDE787A            FIDIVR WORD PTR DS: [BX+SI+7A]
0734:8845 26                  SEG ES (unused)
0734:8846 26DE7967            FIDIVR WORD PTR ES: [BX+DI+67]
0734:884A 36DE7A8B            FIDIVR WORD PTR ES: [BP+SI-8B]
0734:884E 64DE7BB0            FIDIVR WORD PTR FS: [BP+DI-B0]
0734:8852 2EDE7C95            FIDIVR WORD PTR CS: [SI-95]
0734:8856 DE7DC1              FIDIVR WORD PTR [DI-C1]
0734:8859 2EDE7E6E            FIDIVR WORD PTR CS: [BP+6E]
0734:885D DE7F05              FIDIVR WORD PTR [BX+05]
0734:8860 26                  SEG ES (unused)
0734:8861 26DE808DAA          FIADD WORD PTR ES: [BX+SI+AA8D]
0734:8866 DE81DC4C            FIADD WORD PTR [BX+DI+4CDC]
0734:886A DE8208E6            FIADD WORD PTR [BP+SI+E608]
0734:886E 26                  SEG ES (unused)
0734:886F 26DE83B55C          FIADD WORD PTR ES: [BP+DI+5CB5]
0734:8874 DE841182            FIADD WORD PTR [SI+8211]
0734:8878 DE85EE63            FIADD WORD PTR [DI+63EE]
0734:887C DE86F698            FIADD WORD PTR [BP+98F6]
0734:8880 DE878925            FIADD WORD PTR [BX+2589]
0734:8884 26DE8854D8          FIMUL WORD PTR ES: [BX+SI+D854]
0734:8889 64DE899CA7          FIMUL WORD PTR FS: [BX+DI+A79C]
0734:888E 2EDE8A80CE          FIMUL WORD PTR CS: [BP+SI+CE80]
0734:8893 26                  SEG ES (unused)
0734:8894 26DE8BEB99          FIMUL WORD PTR ES: [BP+DI+99EB]
0734:8899 DE8CBEF2            FIMUL WORD PTR [SI+F2BE]
0734:889D DE8D65C1            FIMUL WORD PTR [DI+C165]
0734:88A1 3EDE8E254E          FIMUL WORD PTR DS: [BP+4E25]
0734:88A6 3EDE8F47D5          FIMUL WORD PTR DS: [BX+D547]
0734:88AB 3EDE902D2B          FICOM WORD PTR DS: [BX+SI+2B2D]
0734:88B0 64DE912054          FICOM WORD PTR FS: [BX+DI+5420]
0734:88B5 26DE92E196          FICOM WORD PTR ES: [BP+SI+96E1]
0734:88BA 2EDE93C5A9          FICOM WORD PTR CS: [BP+DI+A9C5]
0734:88BF DE94ED84            FICOM WORD PTR [SI+84ED]
0734:88C3 DE95F090            FICOM WORD PTR [DI+90F0]
0734:88C7 DE96AF8D            FICOM WORD PTR [BP+8DAF]
0734:88CB 2EDE9765AF          FICOM WORD PTR CS: [BX+AF65]
0734:88D0 DE984D71            FICOMP WORD PTR [BX+SI+714D]
0734:88D4 3EDE999393          FICOMP WORD PTR DS: [BX+DI+9393]
0734:88D9 DE9A9700            FICOMP WORD PTR [BP+SI+0097]
0734:88DD 3EDE9B0401          FICOMP WORD PTR DS: [BP+DI+0104]
0734:88E2 DE9C0AE2            FICOMP WORD PTR [SI+E20A]
0734:88E6 26DE9D4288          FICOMP WORD PTR ES: [DI+8842]
0734:88EB DE9E1B28            FICOMP WORD PTR [BP+281B]
0734:88EF DE9F3D06            FICOMP WORD PTR [BX+063D]
0734:88F3 2EDEA048BD          FISUB WORD PTR CS: [BX+SI+BD48]
0734:88F8 2EDEA1B8AF          FISUB WORD PTR CS: [BX+DI+AFB8]
0734:88FD DEA2C8F9            FISUB WORD PTR [BP+SI+F9C8]
0734:8901 DEA38854            FISUB WORD PTR [BP+DI+5488]
0734:8905 DEA4C61E            FISUB WORD PTR [SI+1EC6]
0734:8909 DEA50852            FISUB WORD PTR [DI+5208]
0734:890D DEA6E4E8            FISUB WORD PTR [BP+E8E4]
0734:8911 DEA794D2            FISUB WORD PTR [BX+D294]
0734:8915 DEA8BCE5            FISUBR WORD PTR [BX+SI+E5BC]
0734:8919 2EDEA91CDB          FISUBR WORD PTR CS: [BX+DI+DB1C]
0734:891E 36DEAA391B          FISUBR WORD PTR ES: [BP+SI+1B39]
0734:8923 2EDEAB6200          FISUBR WORD PTR CS: [BP+DI+0062]
0734:8928 3EDEACE6A6          FISUBR WORD PTR DS: [SI+A6E6]
0734:892D DEAD748A            FISUBR WORD PTR [DI+8A74]
0734:8931 DEAE945F            FISUBR WORD PTR [BP+5F94]
0734:8935 26                  SEG ES (unused)
0734:8936 26DEAF18F2          FISUBR WORD PTR ES: [BX+F218]
0734:893B 3EDEB0AC24          FIDIV WORD PTR DS: [BX+SI+24AC]
0734:8940 36DEB1E274          FIDIV WORD PTR ES: [BX+DI+74E2]
0734:8945 DEB21559            FIDIV WORD PTR [BP+SI+5915]
0734:8949 2EDEB35FDE          FIDIV WORD PTR CS: [BP+DI+DE5F]
0734:894E 26                  SEG ES (unused)
0734:894F 26DEB470B5          FIDIV WORD PTR ES: [SI+B570]
0734:8954 DEB50489            FIDIV WORD PTR [DI+8904]
0734:8958 26                  SEG ES (unused)
0734:8959 26DEB661FC          FIDIV WORD PTR ES: [BP+FC61]
0734:895E DEB76696            FIDIV WORD PTR [BX+9666]
0734:8962 3EDEB81A2B          FIDIVR WORD PTR DS: [BX+SI+2B1A]
0734:8967 26DEB9253B          FIDIVR WORD PTR ES: [BX+DI+3B25]
0734:896C 26                  SEG ES (unused)
0734:896D 26DEBA4847          FIDIVR WORD PTR ES: [BP+SI+4748]
0734:8972 26DEBBA627          FIDIVR WORD PTR ES: [BP+DI+27A6]
0734:8977 DEBC7CD4            FIDIVR WORD PTR [SI+D47C]
0734:897B 36DEBD5F06          FIDIVR WORD PTR ES: [DI+065F]
0734:8980 2EDEBE7748          FIDIVR WORD PTR CS: [BP+4877]
0734:8985 26                  SEG ES (unused)
0734:8986 26DEBFC580          FIDIVR WORD PTR ES: [BX+80C5]
0734:898B 2E                  SEG CS (unused)
0734:898C DEC0                FADDP ST(0), ST
0734:898E 26                  SEG ES (unused)
0734:898F DEC1                FADDP ST(1), ST
0734:8991 DEC2                FADDP ST(2), ST
0734:8993 26                  SEG ES (unused)
0734:8994 DEC3                FADDP ST(3), ST
0734:8996 DEC4                FADDP ST(4), ST
0734:8998 64                  SEG FS (unused)
0734:8999 DEC5                FADDP ST(5), ST
0734:899B 64                  SEG FS (unused)
0734:899C DEC6                FADDP ST(6), ST
0734:899E 26                  SEG ES (unused)
0734:899F DEC7                FADDP ST(7), ST
0734:89A1 DEC8                FMULP ST(0), ST
0734:89A3 DEC9                FMULP ST(1), ST
0734:89A5 26                  SEG ES (unused)
0734:89A6 26                  SEG ES (unused)
0734:89A7 DECA                FMULP ST(2), ST
0734:89A9 26                  SEG ES (unused)
0734:89AA 26                  SEG ES (unused)
0734:89AB DECB                FMULP ST(3), ST
0734:89AD 2E                  SEG CS (unused)
0734:89AE DECC                FMULP ST(4), ST
0734:89B0 DECD                FMULP ST(5), ST
0734:89B2 DECE                FMULP ST(6), ST
0734:89B4 DECF                FMULP ST(7), ST
0734:89B6 26                  SEG ES (unused)
0734:89B7 26                  SEG ES (unused)
0734:89B8 DED0                FUCOMP ST(0)
0734:89BA DED1                FUCOMP ST(1)
0734:89BC 26                  SEG ES (unused)
0734:89BD DED2                FUCOMP ST(2)
0734:89BF DED3                FUCOMP ST(3)
0734:89C1 DED4                FUCOMP ST(4)
0734:89C3 3E                  SEG DS (unused)
0734:89C4 DED5                FUCOMP ST(5)
0734:89C6 64                  SEG FS (unused)
0734:89C7 DED6                FUCOMP ST(6)
0734:89C9 DED7                FUCOMP ST(7)
0734:89CB 26                  SEG ES (unused)
0734:89CC 26                  SEG ES (unused)
0734:89CD DED9                FCOMPP
0734:89CF DEE0                FSUBRP ST(0), ST
0734:89D1 DEE1                FSUBRP ST(1), ST
0734:89D3 26                  SEG ES (unused)
0734:89D4 26                  SEG ES (unused)
0734:89D5 DEE2                FSUBRP ST(2), ST
0734:89D7 DEE3                FSUBRP ST(3), ST
0734:89D9 3E                  SEG DS (unused)
0734:89DA DEE4                FSUBRP ST(4), ST
0734:89DC DEE5                FSUBRP ST(5), ST
0734:89DE DEE6                FSUBRP ST(6), ST
0734:89E0 DEE7                FSUBRP ST(7), ST
0734:89E2 26                  SEG ES (unused)
0734:89E3 DEE8                FSUBP ST(0), ST
0734:89E5 DEE9                FSUBP ST(1), ST
0734:89E7 DEEA                FSUBP ST(2), ST
0734:89E9 3E                  SEG DS (unused)
0734:89EA DEEB                FSUBP ST(3), ST
0734:89EC 26                  SEG ES (unused)
0734:89ED DEEC                FSUBP ST(4), ST
0734:89EF 64                  SEG FS (unused)
0734:89F0 DEED                FSUBP ST(5), ST
0734:89F2 26                  SEG ES (unused)
0734:89F3 DEEE                FSUBP ST(6), ST
0734:89F5 3E                  SEG DS (unused)
0734:89F6 DEEF                FSUBP ST(7), ST
0734:89F8 26                  SEG ES (unused)
0734:89F9 DEF0                FDIVRP ST(0), ST
0734:89FB DEF1                FDIVRP ST(1), ST
0734:89FD DEF2                FDIVRP ST(2), ST
0734:89FF 64                  SEG FS (unused)
0734:8A00 DEF3                FDIVRP ST(3), ST
0734:8A02 26                  SEG ES (unused)
0734:8A03 DEF4                FDIVRP ST(4), ST
0734:8A05 64                  SEG FS (unused)
0734:8A06 DEF5                FDIVRP ST(5), ST
0734:8A08 26                  SEG ES (unused)
0734:8A09 DEF6                FDIVRP ST(6), ST
0734:8A0B DEF7                FDIVRP ST(7), ST
0734:8A0D DEF8                FDIVP ST(0), ST
0734:8A0F 26                  SEG ES (unused)
0734:8A10 DEF9                FDIVP ST(1), ST
0734:8A12 3E                  SEG DS (unused)
0734:8A13 DEFA                FDIVP ST(2), ST
0734:8A15 DEFB                FDIVP ST(3), ST
0734:8A17 DEFC                FDIVP ST(4), ST
0734:8A19 26                  SEG ES (unused)
0734:8A1A DEFD                FDIVP ST(5), ST
0734:8A1C DEFE                FDIVP ST(6), ST
0734:8A1E 26                  SEG ES (unused)
0734:8A1F 26                  SEG ES (unused)
0734:8A20 DEFF                FDIVP ST(7), ST
0734:8A22 2EDF00              FILD WORD PTR CS: [BX+SI]
0734:8A25 DF01                FILD WORD PTR [BX+DI]
0734:8A27 26                  SEG ES (unused)
0734:8A28 26DF02              FILD WORD PTR ES: [BP+SI]
0734:8A2B DF03                FILD WORD PTR [BP+DI]
0734:8A2D DF04                FILD WORD PTR [SI]
0734:8A2F DF05                FILD WORD PTR [DI]
0734:8A31 64DF06C7D5          FILD WORD PTR FS: [D5C7]
0734:8A36 26                  SEG ES (unused)
0734:8A37 26DF07              FILD WORD PTR ES: [BX]
0734:8A3A DF10                FIST WORD PTR [BX+SI]
0734:8A3C DF11                FIST WORD PTR [BX+DI]
0734:8A3E 26DF12              FIST WORD PTR ES: [BP+SI]
0734:8A41 26                  SEG ES (unused)
0734:8A42 26DF13              FIST WORD PTR ES: [BP+DI]
0734:8A45 DF14                FIST WORD PTR [SI]
0734:8A47 26DF15              FIST WORD PTR ES: [DI]
0734:8A4A 26DF16329E          FIST WORD PTR ES: [9E32]
0734:8A4F DF17                FIST WORD PTR [BX]
0734:8A51 26DF18              FISTP WORD PTR ES: [BX+SI]
0734:8A54 DF19                FISTP WORD PTR [BX+DI]
0734:8A56 3EDF1A              FISTP WORD PTR DS: [BP+SI]
0734:8A59 64DF1B              FISTP WORD PTR FS: [BP+DI]
0734:8A5C DF1C                FISTP WORD PTR [SI]
0734:8A5E DF1D                FISTP WORD PTR [DI]
0734:8A60 DF1EB4B0            FISTP WORD PTR [B0B4]
0734:8A64 26                  SEG ES (unused)
0734:8A65 26DF1F              FISTP WORD PTR ES: [BX]
0734:8A68 DF20                FBLD TBYTE PTR [BX+SI]
0734:8A6A DF21                FBLD TBYTE PTR [BX+DI]
0734:8A6C 3EDF22              FBLD TBYTE PTR DS: [BP+SI]
0734:8A6F 26                  SEG ES (unused)
0734:8A70 26DF23              FBLD TBYTE PTR ES: [BP+DI]
0734:8A73 36DF24              FBLD TBYTE PTR ES: [SI]
0734:8A76 3EDF25              FBLD TBYTE PTR DS: [DI]
0734:8A79 DF264F57            FBLD TBYTE PTR [574F]
0734:8A7D 26DF27              FBLD TBYTE PTR ES: [BX]
0734:8A80 26                  SEG ES (unused)
0734:8A81 26DF28              FILD QWORD PTR ES: [BX+SI]
0734:8A84 3EDF29              FILD QWORD PTR DS: [BX+DI]
0734:8A87 26DF2A              FILD QWORD PTR ES: [BP+SI]
0734:8A8A 2EDF2B              FILD QWORD PTR CS: [BP+DI]
0734:8A8D DF2C                FILD QWORD PTR [SI]
0734:8A8F DF2D                FILD QWORD PTR [DI]
0734:8A91 DF2EFB5E            FILD QWORD PTR [5EFB]
0734:8A95 26DF2F              FILD QWORD PTR ES: [BX]
0734:8A98 DF30                FBSTP TBYTE PTR [BX+SI]
0734:8A9A 64DF31              FBSTP TBYTE PTR FS: [BX+DI]
0734:8A9D DF32                FBSTP TBYTE PTR [BP+SI]
0734:8A9F DF33                FBSTP TBYTE PTR [BP+DI]
0734:8AA1 2EDF34              FBSTP TBYTE PTR CS: [SI]
0734:8AA4 DF35                FBSTP TBYTE PTR [DI]
0734:8AA6 26DF36C057          FBSTP TBYTE PTR ES: [57C0]
0734:8AAB DF37                FBSTP TBYTE PTR [BX]
0734:8AAD DF38                FISTP QWORD PTR [BX+SI]
0734:8AAF DF39                FISTP QWORD PTR [BX+DI]
0734:8AB1 36DF3A              FISTP QWORD PTR ES: [BP+SI]
0734:8AB4 3EDF3B              FISTP QWORD PTR DS: [BP+DI]
0734:8AB7 DF3C                FISTP QWORD PTR [SI]
0734:8AB9 DF3D                FISTP QWORD PTR [DI]
0734:8ABB DF3E3FFD            FISTP QWORD PTR [FD3F]
0734:8ABF DF3F                FISTP QWORD PTR [BX]
0734:8AC1 26DF4029            FILD WORD PTR ES: [BX+SI+29]
0734:8AC5 26DF4150            FILD WORD PTR ES: [BX+DI+50]
0734:8AC9 DF4248              FILD WORD PTR [BP+SI+48]
0734:8ACC 36DF430D            FILD WORD PTR ES: [BP+DI+0D]
0734:8AD0 DF4459              FILD WORD PTR [SI+59]
0734:8AD3 26                  SEG ES (unused)
0734:8AD4 26DF4598            FILD WORD PTR ES: [DI-98]
0734:8AD8 DF46D7              FILD WORD PTR [BP-D7]
0734:8ADB 26                  SEG ES (unused)
0734:8ADC 26DF4771            FILD WORD PTR ES: [BX+71]
0734:8AE0 2EDF50A6            FIST WORD PTR CS: [BX+SI-A6]
0734:8AE4 DF51D5              FIST WORD PTR [BX+DI-D5]
0734:8AE7 2EDF52FE            FIST WORD PTR CS: [BP+SI-FE]
0734:8AEB DF5343              FIST WORD PTR [BP+DI+43]
0734:8AEE 26DF5469            FIST WORD PTR ES: [SI+69]
0734:8AF2 DF551A              FIST WORD PTR [DI+1A]
0734:8AF5 36DF565C            FIST WORD PTR ES: [BP+5C]
0734:8AF9 DF5720              FIST WORD PTR [BX+20]
0734:8AFC DF5810              FISTP WORD PTR [BX+SI+10]
0734:8AFF DF595E              FISTP WORD PTR [BX+DI+5E]
0734:8B02 DF5A92              FISTP WORD PTR [BP+SI-92]
0734:8B05 DF5B7B              FISTP WORD PTR [BP+DI+7B]
0734:8B08 DF5C27              FISTP WORD PTR [SI+27]
0734:8B0B DF5DAD              FISTP WORD PTR [DI-AD]
0734:8B0E 64DF5E79            FISTP WORD PTR FS: [BP+79]
0734:8B12 DF5F04              FISTP WORD PTR [BX+04]
0734:8B15 26                  SEG ES (unused)
0734:8B16 26DF601A            FBLD TBYTE PTR ES: [BX+SI+1A]
0734:8B1A DF612C              FBLD TBYTE PTR [BX+DI+2C]
0734:8B1D DF6229              FBLD TBYTE PTR [BP+SI+29]
0734:8B20 26                  SEG ES (unused)
0734:8B21 26DF631E            FBLD TBYTE PTR ES: [BP+DI+1E]
0734:8B25 64DF642F            FBLD TBYTE PTR FS: [SI+2F]
0734:8B29 26                  SEG ES (unused)
0734:8B2A 26DF6584            FBLD TBYTE PTR ES: [DI-84]
0734:8B2E DF66E2              FBLD TBYTE PTR [BP-E2]
0734:8B31 3EDF670F            FBLD TBYTE PTR DS: [BX+0F]
0734:8B35 DF68A1              FILD QWORD PTR [BX+SI-A1]
0734:8B38 2EDF6904            FILD QWORD PTR CS: [BX+DI+04]
0734:8B3C DF6ADF              FILD QWORD PTR [BP+SI-DF]
0734:8B3F 3EDF6BD0            FILD QWORD PTR DS: [BP+DI-D0]
0734:8B43 36DF6CFB            FILD QWORD PTR ES: [SI-FB]
0734:8B47 3EDF6D91            FILD QWORD PTR DS: [DI-91]
0734:8B4B 2EDF6E03            FILD QWORD PTR CS: [BP+03]
0734:8B4F DF6FE6              FILD QWORD PTR [BX-E6]
0734:8B52 26                  SEG ES (unused)
0734:8B53 26DF7037            FBSTP TBYTE PTR ES: [BX+SI+37]
0734:8B57 3EDF71D5            FBSTP TBYTE PTR DS: [BX+DI-D5]
0734:8B5B 2EDF72D7            FBSTP TBYTE PTR CS: [BP+SI-D7]
0734:8B5F DF7397              FBSTP TBYTE PTR [BP+DI-97]
0734:8B62 2EDF74D3            FBSTP TBYTE PTR CS: [SI-D3]
0734:8B66 DF7524              FBSTP TBYTE PTR [DI+24]
0734:8B69 2EDF7658            FBSTP TBYTE PTR CS: [BP+58]
0734:8B6D 3EDF77D3            FBSTP TBYTE PTR DS: [BX-D3]
0734:8B71 64DF78EC            FISTP QWORD PTR FS: [BX+SI-EC]
0734:8B75 DF79EC              FISTP QWORD PTR [BX+DI-EC]
0734:8B78 64DF7A46            FISTP QWORD PTR FS: [BP+SI+46]
0734:8B7C 26                  SEG ES (unused)
0734:8B7D 26DF7B12            FISTP QWORD PTR ES: [BP+DI+12]
0734:8B81 DF7C3F              FISTP QWORD PTR [SI+3F]
0734:8B84 DF7D01              FISTP QWORD PTR [DI+01]
0734:8B87 36DF7EA1            FISTP QWORD PTR ES: [BP-A1]
0734:8B8B DF7F99              FISTP QWORD PTR [BX-99]
0734:8B8E 26DF801289          FILD WORD PTR ES: [BX+SI+8912]
0734:8B93 DF8129F9            FILD WORD PTR [BX+DI+F929]
0734:8B97 DF825FC5            FILD WORD PTR [BP+SI+C55F]
0734:8B9B DF839624            FILD WORD PTR [BP+DI+2496]
0734:8B9F DF84EB87            FILD WORD PTR [SI+87EB]
0734:8BA3 DF850DA9            FILD WORD PTR [DI+A90D]
0734:8BA7 DF863BDF            FILD WORD PTR [BP+DF3B]
0734:8BAB 26                  SEG ES (unused)
0734:8BAC 26DF87C02F          FILD WORD PTR ES: [BX+2FC0]
0734:8BB1 DF90630C            FIST WORD PTR [BX+SI+0C63]
0734:8BB5 64DF910B0D          FIST WORD PTR FS: [BX+DI+0D0B]
0734:8BBA 2EDF92D899          FIST WORD PTR CS: [BP+SI+99D8]
0734:8BBF 64DF931F1D          FIST WORD PTR FS: [BP+DI+1D1F]
0734:8BC4 DF94DB8F            FIST WORD PTR [SI+8FDB]
0734:8BC8 26DF954D5C          FIST WORD PTR ES: [DI+5C4D]
0734:8BCD 36DF96BEEA          FIST WORD PTR ES: [BP+EABE]
0734:8BD2 DF97A532            FIST WORD PTR [BX+32A5]
0734:8BD6 DF98A53F            FISTP WORD PTR [BX+SI+3FA5]
0734:8BDA 26DF997DCD          FISTP WORD PTR ES: [BX+DI+CD7D]
0734:8BDF 64DF9A25AE          FISTP WORD PTR FS: [BP+SI+AE25]
0734:8BE4 64DF9B726A          FISTP WORD PTR FS: [BP+DI+6A72]
0734:8BE9 DF9C4BAC            FISTP WORD PTR [SI+AC4B]
0734:8BED 64DF9DEC05          FISTP WORD PTR FS: [DI+05EC]
0734:8BF2 2EDF9E2866          FISTP WORD PTR CS: [BP+6628]
0734:8BF7 3EDF9F9F44          FISTP WORD PTR DS: [BX+449F]
0734:8BFC DFA09D17            FBLD TBYTE PTR [BX+SI+179D]
0734:8C00 DFA1ADE4            FBLD TBYTE PTR [BX+DI+E4AD]
0734:8C04 DFA29802            FBLD TBYTE PTR [BP+SI+0298]
0734:8C08 36DFA38746          FBLD TBYTE PTR ES: [BP+DI+4687]
0734:8C0D DFA44491            FBLD TBYTE PTR [SI+9144]
0734:8C11 3EDFA57DA3          FBLD TBYTE PTR DS: [DI+A37D]
0734:8C16 DFA63132            FBLD TBYTE PTR [BP+3231]
0734:8C1A DFA76644            FBLD TBYTE PTR [BX+4466]
0734:8C1E 36DFA8219D          FILD QWORD PTR ES: [BX+SI+9D21]
0734:8C23 36DFA98B6C          FILD QWORD PTR ES: [BX+DI+6C8B]
0734:8C28 DFAA601E            FILD QWORD PTR [BP+SI+1E60]
0734:8C2C DFABC6D6            FILD QWORD PTR [BP+DI+D6C6]
0734:8C30 DFACB87E            FILD QWORD PTR [SI+7EB8]
0734:8C34 DFAD850F            FILD QWORD PTR [DI+0F85]
0734:8C38 64DFAE801E          FILD QWORD PTR FS: [BP+1E80]
0734:8C3D 3EDFAFE28F          FILD QWORD PTR DS: [BX+8FE2]
0734:8C42 64DFB0B84F          FBSTP TBYTE PTR FS: [BX+SI+4FB8]
0734:8C47 36DFB13219          FBSTP TBYTE PTR ES: [BX+DI+1932]
0734:8C4C DFB24BA8            FBSTP TBYTE PTR [BP+SI+A84B]
0734:8C50 64DFB3AAC1          FBSTP TBYTE PTR FS: [BP+DI+C1AA]
0734:8C55 DFB4D8D2            FBSTP TBYTE PTR [SI+D2D8]
0734:8C59 36DFB5F219          FBSTP TBYTE PTR ES: [DI+19F2]
0734:8C5E 2EDFB6CF0E          FBSTP TBYTE PTR CS: [BP+0ECF]
0734:8C63 26                  SEG ES (unused)
0734:8C64 26DFB7B183          FBSTP TBYTE PTR ES: [BX+83B1]
0734:8C69 26DFB824AE          FISTP QWORD PTR ES: [BX+SI+AE24]
0734:8C6E DFB98208            FISTP QWORD PTR [BX+DI+0882]
0734:8C72 DFBAA1AA            FISTP QWORD PTR [BP+SI+AAA1]
0734:8C76 36DFBB73DD          FISTP QWORD PTR ES: [BP+DI+DD73]
0734:8C7B 64DFBC0465          FISTP QWORD PTR FS: [SI+6504]
0734:8C80 DFBD81C8            FISTP QWORD PTR [DI+C881]
0734:8C84 26DFBEE3C5          FISTP QWORD PTR ES: [BP+C5E3]
0734:8C89 DFBF7AD1            FISTP QWORD PTR [BX+D17A]
0734:8C8D 26                  SEG ES (unused)
0734:8C8E 26                  SEG ES (unused)
0734:8C8F DFC0                FFREEP ST(0)
0734:8C91 2E                  SEG CS (unused)
0734:8C92 DFC1                FFREEP ST(1)
0734:8C94 64                  SEG FS (unused)
0734:8C95 DFC2                FFREEP ST(2)
0734:8C97 2E                  SEG CS (unused)
0734:8C98 DFC3                FFREEP ST(3)
0734:8C9A 2E                  SEG CS (unused)
0734:8C9B DFC4                FFREEP ST(4)
0734:8C9D DFC5                FFREEP ST(5)
0734:8C9F DFC6                FFREEP ST(6)
0734:8CA1 2E                  SEG CS (unused)
0734:8CA2 DFC7                FFREEP ST(7)
0734:8CA4 26                  SEG ES (unused)
0734:8CA5 DFE0                FNSTSW AX
0734:8CA7 DFF0                FCOMIP ST(0)
0734:8CA9 DFF1                FCOMIP ST(1)
0734:8CAB 64                  SEG FS (unused)
0734:8CAC DFF2                FCOMIP ST(2)
0734:8CAE 3E                  SEG DS (unused)
0734:8CAF DFF3                FCOMIP ST(3)
0734:8CB1 DFF4                FCOMIP ST(4)
0734:8CB3 DFF5                FCOMIP ST(5)
0734:8CB5 26                  SEG ES (unused)
0734:8CB6 26                  SEG ES (unused)
0734:8CB7 DFF6                FCOMIP ST(6)
0734:8CB9 DFF7                FCOMIP ST(7)
0734:8CBB D127                SHL WORD PTR [BX], 1
0734:8CBD D26778              SHL BYTE PTR [BX+78], CL
0734:8CC0 D1A75634            SHL WORD PTR [BX+3456], 1
0734:8CC4 D3E7                SHL DI, CL
0734:8CC6 D06069              SHL BYTE PTR [BX+SI+69], 1
0734:8CC9 D3A07856            SHL WORD PTR [BX+SI+5678], CL
0734:8CCD D121                SHL WORD PTR [BX+DI], 1
0734:8CCF D36149              SHL WORD PTR [BX+DI+49], CL
0734:8CD2 D1E6                SHL SI, 1
0734:8CD4 D224                SHL BYTE PTR [SI], CL
0734:8CD6 D16478              SHL WORD PTR [SI+78], 1
0734:8CD9 D2A45634            SHL BYTE PTR [SI+3456], CL
0734:8CDD D125                SHL WORD PTR [DI], 1
0734:8CDF D26578              SHL BYTE PTR [DI+78], CL
0734:8CE2 D1A55634            SHL WORD PTR [DI+3456], 1
0734:8CE6 D36600              SHL WORD PTR [BP+00], CL
0734:8CE9 D16678              SHL WORD PTR [BP+78], 1
0734:8CEC D2E6                SHL DH, CL
0734:8CEE D022                SHL BYTE PTR [BP+SI], 1
0734:8CF0 D36259              SHL WORD PTR [BP+SI+59], CL
0734:8CF3 D1A27856            SHL WORD PTR [BP+SI+5678], 1
0734:8CF7 D223                SHL BYTE PTR [BP+DI], CL
0734:8CF9 D16319              SHL WORD PTR [BP+DI+19], 1
0734:8CFC D3A37856            SHL WORD PTR [BP+DI+5678], CL
0734:8D00 D12F                SHR WORD PTR [BX], 1
0734:8D02 D26F78              SHR BYTE PTR [BX+78], CL
0734:8D05 D1AF5634            SHR WORD PTR [BX+3456], 1
0734:8D09 D328                SHR WORD PTR [BX+SI], CL
0734:8D0B D06869              SHR BYTE PTR [BX+SI+69], 1
0734:8D0E D3A87856            SHR WORD PTR [BX+SI+5678], CL
0734:8D12 D129                SHR WORD PTR [BX+DI], 1
0734:8D14 D36949              SHR WORD PTR [BX+DI+49], CL
0734:8D17 D1A97856            SHR WORD PTR [BX+DI+5678], 1
0734:8D1B D22C                SHR BYTE PTR [SI], CL
0734:8D1D D16C78              SHR WORD PTR [SI+78], 1
0734:8D20 D2AC5634            SHR BYTE PTR [SI+3456], CL
0734:8D24 D12D                SHR WORD PTR [DI], 1
0734:8D26 D2E8                SHR AL, CL
0734:8D28 D1AD5634            SHR WORD PTR [DI+3456], 1
0734:8D2C D36E00              SHR WORD PTR [BP+00], CL
0734:8D2F D16E78              SHR WORD PTR [BP+78], 1
0734:8D32 D3E9                SHR CX, CL
0734:8D34 D02A                SHR BYTE PTR [BP+SI], 1
0734:8D36 D36A59              SHR WORD PTR [BP+SI+59], CL
0734:8D39 D1AA7856            SHR WORD PTR [BP+SI+5678], 1
0734:8D3D D22B                SHR BYTE PTR [BP+DI], CL
0734:8D3F D1ED                SHR BP, 1
0734:8D41 D3AB7856            SHR WORD PTR [BP+DI+5678], CL
0734:8D45 D107                ROL WORD PTR [BX], 1
0734:8D47 D24778              ROL BYTE PTR [BX+78], CL
0734:8D4A D1875634            ROL WORD PTR [BX+3456], 1
0734:8D4E D3C7                ROL DI, CL
0734:8D50 D04069              ROL BYTE PTR [BX+SI+69], 1
0734:8D53 D3807856            ROL WORD PTR [BX+SI+5678], CL
0734:8D57 D101                ROL WORD PTR [BX+DI], 1
0734:8D59 D34149              ROL WORD PTR [BX+DI+49], CL
0734:8D5C D1C6                ROL SI, 1
0734:8D5E D204                ROL BYTE PTR [SI], CL
0734:8D60 D14478              ROL WORD PTR [SI+78], 1
0734:8D63 D2845634            ROL BYTE PTR [SI+3456], CL
0734:8D67 D105                ROL WORD PTR [DI], 1
0734:8D69 D24578              ROL BYTE PTR [DI+78], CL
0734:8D6C D1855634            ROL WORD PTR [DI+3456], 1
0734:8D70 D34600              ROL WORD PTR [BP+00], CL
0734:8D73 D14678              ROL WORD PTR [BP+78], 1
0734:8D76 D2C6                ROL DH, CL
0734:8D78 D002                ROL BYTE PTR [BP+SI], 1
0734:8D7A D34259              ROL WORD PTR [BP+SI+59], CL
0734:8D7D D1827856            ROL WORD PTR [BP+SI+5678], 1
0734:8D81 D203                ROL BYTE PTR [BP+DI], CL
0734:8D83 D14319              ROL WORD PTR [BP+DI+19], 1
0734:8D86 D3837856            ROL WORD PTR [BP+DI+5678], CL
0734:8D8A D10F                ROR WORD PTR [BX], 1
0734:8D8C D24F78              ROR BYTE PTR [BX+78], CL
0734:8D8F D18F5634            ROR WORD PTR [BX+3456], 1
0734:8D93 D3CF                ROR DI, CL
0734:8D95 D04869              ROR BYTE PTR [BX+SI+69], 1
0734:8D98 D3887856            ROR WORD PTR [BX+SI+5678], CL
0734:8D9C D109                ROR WORD PTR [BX+DI], 1
0734:8D9E D34949              ROR WORD PTR [BX+DI+49], CL
0734:8DA1 D1CE                ROR SI, 1
0734:8DA3 D20C                ROR BYTE PTR [SI], CL
0734:8DA5 D14C78              ROR WORD PTR [SI+78], 1
0734:8DA8 D28C5634            ROR BYTE PTR [SI+3456], CL
0734:8DAC D10D                ROR WORD PTR [DI], 1
0734:8DAE D24D78              ROR BYTE PTR [DI+78], CL
0734:8DB1 D18D5634            ROR WORD PTR [DI+3456], 1
0734:8DB5 D34E00              ROR WORD PTR [BP+00], CL
0734:8DB8 D14E78              ROR WORD PTR [BP+78], 1
0734:8DBB D2CE                ROR DH, CL
0734:8DBD D00A                ROR BYTE PTR [BP+SI], 1
0734:8DBF D34A59              ROR WORD PTR [BP+SI+59], CL
0734:8DC2 D18A7856            ROR WORD PTR [BP+SI+5678], 1
0734:8DC6 D20B                ROR BYTE PTR [BP+DI], CL
0734:8DC8 D14B19              ROR WORD PTR [BP+DI+19], 1
0734:8DCB D38B7856            ROR WORD PTR [BP+DI+5678], CL
0734:8DCF D11F                RCR WORD PTR [BX], 1
0734:8DD1 D25F78              RCR BYTE PTR [BX+78], CL
0734:8DD4 D19F5634            RCR WORD PTR [BX+3456], 1
0734:8DD8 D3DF                RCR DI, CL
0734:8DDA D05869              RCR BYTE PTR [BX+SI+69], 1
0734:8DDD D3987856            RCR WORD PTR [BX+SI+5678], CL
0734:8DE1 D119                RCR WORD PTR [BX+DI], 1
0734:8DE3 D35949              RCR WORD PTR [BX+DI+49], CL
0734:8DE6 D1DE                RCR SI, 1
0734:8DE8 D21C                RCR BYTE PTR [SI], CL
0734:8DEA D15C78              RCR WORD PTR [SI+78], 1
0734:8DED D29C5634            RCR BYTE PTR [SI+3456], CL
0734:8DF1 D11D                RCR WORD PTR [DI], 1
0734:8DF3 D25D78              RCR BYTE PTR [DI+78], CL
0734:8DF6 D19D5634            RCR WORD PTR [DI+3456], 1
0734:8DFA D35E00              RCR WORD PTR [BP+00], CL
0734:8DFD D15E78              RCR WORD PTR [BP+78], 1
0734:8E00 D2DE                RCR DH, CL
0734:8E02 D01A                RCR BYTE PTR [BP+SI], 1
0734:8E04 D35A59              RCR WORD PTR [BP+SI+59], CL
0734:8E07 D19A7856            RCR WORD PTR [BP+SI+5678], 1
0734:8E0B D21B                RCR BYTE PTR [BP+DI], CL
0734:8E0D D15B19              RCR WORD PTR [BP+DI+19], 1
0734:8E10 D39B7856            RCR WORD PTR [BP+DI+5678], CL
0734:8E14 D117                RCL WORD PTR [BX], 1
0734:8E16 D25778              RCL BYTE PTR [BX+78], CL
0734:8E19 D1975634            RCL WORD PTR [BX+3456], 1
0734:8E1D D3D7                RCL DI, CL
0734:8E1F D05069              RCL BYTE PTR [BX+SI+69], 1
0734:8E22 D3907856            RCL WORD PTR [BX+SI+5678], CL
0734:8E26 D111                RCL WORD PTR [BX+DI], 1
0734:8E28 D35149              RCL WORD PTR [BX+DI+49], CL
0734:8E2B D1D6                RCL SI, 1
0734:8E2D D214                RCL BYTE PTR [SI], CL
0734:8E2F D15478              RCL WORD PTR [SI+78], 1
0734:8E32 D2945634            RCL BYTE PTR [SI+3456], CL
0734:8E36 D115                RCL WORD PTR [DI], 1
0734:8E38 D25578              RCL BYTE PTR [DI+78], CL
0734:8E3B D1955634            RCL WORD PTR [DI+3456], 1
0734:8E3F D35600              RCL WORD PTR [BP+00], CL
0734:8E42 D15678              RCL WORD PTR [BP+78], 1
0734:8E45 D2D6                RCL DH, CL
0734:8E47 D012                RCL BYTE PTR [BP+SI], 1
0734:8E49 D35259              RCL WORD PTR [BP+SI+59], CL
0734:8E4C D1927856            RCL WORD PTR [BP+SI+5678], 1
0734:8E50 D213                RCL BYTE PTR [BP+DI], CL
0734:8E52 D15319              RCL WORD PTR [BP+DI+19], 1
0734:8E55 D3937856            RCL WORD PTR [BP+DI+5678], CL
0734:8E59 F7D5                NOT BP
0734:8E5B F75658              NOT WORD PTR [BP+58]
0734:8E5E F7965634            NOT WORD PTR [BP+3456]
0734:8E62 F7D1                NOT CX
0734:8E64 F75239              NOT WORD PTR [BP+SI+39]
0734:8E67 F7927856            NOT WORD PTR [BP+SI+5678]
0734:8E6B F7D2                NOT DX
0734:8E6D F75349              NOT WORD PTR [BP+DI+49]
0734:8E70 F7D6                NOT SI
0734:8E72 F65578              NOT BYTE PTR [DI+78]
0734:8E75 F6955634            NOT BYTE PTR [DI+3456]
0734:8E79 F6D6                NOT DH
0734:8E7B F65678              NOT BYTE PTR [BP+78]
0734:8E7E F6965634            NOT BYTE PTR [BP+3456]
0734:8E82 F6D4                NOT AH
0734:8E84 F6D3                NOT BL
0734:8E86 F6955634            NOT BYTE PTR [DI+3456]
0734:8E8A 230F                AND CX, [BX]
0734:8E8C 235778              AND DX, [BX+78]
0734:8E8F 239F5634            AND BX, [BX+3456]
0734:8E93 2330                AND SI, [BX+SI]
0734:8E95 237879              AND DI, [BX+SI+79]
0734:8E98 23A87856            AND BP, [BX+SI+5678]
0734:8E9C 2331                AND SI, [BX+DI]
0734:8E9E 237929              AND DI, [BX+DI+29]
0734:8EA1 23A97856            AND BP, [BX+DI+5678]
0734:8EA5 2324                AND SP, [SI]
0734:8EA7 235428              AND DX, [SI+28]
0734:8EAA 239C5634            AND BX, [SI+3456]
0734:8EAE 2305                AND AX, [DI]
0734:8EB0 235558              AND DX, [DI+58]
0734:8EB3 239D5634            AND BX, [DI+3456]
0734:8EB7 234E00              AND CX, [BP+00]
0734:8EBA 235658              AND DX, [BP+58]
0734:8EBD 239E5634            AND BX, [BP+3456]
0734:8EC1 2332                AND SI, [BP+SI]
0734:8EC3 237A39              AND DI, [BP+SI+39]
0734:8EC6 23AA7856            AND BP, [BP+SI+5678]
0734:8ECA 2333                AND SI, [BP+DI]
0734:8ECC 237B49              AND DI, [BP+DI+49]
0734:8ECF 23AB7856            AND BP, [BP+DI+5678]
0734:8ED3 210F                AND [BX], CX
0734:8ED5 215778              AND [BX+78], DX
0734:8ED8 219F5634            AND [BX+3456], BX
0734:8EDC 2100                AND [BX+SI], AX
0734:8EDE 216069              AND [BX+SI+69], SP
0734:8EE1 21B87856            AND [BX+SI+5678], DI
0734:8EE5 2129                AND [BX+DI], BP
0734:8EE7 217149              AND [BX+DI+49], SI
0734:8EEA 21B97856            AND [BX+DI+5678], DI
0734:8EEE 2104                AND [SI], AX
0734:8EF0 214C78              AND [SI+78], CX
0734:8EF3 21945634            AND [SI+3456], DX
0734:8EF7 212D                AND [DI], BP
0734:8EF9 216578              AND [DI+78], SP
0734:8EFC 21B55634            AND [DI+3456], SI
0734:8F00 217E00              AND [BP+00], DI
0734:8F03 214E78              AND [BP+78], CX
0734:8F06 21965634            AND [BP+3456], DX
0734:8F0A 2132                AND [BP+SI], SI
0734:8F0C 217A59              AND [BP+SI+59], DI
0734:8F0F 21827856            AND [BP+SI+5678], AX
0734:8F13 213B                AND [BP+DI], DI
0734:8F15 215B19              AND [BP+DI+19], BX
0734:8F18 21937856            AND [BP+DI+5678], DX
0734:8F1C 2205                AND AL, [DI]
0734:8F1E 226578              AND AH, [DI+78]
0734:8F21 22BD5634            AND BH, [DI+3456]
0734:8F25 224E00              AND CL, [BP+00]
0734:8F28 225678              AND DL, [BP+78]
0734:8F2B 229E5634            AND BL, [BP+3456]
0734:8F2F 222A                AND CH, [BP+SI]
0734:8F31 207578              AND [DI+78], DH
0734:8F34 20955634            AND [DI+3456], DL
0734:8F38 206E00              AND [BP+00], CH
0734:8F3B 204E56              AND [BP+56], CL
0734:8F3E 20BE5634            AND [BP+3456], BH
0734:8F42 201A                AND [BP+SI], BL
0734:8F44 206245              AND [BP+SI+45], AH
0734:8F47 20827856            AND [BP+SI+5678], AL
0734:8F4B 80657815            AND BYTE PTR [DI+78], 15
0734:8F4F 80A5563416          AND BYTE PTR [DI+3456], 16
0734:8F54 80660028            AND BYTE PTR [BP+00], 28
0734:8F58 80665688            AND BYTE PTR [BP+56], 88
0734:8F5C 81A656343412        AND WORD PTR [BP+3456], 1234
0734:8F62 81221534            AND WORD PTR [BP+SI], 3415
0734:8F66 8162458547          AND WORD PTR [BP+SI+45], 4785
0734:8F6B 81A278563615        AND WORD PTR [BP+SI+5678], 1536
0734:8F71 80E115              AND CL, 15
0734:8F74 80E516              AND CH, 16
0734:8F77 80E228              AND DL, 28
0734:8F7A 80E488              AND AH, 88
0734:8F7D 81E33412            AND BX, 1234
0734:8F81 81E71534            AND DI, 3415
0734:8F85 81E48547            AND SP, 4785
0734:8F89 81E53615            AND BP, 1536
0734:8F8D 2415                AND AL, 15
0734:8F8F 251516              AND AX, 1615
0734:8F92 850F                TEST [BX], CX
0734:8F94 855778              TEST [BX+78], DX
0734:8F97 859F5634            TEST [BX+3456], BX
0734:8F9B 8530                TEST [BX+SI], SI
0734:8F9D 857879              TEST [BX+SI+79], DI
0734:8FA0 85A87856            TEST [BX+SI+5678], BP
0734:8FA4 8531                TEST [BX+DI], SI
0734:8FA6 857929              TEST [BX+DI+29], DI
0734:8FA9 85A97856            TEST [BX+DI+5678], BP
0734:8FAD 8524                TEST [SI], SP
0734:8FAF 855428              TEST [SI+28], DX
0734:8FB2 859C5634            TEST [SI+3456], BX
0734:8FB6 8505                TEST [DI], AX
0734:8FB8 855558              TEST [DI+58], DX
0734:8FBB 859D5634            TEST [DI+3456], BX
0734:8FBF 854E00              TEST [BP+00], CX
0734:8FC2 855658              TEST [BP+58], DX
0734:8FC5 859E5634            TEST [BP+3456], BX
0734:8FC9 8532                TEST [BP+SI], SI
0734:8FCB 857A39              TEST [BP+SI+39], DI
0734:8FCE 85AA7856            TEST [BP+SI+5678], BP
0734:8FD2 8533                TEST [BP+DI], SI
0734:8FD4 857B49              TEST [BP+DI+49], DI
0734:8FD7 85AB7856            TEST [BP+DI+5678], BP
0734:8FDB 850F                TEST [BX], CX
0734:8FDD 855778              TEST [BX+78], DX
0734:8FE0 859F5634            TEST [BX+3456], BX
0734:8FE4 8500                TEST [BX+SI], AX
0734:8FE6 856069              TEST [BX+SI+69], SP
0734:8FE9 85B87856            TEST [BX+SI+5678], DI
0734:8FED 8529                TEST [BX+DI], BP
0734:8FEF 857149              TEST [BX+DI+49], SI
0734:8FF2 85B97856            TEST [BX+DI+5678], DI
0734:8FF6 8504                TEST [SI], AX
0734:8FF8 854C78              TEST [SI+78], CX
0734:8FFB 85945634            TEST [SI+3456], DX
0734:8FFF 852D                TEST [DI], BP
0734:9001 856578              TEST [DI+78], SP
0734:9004 85B55634            TEST [DI+3456], SI
0734:9008 857E00              TEST [BP+00], DI
0734:900B 854E78              TEST [BP+78], CX
0734:900E 85965634            TEST [BP+3456], DX
0734:9012 8532                TEST [BP+SI], SI
0734:9014 857A59              TEST [BP+SI+59], DI
0734:9017 85827856            TEST [BP+SI+5678], AX
0734:901B 853B                TEST [BP+DI], DI
0734:901D 855B19              TEST [BP+DI+19], BX
0734:9020 85937856            TEST [BP+DI+5678], DX
0734:9024 8405                TEST [DI], AL
0734:9026 846578              TEST [DI+78], AH
0734:9029 84BD5634            TEST [DI+3456], BH
0734:902D 844E00              TEST [BP+00], CL
0734:9030 845678              TEST [BP+78], DL
0734:9033 849E5634            TEST [BP+3456], BL
0734:9037 842A                TEST [BP+SI], CH
0734:9039 847578              TEST [DI+78], DH
0734:903C 84955634            TEST [DI+3456], DL
0734:9040 846E00              TEST [BP+00], CH
0734:9043 844E56              TEST [BP+56], CL
0734:9046 84BE5634            TEST [BP+3456], BH
0734:904A 841A                TEST [BP+SI], BL
0734:904C 846245              TEST [BP+SI+45], AH
0734:904F 84827856            TEST [BP+SI+5678], AL
0734:9053 F6457815            TEST BYTE PTR [DI+78], 15
0734:9057 F685563416          TEST BYTE PTR [DI+3456], 16
0734:905C F6460028            TEST BYTE PTR [BP+00], 28
0734:9060 F6465688            TEST BYTE PTR [BP+56], 88
0734:9064 F78656343412        TEST WORD PTR [BP+3456], 1234
0734:906A F7021534            TEST WORD PTR [BP+SI], 3415
0734:906E F742458547          TEST WORD PTR [BP+SI+45], 4785
0734:9073 F78278563615        TEST WORD PTR [BP+SI+5678], 1536
0734:9079 F6C115              TEST CL, 15
0734:907C F6C516              TEST CH, 16
0734:907F F6C228              TEST DL, 28
0734:9082 F6C488              TEST AH, 88
0734:9085 F7C33412            TEST BX, 1234
0734:9089 F7C71534            TEST DI, 3415
0734:908D F7C48547            TEST SP, 4785
0734:9091 F7C53615            TEST BP, 1536
0734:9095 A815                TEST AL, 15
0734:9097 A91516              TEST AX, 1615
0734:909A 0B0F                OR CX, [BX]
0734:909C 0B5778              OR DX, [BX+78]
0734:909F 0B9F5634            OR BX, [BX+3456]
0734:90A3 0B30                OR SI, [BX+SI]
0734:90A5 0B7879              OR DI, [BX+SI+79]
0734:90A8 0BA87856            OR BP, [BX+SI+5678]
0734:90AC 0B31                OR SI, [BX+DI]
0734:90AE 0B7929              OR DI, [BX+DI+29]
0734:90B1 0BA97856            OR BP, [BX+DI+5678]
0734:90B5 0B24                OR SP, [SI]
0734:90B7 0B5428              OR DX, [SI+28]
0734:90BA 0B9C5634            OR BX, [SI+3456]
0734:90BE 0B05                OR AX, [DI]
0734:90C0 0B5558              OR DX, [DI+58]
0734:90C3 0B9D5634            OR BX, [DI+3456]
0734:90C7 0B4E00              OR CX, [BP+00]
0734:90CA 0B5658              OR DX, [BP+58]
0734:90CD 0B9E5634            OR BX, [BP+3456]
0734:90D1 0B32                OR SI, [BP+SI]
0734:90D3 0B7A39              OR DI, [BP+SI+39]
0734:90D6 0BAA7856            OR BP, [BP+SI+5678]
0734:90DA 0B33                OR SI, [BP+DI]
0734:90DC 0B7B49              OR DI, [BP+DI+49]
0734:90DF 0BAB7856            OR BP, [BP+DI+5678]
0734:90E3 090F                OR [BX], CX
0734:90E5 095778              OR [BX+78], DX
0734:90E8 099F5634            OR [BX+3456], BX
0734:90EC 0900                OR [BX+SI], AX
0734:90EE 096069              OR [BX+SI+69], SP
0734:90F1 09B87856            OR [BX+SI+5678], DI
0734:90F5 0929                OR [BX+DI], BP
0734:90F7 097149              OR [BX+DI+49], SI
0734:90FA 09B97856            OR [BX+DI+5678], DI
0734:90FE 0904                OR [SI], AX
0734:9100 094C78              OR [SI+78], CX
0734:9103 09945634            OR [SI+3456], DX
0734:9107 092D                OR [DI], BP
0734:9109 096578              OR [DI+78], SP
0734:910C 09B55634            OR [DI+3456], SI
0734:9110 097E00              OR [BP+00], DI
0734:9113 094E78              OR [BP+78], CX
0734:9116 09965634            OR [BP+3456], DX
0734:911A 0932                OR [BP+SI], SI
0734:911C 097A59              OR [BP+SI+59], DI
0734:911F 09827856            OR [BP+SI+5678], AX
0734:9123 093B                OR [BP+DI], DI
0734:9125 095B19              OR [BP+DI+19], BX
0734:9128 09937856            OR [BP+DI+5678], DX
0734:912C 0A05                OR AL, [DI]
0734:912E 0A6578              OR AH, [DI+78]
0734:9131 0ABD5634            OR BH, [DI+3456]
0734:9135 0A4E00              OR CL, [BP+00]
0734:9138 0A5678              OR DL, [BP+78]
0734:913B 0A9E5634            OR BL, [BP+3456]
0734:913F 0A2A                OR CH, [BP+SI]
0734:9141 087578              OR [DI+78], DH
0734:9144 08955634            OR [DI+3456], DL
0734:9148 086E00              OR [BP+00], CH
0734:914B 084E56              OR [BP+56], CL
0734:914E 08BE5634            OR [BP+3456], BH
0734:9152 081A                OR [BP+SI], BL
0734:9154 086245              OR [BP+SI+45], AH
0734:9157 08827856            OR [BP+SI+5678], AL
0734:915B 804D7815            OR [DI+78], 15
0734:915F 808D563416          OR [DI+3456], 16
0734:9164 804E0028            OR [BP+00], 28
0734:9168 804E5688            OR [BP+56], 88
0734:916C 818E56343412        OR [BP+3456], 1234
0734:9172 810A1534            OR [BP+SI], 3415
0734:9176 814A458547          OR [BP+SI+45], 4785
0734:917B 818A78563615        OR [BP+SI+5678], 1536
0734:9181 80C915              OR CL, 15
0734:9184 80CD16              OR CH, 16
0734:9187 80CA28              OR DL, 28
0734:918A 80CC88              OR AH, 88
0734:918D 81CB3412            OR BX, 1234
0734:9191 81CF1534            OR DI, 3415
0734:9195 81CC8547            OR SP, 4785
0734:9199 81CD3615            OR BP, 1536
0734:919D 0C15                OR AL, 15
0734:919F 0D1716              OR AX, 1617
0734:91A2 330F                XOR CX, [BX]
0734:91A4 335778              XOR DX, [BX+78]
0734:91A7 339F5634            XOR BX, [BX+3456]
0734:91AB 3330                XOR SI, [BX+SI]
0734:91AD 337879              XOR DI, [BX+SI+79]
0734:91B0 33A87856            XOR BP, [BX+SI+5678]
0734:91B4 3331                XOR SI, [BX+DI]
0734:91B6 337929              XOR DI, [BX+DI+29]
0734:91B9 33A97856            XOR BP, [BX+DI+5678]
0734:91BD 3324                XOR SP, [SI]
0734:91BF 335428              XOR DX, [SI+28]
0734:91C2 339C5634            XOR BX, [SI+3456]
0734:91C6 3305                XOR AX, [DI]
0734:91C8 335558              XOR DX, [DI+58]
0734:91CB 339D5634            XOR BX, [DI+3456]
0734:91CF 334E00              XOR CX, [BP+00]
0734:91D2 335658              XOR DX, [BP+58]
0734:91D5 339E5634            XOR BX, [BP+3456]
0734:91D9 3332                XOR SI, [BP+SI]
0734:91DB 337A39              XOR DI, [BP+SI+39]
0734:91DE 33AA7856            XOR BP, [BP+SI+5678]
0734:91E2 3333                XOR SI, [BP+DI]
0734:91E4 337B49              XOR DI, [BP+DI+49]
0734:91E7 33AB7856            XOR BP, [BP+DI+5678]
0734:91EB 310F                XOR [BX], CX
0734:91ED 315778              XOR [BX+78], DX
0734:91F0 319F5634            XOR [BX+3456], BX
0734:91F4 3100                XOR [BX+SI], AX
0734:91F6 316069              XOR [BX+SI+69], SP
0734:91F9 31B87856            XOR [BX+SI+5678], DI
0734:91FD 3129                XOR [BX+DI], BP
0734:91FF 317149              XOR [BX+DI+49], SI
0734:9202 31B97856            XOR [BX+DI+5678], DI
0734:9206 3104                XOR [SI], AX
0734:9208 314C78              XOR [SI+78], CX
0734:920B 31945634            XOR [SI+3456], DX
0734:920F 312D                XOR [DI], BP
0734:9211 316578              XOR [DI+78], SP
0734:9214 31B55634            XOR [DI+3456], SI
0734:9218 317E00              XOR [BP+00], DI
0734:921B 314E78              XOR [BP+78], CX
0734:921E 31965634            XOR [BP+3456], DX
0734:9222 3132                XOR [BP+SI], SI
0734:9224 317A59              XOR [BP+SI+59], DI
0734:9227 31827856            XOR [BP+SI+5678], AX
0734:922B 313B                XOR [BP+DI], DI
0734:922D 315B19              XOR [BP+DI+19], BX
0734:9230 31937856            XOR [BP+DI+5678], DX
0734:9234 3205                XOR AL, [DI]
0734:9236 326578              XOR AH, [DI+78]
0734:9239 32BD5634            XOR BH, [DI+3456]
0734:923D 324E00              XOR CL, [BP+00]
0734:9240 325678              XOR DL, [BP+78]
0734:9243 329E5634            XOR BL, [BP+3456]
0734:9247 322A                XOR CH, [BP+SI]
0734:9249 307578              XOR [DI+78], DH
0734:924C 30955634            XOR [DI+3456], DL
0734:9250 306E00              XOR [BP+00], CH
0734:9253 304E56              XOR [BP+56], CL
0734:9256 30BE5634            XOR [BP+3456], BH
0734:925A 301A                XOR [BP+SI], BL
0734:925C 306245              XOR [BP+SI+45], AH
0734:925F 30827856            XOR [BP+SI+5678], AL
0734:9263 80757815            XOR [DI+78], 15
0734:9267 80B5563416          XOR [DI+3456], 16
0734:926C 80760028            XOR [BP+00], 28
0734:9270 80765688            XOR [BP+56], 88
0734:9274 81B656343412        XOR [BP+3456], 1234
0734:927A 81321534            XOR [BP+SI], 3415
0734:927E 8172458547          XOR [BP+SI+45], 4785
0734:9283 81B278563615        XOR [BP+SI+5678], 1536
0734:9289 80F115              XOR CL, 15
0734:928C 80F516              XOR CH, 16
0734:928F 80F228              XOR DL, 28
0734:9292 80F488              XOR AH, 88
0734:9295 81F33412            XOR BX, 1234
0734:9299 81F71534            XOR DI, 3415
0734:929D 81F48547            XOR SP, 4785
0734:92A1 81F53615            XOR BP, 1536
0734:92A5 3418                XOR AL, 18
0734:92A7 357756              XOR AX, 5677
0734:92AA AC                  LODSB
0734:92AB AD                  LODSW
0734:92AC A4                  MOVSB
0734:92AD A5                  MOVSW
0734:92AE A6                  CMPSB
0734:92AF A7                  CMPSW
0734:92B0 AE                  SCASB
0734:92B1 AF                  SCASW
0734:92B2 AA                  STOSB
0734:92B3 AB                  STOSW
0734:92B4 F3A6                REPE                    CMPSW
0734:92B6 F2A6                REPNE                    CMPSB
0734:92B8 F8                  CLC
0734:92B9 F5                  CMC
0734:92BA F9                  STC
0734:92BB FC                  CLD
0734:92BC FD                  STD
0734:92BD FA                  CLI
0734:92BE FB                  STI
0734:92BF F4                  HLT
0734:92C0 9B                  WAIT (unused)
0734:92C1 F0                  LOCK (unused)
0734:92C2 741E                JE	92E2
0734:92C4 741D                JE	92E3
0734:92C6 7CFA                JL	92C2
0734:92C8 7E48                JLE	9312
0734:92CA 72F6                JB	92C2
0734:92CC 7614                JBE	92E2
0734:92CE 7A14                JP	92E4
0734:92D0 70F0                JO	92C2
0734:92D2 78F0                JS	92C4
0734:92D4 75F0                JNE	92C6
0734:92D6 75EC                JNE	92C4
0734:92D8 7D08                JNL	92E2
0734:92DA 7F09                JG	92E5
0734:92DC 73E6                JNB	92C4
0734:92DE 77E2                JA	92C2
0734:92E0 7BF0                JNP	92D2
0734:92E2 71DE                JNO	92C2
0734:92E4 792C                JNS	9312
0734:92E6 E22C                LOOP	9314
0734:92E8 E1D8                LOOPE	92C2
0734:92EA E1D7                LOOPE	92C3
0734:92EC E0D6                LOOPNE	92C4
0734:92EE E0D5                LOOPNE	92C5
0734:92F0 E3F5                JCXZ	92E7
0734:92F2 E82333              CALL C615
0734:92F5 FF17                CALL WORD PTR [BX]
0734:92F7 FF5778              CALL WORD PTR [BX+78]
0734:92FA FF975634            CALL WORD PTR [BX+3456]
0734:92FE FF10                CALL WORD PTR [BX+SI]
0734:9300 FF5079              CALL WORD PTR [BX+SI+79]
0734:9303 FF907856            CALL WORD PTR [BX+SI+5678]
0734:9307 FF11                CALL WORD PTR [BX+DI]
0734:9309 FF5129              CALL WORD PTR [BX+DI+29]
0734:930C FF917856            CALL WORD PTR [BX+DI+5678]
0734:9310 FF14                CALL WORD PTR [SI]
0734:9312 FF5428              CALL WORD PTR [SI+28]
0734:9315 FF945634            CALL WORD PTR [SI+3456]
0734:9319 FF15                CALL WORD PTR [DI]
0734:931B FFD0                CALL AX
0734:931D FFD3                CALL BX
0734:931F FFD1                CALL CX
0734:9321 FFD2                CALL DX
0734:9323 FFD4                CALL SP
0734:9325 FFD7                CALL DI
0734:9327 FFD5                CALL BP
0734:9329 FFD6                CALL SI
0734:932B FFD5                CALL BP
0734:932D 9A45225634          CALL 3456:2245
0734:9332 FF1F                CALL FAR [BX]
0734:9334 FF5F78              CALL FAR [BX+78]
0734:9337 FF9F5634            CALL FAR [BX+3456]
0734:933B FF18                CALL FAR [BX+SI]
0734:933D FF5879              CALL FAR [BX+SI+79]
0734:9340 FF987856            CALL FAR [BX+SI+5678]
0734:9344 FF19                CALL FAR [BX+DI]
0734:9346 FF5929              CALL FAR [BX+DI+29]
0734:9349 FF997856            CALL FAR [BX+DI+5678]
0734:934D FF1C                CALL FAR [SI]
0734:934F FF5C28              CALL FAR [SI+28]
0734:9352 FF9C5634            CALL FAR [SI+3456]
0734:9356 FF1D                CALL FAR [DI]
0734:9358 E9BD32              JMP C615
0734:935B EB15                JMP	9372
0734:935D FF27                JMP WORD PTR [BX]
0734:935F FF6778              JMP WORD PTR [BX+78]
0734:9362 FFA75634            JMP WORD PTR [BX+3456]
0734:9366 FF20                JMP WORD PTR [BX+SI]
0734:9368 FF6079              JMP WORD PTR [BX+SI+79]
0734:936B FFA07856            JMP WORD PTR [BX+SI+5678]
0734:936F FF21                JMP WORD PTR [BX+DI]
0734:9371 FF6129              JMP WORD PTR [BX+DI+29]
0734:9374 FFA17856            JMP WORD PTR [BX+DI+5678]
0734:9378 FF24                JMP WORD PTR [SI]
0734:937A FF6428              JMP WORD PTR [SI+28]
0734:937D FFA45634            JMP WORD PTR [SI+3456]
0734:9381 FF25                JMP WORD PTR [DI]
0734:9383 FFE0                JMP AX
0734:9385 FFE3                JMP BX
0734:9387 FFE1                JMP CX
0734:9389 FFE2                JMP DX
0734:938B FFE4                JMP SP
0734:938D FFE7                JMP DI
0734:938F FFE5                JMP BP
0734:9391 FFE6                JMP SI
0734:9393 FFE5                JMP BP
0734:9395 EA45225634          JMP 3456:2245
0734:939A FF2F                JMP FAR [BX]
0734:939C FF6F78              JMP FAR [BX+78]
0734:939F FFAF5634            JMP FAR [BX+3456]
0734:93A3 FF28                JMP FAR [BX+SI]
0734:93A5 FF6879              JMP FAR [BX+SI+79]
0734:93A8 FFA87856            JMP FAR [BX+SI+5678]
0734:93AC FF29                JMP FAR [BX+DI]
0734:93AE FF6929              JMP FAR [BX+DI+29]
0734:93B1 FFA97856            JMP FAR [BX+DI+5678]
0734:93B5 FF2C                JMP FAR [SI]
0734:93B7 FF6C28              JMP FAR [SI+28]
0734:93BA FFAC5634            JMP FAR [SI+3456]
0734:93BE FF2D                JMP FAR [DI]
0734:93C0 C3                  RET
0734:93C1 C22301              RET 0123
0734:93C4 CB                  RETF
0734:93C5 CA4523              RETF 2345
0734:93C8 CC                  INT 3
0734:93C9 CE                  INTO
0734:93CA CD21                INT 21
0734:93CC CD80                INT 80
0734:93CE D9D0                FNOP
0734:93D0 D904                FLD FLOAT PTR [SI]
0734:93D2 DD00                FLD DWORD PTR [BX+SI]
0734:93D4 DF05                FILD WORD PTR [DI]
0734:93D6 DF6712              FBLD TBYTE PTR [BX+12]
0734:93D9 D9CB                FXCH ST(3)
0734:93DB D9E4                FTST
0734:93DD DF1E6745            FISTP WORD PTR [4567]
0734:93E1 D9FA                FSQRT
0734:93E3 D9F3                FPATAN
0734:93E5 9BD92F              FSTCW WORD PTR [BX]
0734:93E8 8B0F                MOV CX, [BX]
0734:93EA 8B5778              MOV DX, [BX+78]
0734:93ED 8B9F5634            MOV BX, [BX+3456]
0734:93F1 8B30                MOV SI, [BX+SI]
0734:93F3 8B7879              MOV DI, [BX+SI+79]
0734:93F6 8BA87856            MOV BP, [BX+SI+5678]
0734:93FA 8B31                MOV SI, [BX+DI]
0734:93FC 8B7929              MOV DI, [BX+DI+29]
0734:93FF 8BA97856            MOV BP, [BX+DI+5678]
0734:9403 8B24                MOV SP, [SI]
0734:9405 8B5428              MOV DX, [SI+28]
0734:9408 8B9C5634            MOV BX, [SI+3456]
0734:940C 8B05                MOV AX, [DI]
0734:940E 8B5558              MOV DX, [DI+58]
0734:9411 8B9D5634            MOV BX, [DI+3456]
0734:9415 8B4E00              MOV CX, [BP+00]
0734:9418 8B5658              MOV DX, [BP+58]
0734:941B 8B9E5634            MOV BX, [BP+3456]
0734:941F 8B32                MOV SI, [BP+SI]
0734:9421 8B7A39              MOV DI, [BP+SI+39]
0734:9424 8BAA7856            MOV BP, [BP+SI+5678]
0734:9428 8B33                MOV SI, [BP+DI]
0734:942A 8B7B49              MOV DI, [BP+DI+49]
0734:942D 8BAB7856            MOV BP, [BP+DI+5678]
0734:9431 890F                MOV [BX], CX
0734:9433 895778              MOV [BX+78], DX
0734:9436 899F5634            MOV [BX+3456], BX
0734:943A 8900                MOV [BX+SI], AX
0734:943C 896069              MOV [BX+SI+69], SP
0734:943F 89B87856            MOV [BX+SI+5678], DI
0734:9443 8929                MOV [BX+DI], BP
0734:9445 897149              MOV [BX+DI+49], SI
0734:9448 89B97856            MOV [BX+DI+5678], DI
0734:944C 8904                MOV [SI], AX
0734:944E 894C78              MOV [SI+78], CX
0734:9451 89945634            MOV [SI+3456], DX
0734:9455 892D                MOV [DI], BP
0734:9457 896578              MOV [DI+78], SP
0734:945A 89B55634            MOV [DI+3456], SI
0734:945E 897E00              MOV [BP+00], DI
0734:9461 894E78              MOV [BP+78], CX
0734:9464 89965634            MOV [BP+3456], DX
0734:9468 8932                MOV [BP+SI], SI
0734:946A 897A59              MOV [BP+SI+59], DI
0734:946D 89827856            MOV [BP+SI+5678], AX
0734:9471 893B                MOV [BP+DI], DI
0734:9473 895B19              MOV [BP+DI+19], BX
0734:9476 89937856            MOV [BP+DI+5678], DX
0734:947A 8A05                MOV AL, [DI]
0734:947C 8A6578              MOV AH, [DI+78]
0734:947F 8ABD5634            MOV BH, [DI+3456]
0734:9483 8A4E00              MOV CL, [BP+00]
0734:9486 8A5678              MOV DL, [BP+78]
0734:9489 8A9E5634            MOV BL, [BP+3456]
0734:948D 8A2A                MOV CH, [BP+SI]
0734:948F 887578              MOV [DI+78], DH
0734:9492 88955634            MOV [DI+3456], DL
0734:9496 886E00              MOV [BP+00], CH
0734:9499 884E56              MOV [BP+56], CL
0734:949C 88BE5634            MOV [BP+3456], BH
0734:94A0 881A                MOV [BP+SI], BL
0734:94A2 886245              MOV [BP+SI+45], AH
0734:94A5 88827856            MOV [BP+SI+5678], AL
0734:94A9 C6457815            MOV BYTE PTR [DI+78], 15
0734:94AD C685563416          MOV BYTE PTR [DI+3456], 16
0734:94B2 C6460028            MOV BYTE PTR [BP+00], 28
0734:94B6 C6465688            MOV BYTE PTR [BP+56], 88
0734:94BA C78656343412        MOV WORD PTR [BP+3456], 1234
0734:94C0 C7021534            MOV WORD PTR [BP+SI], 3415
0734:94C4 C742458547          MOV WORD PTR [BP+SI+45], 4785
0734:94C9 C78278563615        MOV WORD PTR [BP+SI+5678], 1536
0734:94CF B015                MOV AL, 15
0734:94D1 B416                MOV AH, 16
0734:94D3 B128                MOV CL, 28
0734:94D5 B688                MOV DH, 88
0734:94D7 BB3412              MOV BX, 1234
0734:94DA BE1534              MOV SI, 3415
0734:94DD BC8547              MOV SP, 4785
0734:94E0 BD3615              MOV BP, 1536
0734:94E3 C7C51254            MOV BP, 5412
0734:94E7 A13412              MOV AX, [1234]
0734:94EA A03412              MOV AL, [1234]
0734:94ED A31234              MOV [3412], AX
0734:94F0 A21234              MOV [3412], AL
0734:94F3 8C0F                MOV WORD PTR [BX], SS
0734:94F5 8C5778              MOV WORD PTR [BX+78], CS
0734:94F8 8C9F5634            MOV WORD PTR [BX+3456], DS
0734:94FC 8C00                MOV WORD PTR [BX+SI], ES
0734:94FE 8C4869              MOV WORD PTR [BX+SI+69], SS
0734:9501 8E1F                MOV DS, WORD PTR [BX]
0734:9503 8E4F78              MOV SS, WORD PTR [BX+78]
0734:9506 8E975634            MOV CS, WORD PTR [BX+3456]
0734:950A 8E00                MOV ES, WORD PTR [BX+SI]
0734:950C 8E5869              MOV DS, WORD PTR [BX+SI+69]
0734:950F FF37                PUSH WORD PTR [BX]
0734:9511 FF7778              PUSH WORD PTR [BX+78]
0734:9514 FFB75634            PUSH WORD PTR [BX+3456]
0734:9518 FF30                PUSH WORD PTR [BX+SI]
0734:951A FF7079              PUSH WORD PTR [BX+SI+79]
0734:951D FFB07856            PUSH WORD PTR [BX+SI+5678]
0734:9521 FF31                PUSH WORD PTR [BX+DI]
0734:9523 FF35                PUSH WORD PTR [DI]
0734:9525 FF7558              PUSH WORD PTR [DI+58]
0734:9528 FFB55634            PUSH WORD PTR [DI+3456]
0734:952C FF7600              PUSH WORD PTR [BP+00]
0734:952F FF7658              PUSH WORD PTR [BP+58]
0734:9532 FFB65634            PUSH WORD PTR [BP+3456]
0734:9536 FFB37856            PUSH WORD PTR [BP+DI+5678]
0734:953A 1E                  PUSH DS
0734:953B 0E                  PUSH CS
0734:953C 16                  PUSH SS
0734:953D 06                  PUSH ES
0734:953E 8F07                POP [BX]
0734:9540 8F4778              POP [BX+78]
0734:9543 8F875634            POP [BX+3456]
0734:9547 8F00                POP [BX+SI]
0734:9549 8F4079              POP [BX+SI+79]
0734:954C 8F807856            POP [BX+SI+5678]
0734:9550 8F01                POP [BX+DI]
0734:9552 8F05                POP [DI]
0734:9554 8F4558              POP [DI+58]
0734:9557 8F855634            POP [DI+3456]
0734:955B 8F4600              POP [BP+00]
0734:955E 8F4658              POP [BP+58]
0734:9561 8F865634            POP [BP+3456]
0734:9565 8F837856            POP [BP+DI+5678]
0734:9569 1F                  POP DS
0734:956A 0F                  DB 0F
0734:956B 17                  POP SS
0734:956C 07                  POP ES
0734:956D 50                  PUSH AL
0734:956E 51                  PUSH CX
0734:956F 52                  PUSH DL
0734:9570 53                  PUSH BX
0734:9571 54                  PUSH AH
0734:9572 55                  PUSH BP
0734:9573 56                  PUSH DH
0734:9574 57                  PUSH DI
0734:9575 58                  POP AX
0734:9576 59                  POP CX
0734:9577 5A                  POP DX
0734:9578 5B                  POP BX
0734:9579 5C                  POP SP
0734:957A 5D                  POP BP
0734:957B 5E                  POP SI
0734:957C 5F                  POP DI
0734:957D 86E0                XCHG AL, AL
0734:957F 86E1                XCHG AH, CL
0734:9581 86D8                XCHG AH, AL
0734:9583 86EA                XCHG BL, DL
0734:9585 86FE                XCHG CH, DH
0734:9587 87CB                XCHG DI, BX
0734:9589 87DB                XCHG CX, BX
0734:958B 87CA                XCHG BX, DX
0734:958D 87D9                XCHG CX, CX
0734:958F 87EC                XCHG BX, SP
0734:9591 87FE                XCHG BP, SI
0734:9593 87F9                XCHG DI, CX
0734:9595 87F7                XCHG DI, DI
0734:9597 87CD                XCHG SI, BP
0734:9599 87EA                XCHG CX, DX
0734:959B 8607                XCHG CH, BYTE PTR [BX]
0734:959D 864E00              XCHG AL, BYTE PTR [BP+00]
0734:95A0 8600                XCHG CL, BYTE PTR [BX+SI]
0734:95A2 86964523            XCHG AL, BYTE PTR [BP+2345]
0734:95A6 86B45423            XCHG DL, BYTE PTR [SI+2354]
0734:95AA 8737                XCHG SI, WORD PTR [BX]
0734:95AC 870B                XCHG SI, WORD PTR [BP+DI]
0734:95AE 874015              XCHG CX, WORD PTR [BX+SI+15]
0734:95B1 87AB4523            XCHG AX, WORD PTR [BP+DI+2345]
0734:95B5 87945423            XCHG BP, WORD PTR [SI+2354]
0734:95B9 90                  XCHG AX, AX
0734:95BA 91                  XCHG AX, CX
0734:95BB 92                  XCHG AX, DX
0734:95BC 93                  XCHG AX, BX
0734:95BD 94                  XCHG AX, SP
0734:95BE 95                  XCHG AX, BP
0734:95BF 96                  XCHG AX, SI
0734:95C0 97                  XCHG AX, DI
0734:95C1 E412                IN AL, 12
0734:95C3 E515                IN AX, 15
0734:95C5 EC                  IN AL, DX
0734:95C6 ED                  IN AX, DX
0734:95C7 E617                OUT 17, AL
0734:95C9 E745                OUT 45, AX
0734:95CB EE                  OUT DX, AL
0734:95CC EF                  OUT DX, AX
0734:95CD D7                  XLAT
0734:95CE 8D985423            LEA BX, [BX+SI+2354]
0734:95D2 8D4A54              LEA CX, [BP+SI+54]
0734:95D5 8D5600              LEA DX, [BP+00]
0734:95D8 8D3E1200            LEA DI, [0012]
0734:95DC C4985423            LES BX, [BX+SI+2354]
0734:95E0 C54A54              LDS CX, [BP+SI+54]
0734:95E3 C45600              LES DX, [BP+00]
0734:95E6 9F                  LAHF
0734:95E7 9E                  SAHF
0734:95E8 9C                  PUSHF
0734:95E9 9D                  POPF
0734:95EA 030F                ADD CX, [BX]
0734:95EC 035778              ADD DX, [BX+78]
0734:95EF 039F5634            ADD BX, [BX+3456]
0734:95F3 0330                ADD SI, [BX+SI]
0734:95F5 037879              ADD DI, [BX+SI+79]
0734:95F8 03A87856            ADD BP, [BX+SI+5678]
0734:95FC 0331                ADD SI, [BX+DI]
0734:95FE 037929              ADD DI, [BX+DI+29]
0734:9601 03A97856            ADD BP, [BX+DI+5678]
0734:9605 0324                ADD SP, [SI]
0734:9607 035428              ADD DX, [SI+28]
0734:960A 039C5634            ADD BX, [SI+3456]
0734:960E 0305                ADD AX, [DI]
0734:9610 035558              ADD DX, [DI+58]
0734:9613 039D5634            ADD BX, [DI+3456]
0734:9617 034E00              ADD CX, [BP+00]
0734:961A 035658              ADD DX, [BP+58]
0734:961D 039E5634            ADD BX, [BP+3456]
0734:9621 0332                ADD SI, [BP+SI]
0734:9623 037A39              ADD DI, [BP+SI+39]
0734:9626 03AA7856            ADD BP, [BP+SI+5678]
0734:962A 0333                ADD SI, [BP+DI]
0734:962C 037B49              ADD DI, [BP+DI+49]
0734:962F 03AB7856            ADD BP, [BP+DI+5678]
0734:9633 010F                ADD [BX], CX
0734:9635 015778              ADD [BX+78], DX
0734:9638 019F5634            ADD [BX+3456], BX
0734:963C 0100                ADD [BX+SI], AX
0734:963E 016069              ADD [BX+SI+69], SP
0734:9641 01B87856            ADD [BX+SI+5678], DI
0734:9645 0129                ADD [BX+DI], BP
0734:9647 017149              ADD [BX+DI+49], SI
0734:964A 01B97856            ADD [BX+DI+5678], DI
0734:964E 0104                ADD [SI], AX
0734:9650 014C78              ADD [SI+78], CX
0734:9653 01945634            ADD [SI+3456], DX
0734:9657 012D                ADD [DI], BP
0734:9659 016578              ADD [DI+78], SP
0734:965C 01B55634            ADD [DI+3456], SI
0734:9660 017E00              ADD [BP+00], DI
0734:9663 014E78              ADD [BP+78], CX
0734:9666 01965634            ADD [BP+3456], DX
0734:966A 0132                ADD [BP+SI], SI
0734:966C 017A59              ADD [BP+SI+59], DI
0734:966F 01827856            ADD [BP+SI+5678], AX
0734:9673 013B                ADD [BP+DI], DI
0734:9675 015B19              ADD [BP+DI+19], BX
0734:9678 01937856            ADD [BP+DI+5678], DX
0734:967C 0205                ADD AL, [DI]
0734:967E 026578              ADD AH, [DI+78]
0734:9681 02BD5634            ADD BH, [DI+3456]
0734:9685 024E00              ADD CL, [BP+00]
0734:9688 025678              ADD DL, [BP+78]
0734:968B 029E5634            ADD BL, [BP+3456]
0734:968F 022A                ADD CH, [BP+SI]
0734:9691 007578              ADD [DI+78], DH
0734:9694 00955634            ADD [DI+3456], DL
0734:9698 006E00              ADD [BP+00], CH
0734:969B 004E56              ADD [BP+56], CL
0734:969E 00BE5634            ADD [BP+3456], BH
0734:96A2 001A                ADD [BP+SI], BL
0734:96A4 006245              ADD [BP+SI+45], AH
0734:96A7 00827856            ADD [BP+SI+5678], AL
0734:96AB 80457815            ADD BYTE PTR [DI+78], 15
0734:96AF 8085563416          ADD BYTE PTR [DI+3456], 16
0734:96B4 80460028            ADD BYTE PTR [BP+00], 28
0734:96B8 80465688            ADD BYTE PTR [BP+56], 88
0734:96BC 818656343412        ADD WORD PTR [BP+3456], 1234
0734:96C2 81021534            ADD WORD PTR [BP+SI], 3415
0734:96C6 8142458547          ADD WORD PTR [BP+SI+45], 4785
0734:96CB 818278563615        ADD WORD PTR [BP+SI+5678], 1536
0734:96D1 8386563412          ADD WORD PTR [BP+3456], +12
0734:96D6 830235              ADD WORD PTR [BP+SI], +35
0734:96D9 83424545            ADD WORD PTR [BP+SI+45], +45
0734:96DD 8382785616          ADD WORD PTR [BP+SI+5678], +16
0734:96E2 80C115              ADD CL, 15
0734:96E5 80C516              ADD CH, 16
0734:96E8 80C228              ADD DL, 28
0734:96EB 80C488              ADD AH, 88
0734:96EE 81C33412            ADD BX, 1234
0734:96F2 81C71534            ADD DI, 3415
0734:96F6 81C48547            ADD SP, 4785
0734:96FA 81C53615            ADD BP, 1536
0734:96FE 83C314              ADD BX, +14
0734:9701 83C635              ADD SI, +35
0734:9704 83C465              ADD SP, +65
0734:9707 83C516              ADD BP, +16
0734:970A 0417                ADD AL, 17
0734:970C 051752              ADD AX, 5217
0734:970F 130F                ADC CX, [BX]
0734:9711 135778              ADC DX, [BX+78]
0734:9714 139F5634            ADC BX, [BX+3456]
0734:9718 1330                ADC SI, [BX+SI]
0734:971A 137879              ADC DI, [BX+SI+79]
0734:971D 13A87856            ADC BP, [BX+SI+5678]
0734:9721 1331                ADC SI, [BX+DI]
0734:9723 137929              ADC DI, [BX+DI+29]
0734:9726 13A97856            ADC BP, [BX+DI+5678]
0734:972A 1324                ADC SP, [SI]
0734:972C 135428              ADC DX, [SI+28]
0734:972F 139C5634            ADC BX, [SI+3456]
0734:9733 1305                ADC AX, [DI]
0734:9735 135558              ADC DX, [DI+58]
0734:9738 139D5634            ADC BX, [DI+3456]
0734:973C 134E00              ADC CX, [BP+00]
0734:973F 135658              ADC DX, [BP+58]
0734:9742 139E5634            ADC BX, [BP+3456]
0734:9746 1332                ADC SI, [BP+SI]
0734:9748 137A39              ADC DI, [BP+SI+39]
0734:974B 13AA7856            ADC BP, [BP+SI+5678]
0734:974F 1333                ADC SI, [BP+DI]
0734:9751 137B49              ADC DI, [BP+DI+49]
0734:9754 13AB7856            ADC BP, [BP+DI+5678]
0734:9758 110F                ADC [BX], CX
0734:975A 115778              ADC [BX+78], DX
0734:975D 119F5634            ADC [BX+3456], BX
0734:9761 1100                ADC [BX+SI], AX
0734:9763 116069              ADC [BX+SI+69], SP
0734:9766 11B87856            ADC [BX+SI+5678], DI
0734:976A 1129                ADC [BX+DI], BP
0734:976C 117149              ADC [BX+DI+49], SI
0734:976F 11B97856            ADC [BX+DI+5678], DI
0734:9773 1104                ADC [SI], AX
0734:9775 114C78              ADC [SI+78], CX
0734:9778 11945634            ADC [SI+3456], DX
0734:977C 112D                ADC [DI], BP
0734:977E 116578              ADC [DI+78], SP
0734:9781 11B55634            ADC [DI+3456], SI
0734:9785 117E00              ADC [BP+00], DI
0734:9788 114E78              ADC [BP+78], CX
0734:978B 11965634            ADC [BP+3456], DX
0734:978F 1132                ADC [BP+SI], SI
0734:9791 117A59              ADC [BP+SI+59], DI
0734:9794 11827856            ADC [BP+SI+5678], AX
0734:9798 113B                ADC [BP+DI], DI
0734:979A 115B19              ADC [BP+DI+19], BX
0734:979D 11937856            ADC [BP+DI+5678], DX
0734:97A1 1205                ADC AL, [DI]
0734:97A3 126578              ADC AH, [DI+78]
0734:97A6 12BD5634            ADC BH, [DI+3456]
0734:97AA 124E00              ADC CL, [BP+00]
0734:97AD 125678              ADC DL, [BP+78]
0734:97B0 129E5634            ADC BL, [BP+3456]
0734:97B4 122A                ADC CH, [BP+SI]
0734:97B6 107578              ADC [DI+78], DH
0734:97B9 10955634            ADC [DI+3456], DL
0734:97BD 106E00              ADC [BP+00], CH
0734:97C0 104E56              ADC [BP+56], CL
0734:97C3 10BE5634            ADC [BP+3456], BH
0734:97C7 101A                ADC [BP+SI], BL
0734:97C9 106245              ADC [BP+SI+45], AH
0734:97CC 10827856            ADC [BP+SI+5678], AL
0734:97D0 80557815            ADC BYTE PTR [DI+78], 15
0734:97D4 8095563416          ADC BYTE PTR [DI+3456], 16
0734:97D9 80560028            ADC BYTE PTR [BP+00], 28
0734:97DD 80565688            ADC BYTE PTR [BP+56], 88
0734:97E1 819656343412        ADC WORD PTR [BP+3456], 1234
0734:97E7 81121534            ADC WORD PTR [BP+SI], 3415
0734:97EB 8152458547          ADC WORD PTR [BP+SI+45], 4785
0734:97F0 819278563615        ADC WORD PTR [BP+SI+5678], 1536
0734:97F6 8396563412          ADC WORD PTR [BP+3456], +12
0734:97FB 831235              ADC WORD PTR [BP+SI], +35
0734:97FE 83524545            ADC WORD PTR [BP+SI+45], +45
0734:9802 8392785616          ADC WORD PTR [BP+SI+5678], +16
0734:9807 80D115              ADC CL, 15
0734:980A 80D516              ADC CH, 16
0734:980D 80D228              ADC DL, 28
0734:9810 80D488              ADC AH, 88
0734:9813 81D33412            ADC BX, 1234
0734:9817 81D71534            ADC DI, 3415
0734:981B 81D48547            ADC SP, 4785
0734:981F 81D53615            ADC BP, 1536
0734:9823 83D314              ADC BX, +14
0734:9826 83D635              ADC SI, +35
0734:9829 83D465              ADC SP, +65
0734:982C 83D516              ADC BP, +16
0734:982F 0417                ADD AL, 17
0734:9831 051752              ADD AX, 5217
0734:9834 3B0F                CMP CX, [BX]
0734:9836 3B5778              CMP DX, [BX+78]
0734:9839 3B9F5634            CMP BX, [BX+3456]
0734:983D 3B30                CMP SI, [BX+SI]
0734:983F 3B7879              CMP DI, [BX+SI+79]
0734:9842 3BA87856            CMP BP, [BX+SI+5678]
0734:9846 3B31                CMP SI, [BX+DI]
0734:9848 3B7929              CMP DI, [BX+DI+29]
0734:984B 3BA97856            CMP BP, [BX+DI+5678]
0734:984F 3B24                CMP SP, [SI]
0734:9851 3B5428              CMP DX, [SI+28]
0734:9854 3B9C5634            CMP BX, [SI+3456]
0734:9858 3B05                CMP AX, [DI]
0734:985A 3B5558              CMP DX, [DI+58]
0734:985D 3B9D5634            CMP BX, [DI+3456]
0734:9861 3B4E00              CMP CX, [BP+00]
0734:9864 3B5658              CMP DX, [BP+58]
0734:9867 3B9E5634            CMP BX, [BP+3456]
0734:986B 3B32                CMP SI, [BP+SI]
0734:986D 3B7A39              CMP DI, [BP+SI+39]
0734:9870 3BAA7856            CMP BP, [BP+SI+5678]
0734:9874 3B33                CMP SI, [BP+DI]
0734:9876 3B7B49              CMP DI, [BP+DI+49]
0734:9879 3BAB7856            CMP BP, [BP+DI+5678]
0734:987D 390F                CMP [BX], CX
0734:987F 395778              CMP [BX+78], DX
0734:9882 399F5634            CMP [BX+3456], BX
0734:9886 3900                CMP [BX+SI], AX
0734:9888 396069              CMP [BX+SI+69], SP
0734:988B 39B87856            CMP [BX+SI+5678], DI
0734:988F 3929                CMP [BX+DI], BP
0734:9891 397149              CMP [BX+DI+49], SI
0734:9894 39B97856            CMP [BX+DI+5678], DI
0734:9898 3904                CMP [SI], AX
0734:989A 394C78              CMP [SI+78], CX
0734:989D 39945634            CMP [SI+3456], DX
0734:98A1 392D                CMP [DI], BP
0734:98A3 396578              CMP [DI+78], SP
0734:98A6 39B55634            CMP [DI+3456], SI
0734:98AA 397E00              CMP [BP+00], DI
0734:98AD 394E78              CMP [BP+78], CX
0734:98B0 39965634            CMP [BP+3456], DX
0734:98B4 3932                CMP [BP+SI], SI
0734:98B6 397A59              CMP [BP+SI+59], DI
0734:98B9 39827856            CMP [BP+SI+5678], AX
0734:98BD 393B                CMP [BP+DI], DI
0734:98BF 395B19              CMP [BP+DI+19], BX
0734:98C2 39937856            CMP [BP+DI+5678], DX
0734:98C6 3A05                CMP AL, [DI]
0734:98C8 3A6578              CMP AH, [DI+78]
0734:98CB 3ABD5634            CMP BH, [DI+3456]
0734:98CF 3A4E00              CMP CL, [BP+00]
0734:98D2 3A5678              CMP DL, [BP+78]
0734:98D5 3A9E5634            CMP BL, [BP+3456]
0734:98D9 3A2A                CMP CH, [BP+SI]
0734:98DB 387578              CMP [DI+78], DH
0734:98DE 38955634            CMP [DI+3456], DL
0734:98E2 386E00              CMP [BP+00], CH
0734:98E5 384E56              CMP [BP+56], CL
0734:98E8 38BE5634            CMP [BP+3456], BH
0734:98EC 381A                CMP [BP+SI], BL
0734:98EE 386245              CMP [BP+SI+45], AH
0734:98F1 38827856            CMP [BP+SI+5678], AL
0734:98F5 807D7815            CMP BYTE PTR [DI+78], 15
0734:98F9 80BD563416          CMP BYTE PTR [DI+3456], 16
0734:98FE 807E0028            CMP BYTE PTR [BP+00], 28
0734:9902 807E5688            CMP BYTE PTR [BP+56], 88
0734:9906 81BE56343412        CMP WORD PTR [BP+3456], 1234
0734:990C 813A1534            CMP WORD PTR [BP+SI], 3415
0734:9910 817A458547          CMP WORD PTR [BP+SI+45], 4785
0734:9915 81BA78563615        CMP WORD PTR [BP+SI+5678], 1536
0734:991B 83BE563412          CMP WORD PTR [BP+3456], +12
0734:9920 833A35              CMP WORD PTR [BP+SI], +35
0734:9923 837A4545            CMP WORD PTR [BP+SI+45], +45
0734:9927 83BA785616          CMP WORD PTR [BP+SI+5678], +16
0734:992C 80F915              CMP CL, 15
0734:992F 80FD16              CMP CH, 16
0734:9932 80FA28              CMP DL, 28
0734:9935 80FC88              CMP AH, 88
0734:9938 81FB3412            CMP BX, 1234
0734:993C 81FF1534            CMP DI, 3415
0734:9940 81FC8547            CMP SP, 4785
0734:9944 81FD3615            CMP BP, 1536
0734:9948 83FB14              CMP BX, +14
0734:994B 83FE35              CMP SI, +35
0734:994E 83FC65              CMP SP, +65
0734:9951 83FD16              CMP BP, +16
0734:9954 0417                ADD AL, 17
0734:9956 051752              ADD AX, 5217
0734:9959 2B0F                SUB CX, [BX]
0734:995B 2B5778              SUB DX, [BX+78]
0734:995E 2B9F5634            SUB BX, [BX+3456]
0734:9962 2B30                SUB SI, [BX+SI]
0734:9964 2B7879              SUB DI, [BX+SI+79]
0734:9967 2BA87856            SUB BP, [BX+SI+5678]
0734:996B 2B31                SUB SI, [BX+DI]
0734:996D 2B7929              SUB DI, [BX+DI+29]
0734:9970 2BA97856            SUB BP, [BX+DI+5678]
0734:9974 2B24                SUB SP, [SI]
0734:9976 2B5428              SUB DX, [SI+28]
0734:9979 2B9C5634            SUB BX, [SI+3456]
0734:997D 2B05                SUB AX, [DI]
0734:997F 2B5558              SUB DX, [DI+58]
0734:9982 2B9D5634            SUB BX, [DI+3456]
0734:9986 2B4E00              SUB CX, [BP+00]
0734:9989 2B5658              SUB DX, [BP+58]
0734:998C 2B9E5634            SUB BX, [BP+3456]
0734:9990 2B32                SUB SI, [BP+SI]
0734:9992 2B7A39              SUB DI, [BP+SI+39]
0734:9995 2BAA7856            SUB BP, [BP+SI+5678]
0734:9999 2B33                SUB SI, [BP+DI]
0734:999B 2B7B49              SUB DI, [BP+DI+49]
0734:999E 2BAB7856            SUB BP, [BP+DI+5678]
0734:99A2 290F                SUB [BX], CX
0734:99A4 295778              SUB [BX+78], DX
0734:99A7 299F5634            SUB [BX+3456], BX
0734:99AB 2900                SUB [BX+SI], AX
0734:99AD 296069              SUB [BX+SI+69], SP
0734:99B0 29B87856            SUB [BX+SI+5678], DI
0734:99B4 2929                SUB [BX+DI], BP
0734:99B6 297149              SUB [BX+DI+49], SI
0734:99B9 29B97856            SUB [BX+DI+5678], DI
0734:99BD 2904                SUB [SI], AX
0734:99BF 294C78              SUB [SI+78], CX
0734:99C2 29945634            SUB [SI+3456], DX
0734:99C6 292D                SUB [DI], BP
0734:99C8 296578              SUB [DI+78], SP
0734:99CB 29B55634            SUB [DI+3456], SI
0734:99CF 297E00              SUB [BP+00], DI
0734:99D2 294E78              SUB [BP+78], CX
0734:99D5 29965634            SUB [BP+3456], DX
0734:99D9 2932                SUB [BP+SI], SI
0734:99DB 297A59              SUB [BP+SI+59], DI
0734:99DE 29827856            SUB [BP+SI+5678], AX
0734:99E2 293B                SUB [BP+DI], DI
0734:99E4 295B19              SUB [BP+DI+19], BX
0734:99E7 29937856            SUB [BP+DI+5678], DX
0734:99EB 2A05                SUB AL, [DI]
0734:99ED 2A6578              SUB AH, [DI+78]
0734:99F0 2ABD5634            SUB BH, [DI+3456]
0734:99F4 2A4E00              SUB CL, [BP+00]
0734:99F7 2A5678              SUB DL, [BP+78]
0734:99FA 2A9E5634            SUB BL, [BP+3456]
0734:99FE 2A2A                SUB CH, [BP+SI]
0734:9A00 287578              SUB [DI+78], DH
0734:9A03 28955634            SUB [DI+3456], DL
0734:9A07 286E00              SUB [BP+00], CH
0734:9A0A 284E56              SUB [BP+56], CL
0734:9A0D 28BE5634            SUB [BP+3456], BH
0734:9A11 281A                SUB [BP+SI], BL
0734:9A13 286245              SUB [BP+SI+45], AH
0734:9A16 28827856            SUB [BP+SI+5678], AL
0734:9A1A 806D7815            SUB BYTE PTR [DI+78], 15
0734:9A1E 80AD563416          SUB BYTE PTR [DI+3456], 16
0734:9A23 806E0028            SUB BYTE PTR [BP+00], 28
0734:9A27 806E5688            SUB BYTE PTR [BP+56], 88
0734:9A2B 81AE56343412        SUB WORD PTR [BP+3456], 1234
0734:9A31 812A1534            SUB WORD PTR [BP+SI], 3415
0734:9A35 816A458547          SUB WORD PTR [BP+SI+45], 4785
0734:9A3A 81AA78563615        SUB WORD PTR [BP+SI+5678], 1536
0734:9A40 83AE563412          SUB WORD PTR [BP+3456], +12
0734:9A45 832A35              SUB WORD PTR [BP+SI], +35
0734:9A48 836A4545            SUB WORD PTR [BP+SI+45], +45
0734:9A4C 83AA785616          SUB WORD PTR [BP+SI+5678], +16
0734:9A51 80E915              SUB CL, 15
0734:9A54 80ED16              SUB CH, 16
0734:9A57 80EA28              SUB DL, 28
0734:9A5A 80EC88              SUB AH, 88
0734:9A5D 81EB3412            SUB BX, 1234
0734:9A61 81EF1534            SUB DI, 3415
0734:9A65 81EC8547            SUB SP, 4785
0734:9A69 81ED3615            SUB BP, 1536
0734:9A6D 83EB14              SUB BX, +14
0734:9A70 83EE35              SUB SI, +35
0734:9A73 83EC65              SUB SP, +65
0734:9A76 83ED16              SUB BP, +16
0734:9A79 0417                ADD AL, 17
0734:9A7B 051752              ADD AX, 5217
0734:9A7E 1B0F                SSB CX, [BX]
0734:9A80 1B5778              SSB DX, [BX+78]
0734:9A83 1B9F5634            SSB BX, [BX+3456]
0734:9A87 1B30                SSB SI, [BX+SI]
0734:9A89 1B7879              SSB DI, [BX+SI+79]
0734:9A8C 1BA87856            SSB BP, [BX+SI+5678]
0734:9A90 1B31                SSB SI, [BX+DI]
0734:9A92 1B7929              SSB DI, [BX+DI+29]
0734:9A95 1BA97856            SSB BP, [BX+DI+5678]
0734:9A99 1B24                SSB SP, [SI]
0734:9A9B 1B5428              SSB DX, [SI+28]
0734:9A9E 1B9C5634            SSB BX, [SI+3456]
0734:9AA2 1B05                SSB AX, [DI]
0734:9AA4 1B5558              SSB DX, [DI+58]
0734:9AA7 1B9D5634            SSB BX, [DI+3456]
0734:9AAB 1B4E00              SSB CX, [BP+00]
0734:9AAE 1B5658              SSB DX, [BP+58]
0734:9AB1 1B9E5634            SSB BX, [BP+3456]
0734:9AB5 1B32                SSB SI, [BP+SI]
0734:9AB7 1B7A39              SSB DI, [BP+SI+39]
0734:9ABA 1BAA7856            SSB BP, [BP+SI+5678]
0734:9ABE 1B33                SSB SI, [BP+DI]
0734:9AC0 1B7B49              SSB DI, [BP+DI+49]
0734:9AC3 1BAB7856            SSB BP, [BP+DI+5678]
0734:9AC7 190F                SSB [BX], CX
0734:9AC9 195778              SSB [BX+78], DX
0734:9ACC 199F5634            SSB [BX+3456], BX
0734:9AD0 1900                SSB [BX+SI], AX
0734:9AD2 196069              SSB [BX+SI+69], SP
0734:9AD5 19B87856            SSB [BX+SI+5678], DI
0734:9AD9 1929                SSB [BX+DI], BP
0734:9ADB 197149              SSB [BX+DI+49], SI
0734:9ADE 19B97856            SSB [BX+DI+5678], DI
0734:9AE2 1904                SSB [SI], AX
0734:9AE4 194C78              SSB [SI+78], CX
0734:9AE7 19945634            SSB [SI+3456], DX
0734:9AEB 192D                SSB [DI], BP
0734:9AED 196578              SSB [DI+78], SP
0734:9AF0 19B55634            SSB [DI+3456], SI
0734:9AF4 197E00              SSB [BP+00], DI
0734:9AF7 194E78              SSB [BP+78], CX
0734:9AFA 19965634            SSB [BP+3456], DX
0734:9AFE 1932                SSB [BP+SI], SI
0734:9B00 197A59              SSB [BP+SI+59], DI
0734:9B03 19827856            SSB [BP+SI+5678], AX
0734:9B07 193B                SSB [BP+DI], DI
0734:9B09 195B19              SSB [BP+DI+19], BX
0734:9B0C 19937856            SSB [BP+DI+5678], DX
0734:9B10 1A05                SSB AL, [DI]
0734:9B12 1A6578              SSB AH, [DI+78]
0734:9B15 1ABD5634            SSB BH, [DI+3456]
0734:9B19 1A4E00              SSB CL, [BP+00]
0734:9B1C 1A5678              SSB DL, [BP+78]
0734:9B1F 1A9E5634            SSB BL, [BP+3456]
0734:9B23 1A2A                SSB CH, [BP+SI]
0734:9B25 187578              SSB [DI+78], DH
0734:9B28 18955634            SSB [DI+3456], DL
0734:9B2C 186E00              SSB [BP+00], CH
0734:9B2F 184E56              SSB [BP+56], CL
0734:9B32 18BE5634            SSB [BP+3456], BH
0734:9B36 181A                SSB [BP+SI], BL
0734:9B38 186245              SSB [BP+SI+45], AH
0734:9B3B 18827856            SSB [BP+SI+5678], AL
0734:9B3F 805D7815            SSB BYTE PTR [DI+78], 15
0734:9B43 809D563416          SSB BYTE PTR [DI+3456], 16
0734:9B48 805E0028            SSB BYTE PTR [BP+00], 28
0734:9B4C 805E5688            SSB BYTE PTR [BP+56], 88
0734:9B50 819E56343412        SSB WORD PTR [BP+3456], 1234
0734:9B56 811A1534            SSB WORD PTR [BP+SI], 3415
0734:9B5A 815A458547          SSB WORD PTR [BP+SI+45], 4785
0734:9B5F 819A78563615        SSB WORD PTR [BP+SI+5678], 1536
0734:9B65 839E563412          SSB WORD PTR [BP+3456], +12
0734:9B6A 831A35              SSB WORD PTR [BP+SI], +35
0734:9B6D 835A4545            SSB WORD PTR [BP+SI+45], +45
0734:9B71 839A785616          SSB WORD PTR [BP+SI+5678], +16
0734:9B76 80D915              SSB CL, 15
0734:9B79 80DD16              SSB CH, 16
0734:9B7C 80DA28              SSB DL, 28
0734:9B7F 80DC88              SSB AH, 88
0734:9B82 81DB3412            SSB BX, 1234
0734:9B86 81DF1534            SSB DI, 3415
0734:9B8A 81DC8547            SSB SP, 4785
0734:9B8E 81DD3615            SSB BP, 1536
0734:9B92 83DB14              SSB BX, +14
0734:9B95 83DE35              SSB SI, +35
0734:9B98 83DC65              SSB SP, +65
0734:9B9B 83DD16              SSB BP, +16
0734:9B9E 0417                ADD AL, 17
0734:9BA0 051752              ADD AX, 5217
0734:9BA3 F727                MUL WORD PTR [BX]
0734:9BA5 F76778              MUL WORD PTR [BX+78]
0734:9BA8 F7A75634            MUL WORD PTR [BX+3456]
0734:9BAC F720                MUL WORD PTR [BX+SI]
0734:9BAE F76079              MUL WORD PTR [BX+SI+79]
0734:9BB1 F7A07856            MUL WORD PTR [BX+SI+5678]
0734:9BB5 F721                MUL WORD PTR [BX+DI]
0734:9BB7 F76129              MUL WORD PTR [BX+DI+29]
0734:9BBA F7A17856            MUL WORD PTR [BX+DI+5678]
0734:9BBE F724                MUL WORD PTR [SI]
0734:9BC0 F76428              MUL WORD PTR [SI+28]
0734:9BC3 F7A45634            MUL WORD PTR [SI+3456]
0734:9BC7 F725                MUL WORD PTR [DI]
0734:9BC9 F76558              MUL WORD PTR [DI+58]
0734:9BCC F7A55634            MUL WORD PTR [DI+3456]
0734:9BD0 F7E5                MUL BP
0734:9BD2 F76658              MUL WORD PTR [BP+58]
0734:9BD5 F7A65634            MUL WORD PTR [BP+3456]
0734:9BD9 F7E1                MUL CX
0734:9BDB F76239              MUL WORD PTR [BP+SI+39]
0734:9BDE F7A27856            MUL WORD PTR [BP+SI+5678]
0734:9BE2 F7E2                MUL DX
0734:9BE4 F76349              MUL WORD PTR [BP+DI+49]
0734:9BE7 F7E6                MUL SI
0734:9BE9 F66578              MUL BYTE PTR [DI+78]
0734:9BEC F6A55634            MUL BYTE PTR [DI+3456]
0734:9BF0 F6E6                MUL DH
0734:9BF2 F66678              MUL BYTE PTR [BP+78]
0734:9BF5 F6A65634            MUL BYTE PTR [BP+3456]
0734:9BF9 F6E4                MUL AH
0734:9BFB F6E3                MUL BL
0734:9BFD F6A55634            MUL BYTE PTR [DI+3456]
0734:9C01 F72F                IMUL WORD PTR [BX]
0734:9C03 F76F78              IMUL WORD PTR [BX+78]
0734:9C06 F7AF5634            IMUL WORD PTR [BX+3456]
0734:9C0A F728                IMUL WORD PTR [BX+SI]
0734:9C0C F76879              IMUL WORD PTR [BX+SI+79]
0734:9C0F F7A87856            IMUL WORD PTR [BX+SI+5678]
0734:9C13 F729                IMUL WORD PTR [BX+DI]
0734:9C15 F76929              IMUL WORD PTR [BX+DI+29]
0734:9C18 F7A97856            IMUL WORD PTR [BX+DI+5678]
0734:9C1C F72C                IMUL WORD PTR [SI]
0734:9C1E F76C28              IMUL WORD PTR [SI+28]
0734:9C21 F7AC5634            IMUL WORD PTR [SI+3456]
0734:9C25 F72D                IMUL WORD PTR [DI]
0734:9C27 F76D58              IMUL WORD PTR [DI+58]
0734:9C2A F7AD5634            IMUL WORD PTR [DI+3456]
0734:9C2E F7ED                IMUL BP
0734:9C30 F76E58              IMUL WORD PTR [BP+58]
0734:9C33 F7AE5634            IMUL WORD PTR [BP+3456]
0734:9C37 F7E9                IMUL CX
0734:9C39 F76A39              IMUL WORD PTR [BP+SI+39]
0734:9C3C F7AA7856            IMUL WORD PTR [BP+SI+5678]
0734:9C40 F7EF                IMUL DI
0734:9C42 F76B49              IMUL WORD PTR [BP+DI+49]
0734:9C45 F7EE                IMUL SI
0734:9C47 F66D78              IMUL BYTE PTR [DI+78]
0734:9C4A F6AD5634            IMUL BYTE PTR [DI+3456]
0734:9C4E F6EE                IMUL DH
0734:9C50 F66E78              IMUL BYTE PTR [BP+78]
0734:9C53 F6AE5634            IMUL BYTE PTR [BP+3456]
0734:9C57 F6EC                IMUL AH
0734:9C59 F6EB                IMUL BL
0734:9C5B F6AD5634            IMUL BYTE PTR [DI+3456]
0734:9C5F F737                DIV WORD PTR [BX]
0734:9C61 F77778              DIV WORD PTR [BX+78]
0734:9C64 F7B75634            DIV WORD PTR [BX+3456]
0734:9C68 F730                DIV WORD PTR [BX+SI]
0734:9C6A F77079              DIV WORD PTR [BX+SI+79]
0734:9C6D F7B07856            DIV WORD PTR [BX+SI+5678]
0734:9C71 F731                DIV WORD PTR [BX+DI]
0734:9C73 F77129              DIV WORD PTR [BX+DI+29]
0734:9C76 F7B17856            DIV WORD PTR [BX+DI+5678]
0734:9C7A F734                DIV WORD PTR [SI]
0734:9C7C F77428              DIV WORD PTR [SI+28]
0734:9C7F F7B45634            DIV WORD PTR [SI+3456]
0734:9C83 F735                DIV WORD PTR [DI]
0734:9C85 F77558              DIV WORD PTR [DI+58]
0734:9C88 F7B55634            DIV WORD PTR [DI+3456]
0734:9C8C F7F5                DIV BP
0734:9C8E F77658              DIV WORD PTR [BP+58]
0734:9C91 F7B65634            DIV WORD PTR [BP+3456]
0734:9C95 F7F1                DIV CX
0734:9C97 F77239              DIV WORD PTR [BP+SI+39]
0734:9C9A F7B27856            DIV WORD PTR [BP+SI+5678]
0734:9C9E F7F2                DIV DX
0734:9CA0 F77349              DIV WORD PTR [BP+DI+49]
0734:9CA3 F7F6                DIV SI
0734:9CA5 F67578              DIV BYTE PTR [DI+78]
0734:9CA8 F6B55634            DIV BYTE PTR [DI+3456]
0734:9CAC F6F6                DIV DH
0734:9CAE F67678              DIV BYTE PTR [BP+78]
0734:9CB1 F6B65634            DIV BYTE PTR [BP+3456]
0734:9CB5 F6F2                DIV DL
0734:9CB7 F6F3                DIV BL
0734:9CB9 F6B55634            DIV BYTE PTR [DI+3456]
0734:9CBD F73F                IDIV WORD PTR [BX]
0734:9CBF F77F78              IDIV WORD PTR [BX+78]
0734:9CC2 F7BF5634            IDIV WORD PTR [BX+3456]
0734:9CC6 F738                IDIV WORD PTR [BX+SI]
0734:9CC8 F77879              IDIV WORD PTR [BX+SI+79]
0734:9CCB F7B87856            IDIV WORD PTR [BX+SI+5678]
0734:9CCF F739                IDIV WORD PTR [BX+DI]
0734:9CD1 F77929              IDIV WORD PTR [BX+DI+29]
0734:9CD4 F7B97856            IDIV WORD PTR [BX+DI+5678]
0734:9CD8 F73C                IDIV WORD PTR [SI]
0734:9CDA F77C28              IDIV WORD PTR [SI+28]
0734:9CDD F7BC5634            IDIV WORD PTR [SI+3456]
0734:9CE1 F73D                IDIV WORD PTR [DI]
0734:9CE3 F77D58              IDIV WORD PTR [DI+58]
0734:9CE6 F7BD5634            IDIV WORD PTR [DI+3456]
0734:9CEA F7FD                IDIV BP
0734:9CEC F77E58              IDIV WORD PTR [BP+58]
0734:9CEF F7BE5634            IDIV WORD PTR [BP+3456]
0734:9CF3 F7F8                IDIV AX
0734:9CF5 F77A39              IDIV WORD PTR [BP+SI+39]
0734:9CF8 F7BA7856            IDIV WORD PTR [BP+SI+5678]
0734:9CFC F7FA                IDIV DX
0734:9CFE F77B49              IDIV WORD PTR [BP+DI+49]
0734:9D01 F7FE                IDIV SI
0734:9D03 F67D78              IDIV BYTE PTR [DI+78]
0734:9D06 F6BD5634            IDIV BYTE PTR [DI+3456]
0734:9D0A F6FE                IDIV DH
0734:9D0C F67E78              IDIV BYTE PTR [BP+78]
0734:9D0F F6BE5634            IDIV BYTE PTR [BP+3456]
0734:9D13 F6FC                IDIV AH
0734:9D15 F6FB                IDIV BL
0734:9D17 F6BD5634            IDIV BYTE PTR [DI+3456]
0734:9D1B FF07                INC WORD PTR [BX]
0734:9D1D FF4778              INC WORD PTR [BX+78]
0734:9D20 FF875634            INC WORD PTR [BX+3456]
0734:9D24 FF00                INC WORD PTR [BX+SI]
0734:9D26 FF4079              INC WORD PTR [BX+SI+79]
0734:9D29 FF807856            INC WORD PTR [BX+SI+5678]
0734:9D2D FF01                INC WORD PTR [BX+DI]
0734:9D2F FF4129              INC WORD PTR [BX+DI+29]
0734:9D32 FF817856            INC WORD PTR [BX+DI+5678]
0734:9D36 FF04                INC WORD PTR [SI]
0734:9D38 FF4428              INC WORD PTR [SI+28]
0734:9D3B FF845634            INC WORD PTR [SI+3456]
0734:9D3F FF05                INC WORD PTR [DI]
0734:9D41 FF4558              INC WORD PTR [DI+58]
0734:9D44 FF855634            INC WORD PTR [DI+3456]
0734:9D48 FEC0                INC AL
0734:9D4A FEC1                INC CL
0734:9D4C FEC2                INC DL
0734:9D4E FEC3                INC BL
0734:9D50 FEC4                INC AH
0734:9D52 FEC5                INC CH
0734:9D54 FEC7                INC BH
0734:9D56 FEC6                INC DH
0734:9D58 40                  INC AX
0734:9D59 41                  INC CX
0734:9D5A 42                  INC DX
0734:9D5B 43                  INC BX
0734:9D5C 44                  INC SP
0734:9D5D 45                  INC BP
0734:9D5E 46                  INC SI
0734:9D5F 47                  INC DI
0734:9D60 FF0F                DEC WORD PTR [BX]
0734:9D62 FF4F78              DEC WORD PTR [BX+78]
0734:9D65 FF8F5634            DEC WORD PTR [BX+3456]
0734:9D69 FF08                DEC WORD PTR [BX+SI]
0734:9D6B FF4879              DEC WORD PTR [BX+SI+79]
0734:9D6E FF887856            DEC WORD PTR [BX+SI+5678]
0734:9D72 FF09                DEC WORD PTR [BX+DI]
0734:9D74 FF4929              DEC WORD PTR [BX+DI+29]
0734:9D77 FF897856            DEC WORD PTR [BX+DI+5678]
0734:9D7B FF0C                DEC WORD PTR [SI]
0734:9D7D FF4C28              DEC WORD PTR [SI+28]
0734:9D80 FF8C5634            DEC WORD PTR [SI+3456]
0734:9D84 FF0D                DEC WORD PTR [DI]
0734:9D86 FF4D58              DEC WORD PTR [DI+58]
0734:9D89 FF8D5634            DEC WORD PTR [DI+3456]
0734:9D8D FEC8                DEC AL
0734:9D8F FEC9                DEC CL
0734:9D91 FECA                DEC DL
0734:9D93 FECB                DEC BL
0734:9D95 FECC                DEC AH
0734:9D97 FECD                DEC CH
0734:9D99 FECF                DEC BH
0734:9D9B FECE                DEC DH
0734:9D9D 48                  DEC AX
0734:9D9E 49                  DEC CX
0734:9D9F 4A                  DEC DX
0734:9DA0 4B                  DEC BX
0734:9DA1 4C                  DEC SP
0734:9DA2 4D                  DEC BP
0734:9DA3 4E                  DEC SI
0734:9DA4 4F                  DEC DI
0734:9DA5 37                  AAA
0734:9DA6 D50A                AAD 0A
0734:9DA8 3F                  AAS
0734:9DA9 D40A                AAM 0A
0734:9DAB D505                AAD 05
0734:9DAD D403                AAM 03
0734:9DAF 27                  BAA
0734:9DB0 2F                  DAS
0734:9DB1 F7DD                NEG BP
0734:9DB3 F75E58              NEG WORD PTR [BP+58]
0734:9DB6 F79E5634            NEG WORD PTR [BP+3456]
0734:9DBA F7D9                NEG CX
0734:9DBC F75A39              NEG WORD PTR [BP+SI+39]
0734:9DBF F79A7856            NEG WORD PTR [BP+SI+5678]
0734:9DC3 F7DA                NEG DX
0734:9DC5 F75B49              NEG WORD PTR [BP+DI+49]
0734:9DC8 F7DE                NEG SI
0734:9DCA F65D78              NEG BYTE PTR [DI+78]
0734:9DCD F69D5634            NEG BYTE PTR [DI+3456]
0734:9DD1 F6DE                NEG DH
0734:9DD3 F65E78              NEG BYTE PTR [BP+78]
0734:9DD6 F69E5634            NEG BYTE PTR [BP+3456]
0734:9DDA F6DC                NEG AH
0734:9DDC F6DB                NEG BL
0734:9DDE F69D5634            NEG BYTE PTR [DI+3456]
0734:9DE2 98                  CBW
0734:9DE3 99                  CWD
